
Actionneur_Autom_TDm.elf:     file format elf32-littlearm

Sections:
Idx Name          Size      VMA       LMA       File off  Algn
  0 .isr_vector   000001d8  08000000  08000000  00001000  2**0
                  CONTENTS, ALLOC, LOAD, READONLY, DATA
  1 .text         00006b5c  080001e0  080001e0  000011e0  2**4
                  CONTENTS, ALLOC, LOAD, READONLY, CODE
  2 .rodata       000000a8  08006d3c  08006d3c  00007d3c  2**2
                  CONTENTS, ALLOC, LOAD, READONLY, DATA
  3 .ARM.extab    00000000  08006de4  08006de4  00008068  2**0
                  CONTENTS
  4 .ARM          00000008  08006de4  08006de4  00007de4  2**2
                  CONTENTS, ALLOC, LOAD, READONLY, DATA
  5 .preinit_array 00000000  08006dec  08006dec  00008068  2**0
                  CONTENTS, ALLOC, LOAD, DATA
  6 .init_array   00000004  08006dec  08006dec  00007dec  2**2
                  CONTENTS, ALLOC, LOAD, READONLY, DATA
  7 .fini_array   00000004  08006df0  08006df0  00007df0  2**2
                  CONTENTS, ALLOC, LOAD, READONLY, DATA
  8 .data         00000068  20000000  08006df4  00008000  2**2
                  CONTENTS, ALLOC, LOAD, DATA
  9 .bss          000002bc  20000068  08006e5c  00008068  2**2
                  ALLOC
 10 ._user_heap_stack 00000604  20000324  08006e5c  00008324  2**0
                  ALLOC
 11 .ARM.attributes 00000030  00000000  00000000  00008068  2**0
                  CONTENTS, READONLY
 12 .debug_info   00017e0b  00000000  00000000  00008098  2**0
                  CONTENTS, READONLY, DEBUGGING, OCTETS
 13 .debug_abbrev 0000300b  00000000  00000000  0001fea3  2**0
                  CONTENTS, READONLY, DEBUGGING, OCTETS
 14 .debug_aranges 000014f8  00000000  00000000  00022eb0  2**3
                  CONTENTS, READONLY, DEBUGGING, OCTETS
 15 .debug_rnglists 0000103c  00000000  00000000  000243a8  2**0
                  CONTENTS, READONLY, DEBUGGING, OCTETS
 16 .debug_macro  000219f5  00000000  00000000  000253e4  2**0
                  CONTENTS, READONLY, DEBUGGING, OCTETS
 17 .debug_line   00017d70  00000000  00000000  00046dd9  2**0
                  CONTENTS, READONLY, DEBUGGING, OCTETS
 18 .debug_str    000dd0a4  00000000  00000000  0005eb49  2**0
                  CONTENTS, READONLY, DEBUGGING, OCTETS
 19 .comment      00000043  00000000  00000000  0013bbed  2**0
                  CONTENTS, READONLY
 20 .debug_frame  000060f0  00000000  00000000  0013bc30  2**2
                  CONTENTS, READONLY, DEBUGGING, OCTETS
 21 .debug_line_str 0000005d  00000000  00000000  00141d20  2**0
                  CONTENTS, READONLY, DEBUGGING, OCTETS

Disassembly of section .text:

080001e0 <__do_global_dtors_aux>:
 80001e0:	b510      	push	{r4, lr}
 80001e2:	4c05      	ldr	r4, [pc, #20]	@ (80001f8 <__do_global_dtors_aux+0x18>)
 80001e4:	7823      	ldrb	r3, [r4, #0]
 80001e6:	b933      	cbnz	r3, 80001f6 <__do_global_dtors_aux+0x16>
 80001e8:	4b04      	ldr	r3, [pc, #16]	@ (80001fc <__do_global_dtors_aux+0x1c>)
 80001ea:	b113      	cbz	r3, 80001f2 <__do_global_dtors_aux+0x12>
 80001ec:	4804      	ldr	r0, [pc, #16]	@ (8000200 <__do_global_dtors_aux+0x20>)
 80001ee:	f3af 8000 	nop.w
 80001f2:	2301      	movs	r3, #1
 80001f4:	7023      	strb	r3, [r4, #0]
 80001f6:	bd10      	pop	{r4, pc}
 80001f8:	20000068 	.word	0x20000068
 80001fc:	00000000 	.word	0x00000000
 8000200:	08006d24 	.word	0x08006d24

08000204 <frame_dummy>:
 8000204:	b508      	push	{r3, lr}
 8000206:	4b03      	ldr	r3, [pc, #12]	@ (8000214 <frame_dummy+0x10>)
 8000208:	b11b      	cbz	r3, 8000212 <frame_dummy+0xe>
 800020a:	4903      	ldr	r1, [pc, #12]	@ (8000218 <frame_dummy+0x14>)
 800020c:	4803      	ldr	r0, [pc, #12]	@ (800021c <frame_dummy+0x18>)
 800020e:	f3af 8000 	nop.w
 8000212:	bd08      	pop	{r3, pc}
 8000214:	00000000 	.word	0x00000000
 8000218:	2000006c 	.word	0x2000006c
 800021c:	08006d24 	.word	0x08006d24

08000220 <memchr>:
 8000220:	f001 01ff 	and.w	r1, r1, #255	@ 0xff
 8000224:	2a10      	cmp	r2, #16
 8000226:	db2b      	blt.n	8000280 <memchr+0x60>
 8000228:	f010 0f07 	tst.w	r0, #7
 800022c:	d008      	beq.n	8000240 <memchr+0x20>
 800022e:	f810 3b01 	ldrb.w	r3, [r0], #1
 8000232:	3a01      	subs	r2, #1
 8000234:	428b      	cmp	r3, r1
 8000236:	d02d      	beq.n	8000294 <memchr+0x74>
 8000238:	f010 0f07 	tst.w	r0, #7
 800023c:	b342      	cbz	r2, 8000290 <memchr+0x70>
 800023e:	d1f6      	bne.n	800022e <memchr+0xe>
 8000240:	b4f0      	push	{r4, r5, r6, r7}
 8000242:	ea41 2101 	orr.w	r1, r1, r1, lsl #8
 8000246:	ea41 4101 	orr.w	r1, r1, r1, lsl #16
 800024a:	f022 0407 	bic.w	r4, r2, #7
 800024e:	f07f 0700 	mvns.w	r7, #0
 8000252:	2300      	movs	r3, #0
 8000254:	e8f0 5602 	ldrd	r5, r6, [r0], #8
 8000258:	3c08      	subs	r4, #8
 800025a:	ea85 0501 	eor.w	r5, r5, r1
 800025e:	ea86 0601 	eor.w	r6, r6, r1
 8000262:	fa85 f547 	uadd8	r5, r5, r7
 8000266:	faa3 f587 	sel	r5, r3, r7
 800026a:	fa86 f647 	uadd8	r6, r6, r7
 800026e:	faa5 f687 	sel	r6, r5, r7
 8000272:	b98e      	cbnz	r6, 8000298 <memchr+0x78>
 8000274:	d1ee      	bne.n	8000254 <memchr+0x34>
 8000276:	bcf0      	pop	{r4, r5, r6, r7}
 8000278:	f001 01ff 	and.w	r1, r1, #255	@ 0xff
 800027c:	f002 0207 	and.w	r2, r2, #7
 8000280:	b132      	cbz	r2, 8000290 <memchr+0x70>
 8000282:	f810 3b01 	ldrb.w	r3, [r0], #1
 8000286:	3a01      	subs	r2, #1
 8000288:	ea83 0301 	eor.w	r3, r3, r1
 800028c:	b113      	cbz	r3, 8000294 <memchr+0x74>
 800028e:	d1f8      	bne.n	8000282 <memchr+0x62>
 8000290:	2000      	movs	r0, #0
 8000292:	4770      	bx	lr
 8000294:	3801      	subs	r0, #1
 8000296:	4770      	bx	lr
 8000298:	2d00      	cmp	r5, #0
 800029a:	bf06      	itte	eq
 800029c:	4635      	moveq	r5, r6
 800029e:	3803      	subeq	r0, #3
 80002a0:	3807      	subne	r0, #7
 80002a2:	f015 0f01 	tst.w	r5, #1
 80002a6:	d107      	bne.n	80002b8 <memchr+0x98>
 80002a8:	3001      	adds	r0, #1
 80002aa:	f415 7f80 	tst.w	r5, #256	@ 0x100
 80002ae:	bf02      	ittt	eq
 80002b0:	3001      	addeq	r0, #1
 80002b2:	f415 3fc0 	tsteq.w	r5, #98304	@ 0x18000
 80002b6:	3001      	addeq	r0, #1
 80002b8:	bcf0      	pop	{r4, r5, r6, r7}
 80002ba:	3801      	subs	r0, #1
 80002bc:	4770      	bx	lr
 80002be:	bf00      	nop

080002c0 <__aeabi_uldivmod>:
 80002c0:	b953      	cbnz	r3, 80002d8 <__aeabi_uldivmod+0x18>
 80002c2:	b94a      	cbnz	r2, 80002d8 <__aeabi_uldivmod+0x18>
 80002c4:	2900      	cmp	r1, #0
 80002c6:	bf08      	it	eq
 80002c8:	2800      	cmpeq	r0, #0
 80002ca:	bf1c      	itt	ne
 80002cc:	f04f 31ff 	movne.w	r1, #4294967295	@ 0xffffffff
 80002d0:	f04f 30ff 	movne.w	r0, #4294967295	@ 0xffffffff
 80002d4:	f000 b96a 	b.w	80005ac <__aeabi_idiv0>
 80002d8:	f1ad 0c08 	sub.w	ip, sp, #8
 80002dc:	e96d ce04 	strd	ip, lr, [sp, #-16]!
 80002e0:	f000 f806 	bl	80002f0 <__udivmoddi4>
 80002e4:	f8dd e004 	ldr.w	lr, [sp, #4]
 80002e8:	e9dd 2302 	ldrd	r2, r3, [sp, #8]
 80002ec:	b004      	add	sp, #16
 80002ee:	4770      	bx	lr

080002f0 <__udivmoddi4>:
 80002f0:	e92d 47f0 	stmdb	sp!, {r4, r5, r6, r7, r8, r9, sl, lr}
 80002f4:	9d08      	ldr	r5, [sp, #32]
 80002f6:	460c      	mov	r4, r1
 80002f8:	2b00      	cmp	r3, #0
 80002fa:	d14e      	bne.n	800039a <__udivmoddi4+0xaa>
 80002fc:	4694      	mov	ip, r2
 80002fe:	458c      	cmp	ip, r1
 8000300:	4686      	mov	lr, r0
 8000302:	fab2 f282 	clz	r2, r2
 8000306:	d962      	bls.n	80003ce <__udivmoddi4+0xde>
 8000308:	b14a      	cbz	r2, 800031e <__udivmoddi4+0x2e>
 800030a:	f1c2 0320 	rsb	r3, r2, #32
 800030e:	4091      	lsls	r1, r2
 8000310:	fa20 f303 	lsr.w	r3, r0, r3
 8000314:	fa0c fc02 	lsl.w	ip, ip, r2
 8000318:	4319      	orrs	r1, r3
 800031a:	fa00 fe02 	lsl.w	lr, r0, r2
 800031e:	ea4f 471c 	mov.w	r7, ip, lsr #16
 8000322:	fa1f f68c 	uxth.w	r6, ip
 8000326:	fbb1 f4f7 	udiv	r4, r1, r7
 800032a:	ea4f 431e 	mov.w	r3, lr, lsr #16
 800032e:	fb07 1114 	mls	r1, r7, r4, r1
 8000332:	ea43 4301 	orr.w	r3, r3, r1, lsl #16
 8000336:	fb04 f106 	mul.w	r1, r4, r6
 800033a:	4299      	cmp	r1, r3
 800033c:	d90a      	bls.n	8000354 <__udivmoddi4+0x64>
 800033e:	eb1c 0303 	adds.w	r3, ip, r3
 8000342:	f104 30ff 	add.w	r0, r4, #4294967295	@ 0xffffffff
 8000346:	f080 8112 	bcs.w	800056e <__udivmoddi4+0x27e>
 800034a:	4299      	cmp	r1, r3
 800034c:	f240 810f 	bls.w	800056e <__udivmoddi4+0x27e>
 8000350:	3c02      	subs	r4, #2
 8000352:	4463      	add	r3, ip
 8000354:	1a59      	subs	r1, r3, r1
 8000356:	fa1f f38e 	uxth.w	r3, lr
 800035a:	fbb1 f0f7 	udiv	r0, r1, r7
 800035e:	fb07 1110 	mls	r1, r7, r0, r1
 8000362:	ea43 4301 	orr.w	r3, r3, r1, lsl #16
 8000366:	fb00 f606 	mul.w	r6, r0, r6
 800036a:	429e      	cmp	r6, r3
 800036c:	d90a      	bls.n	8000384 <__udivmoddi4+0x94>
 800036e:	eb1c 0303 	adds.w	r3, ip, r3
 8000372:	f100 31ff 	add.w	r1, r0, #4294967295	@ 0xffffffff
 8000376:	f080 80fc 	bcs.w	8000572 <__udivmoddi4+0x282>
 800037a:	429e      	cmp	r6, r3
 800037c:	f240 80f9 	bls.w	8000572 <__udivmoddi4+0x282>
 8000380:	4463      	add	r3, ip
 8000382:	3802      	subs	r0, #2
 8000384:	1b9b      	subs	r3, r3, r6
 8000386:	ea40 4004 	orr.w	r0, r0, r4, lsl #16
 800038a:	2100      	movs	r1, #0
 800038c:	b11d      	cbz	r5, 8000396 <__udivmoddi4+0xa6>
 800038e:	40d3      	lsrs	r3, r2
 8000390:	2200      	movs	r2, #0
 8000392:	e9c5 3200 	strd	r3, r2, [r5]
 8000396:	e8bd 87f0 	ldmia.w	sp!, {r4, r5, r6, r7, r8, r9, sl, pc}
 800039a:	428b      	cmp	r3, r1
 800039c:	d905      	bls.n	80003aa <__udivmoddi4+0xba>
 800039e:	b10d      	cbz	r5, 80003a4 <__udivmoddi4+0xb4>
 80003a0:	e9c5 0100 	strd	r0, r1, [r5]
 80003a4:	2100      	movs	r1, #0
 80003a6:	4608      	mov	r0, r1
 80003a8:	e7f5      	b.n	8000396 <__udivmoddi4+0xa6>
 80003aa:	fab3 f183 	clz	r1, r3
 80003ae:	2900      	cmp	r1, #0
 80003b0:	d146      	bne.n	8000440 <__udivmoddi4+0x150>
 80003b2:	42a3      	cmp	r3, r4
 80003b4:	d302      	bcc.n	80003bc <__udivmoddi4+0xcc>
 80003b6:	4290      	cmp	r0, r2
 80003b8:	f0c0 80f0 	bcc.w	800059c <__udivmoddi4+0x2ac>
 80003bc:	1a86      	subs	r6, r0, r2
 80003be:	eb64 0303 	sbc.w	r3, r4, r3
 80003c2:	2001      	movs	r0, #1
 80003c4:	2d00      	cmp	r5, #0
 80003c6:	d0e6      	beq.n	8000396 <__udivmoddi4+0xa6>
 80003c8:	e9c5 6300 	strd	r6, r3, [r5]
 80003cc:	e7e3      	b.n	8000396 <__udivmoddi4+0xa6>
 80003ce:	2a00      	cmp	r2, #0
 80003d0:	f040 8090 	bne.w	80004f4 <__udivmoddi4+0x204>
 80003d4:	eba1 040c 	sub.w	r4, r1, ip
 80003d8:	ea4f 481c 	mov.w	r8, ip, lsr #16
 80003dc:	fa1f f78c 	uxth.w	r7, ip
 80003e0:	2101      	movs	r1, #1
 80003e2:	fbb4 f6f8 	udiv	r6, r4, r8
 80003e6:	ea4f 431e 	mov.w	r3, lr, lsr #16
 80003ea:	fb08 4416 	mls	r4, r8, r6, r4
 80003ee:	ea43 4304 	orr.w	r3, r3, r4, lsl #16
 80003f2:	fb07 f006 	mul.w	r0, r7, r6
 80003f6:	4298      	cmp	r0, r3
 80003f8:	d908      	bls.n	800040c <__udivmoddi4+0x11c>
 80003fa:	eb1c 0303 	adds.w	r3, ip, r3
 80003fe:	f106 34ff 	add.w	r4, r6, #4294967295	@ 0xffffffff
 8000402:	d202      	bcs.n	800040a <__udivmoddi4+0x11a>
 8000404:	4298      	cmp	r0, r3
 8000406:	f200 80cd 	bhi.w	80005a4 <__udivmoddi4+0x2b4>
 800040a:	4626      	mov	r6, r4
 800040c:	1a1c      	subs	r4, r3, r0
 800040e:	fa1f f38e 	uxth.w	r3, lr
 8000412:	fbb4 f0f8 	udiv	r0, r4, r8
 8000416:	fb08 4410 	mls	r4, r8, r0, r4
 800041a:	ea43 4304 	orr.w	r3, r3, r4, lsl #16
 800041e:	fb00 f707 	mul.w	r7, r0, r7
 8000422:	429f      	cmp	r7, r3
 8000424:	d908      	bls.n	8000438 <__udivmoddi4+0x148>
 8000426:	eb1c 0303 	adds.w	r3, ip, r3
 800042a:	f100 34ff 	add.w	r4, r0, #4294967295	@ 0xffffffff
 800042e:	d202      	bcs.n	8000436 <__udivmoddi4+0x146>
 8000430:	429f      	cmp	r7, r3
 8000432:	f200 80b0 	bhi.w	8000596 <__udivmoddi4+0x2a6>
 8000436:	4620      	mov	r0, r4
 8000438:	1bdb      	subs	r3, r3, r7
 800043a:	ea40 4006 	orr.w	r0, r0, r6, lsl #16
 800043e:	e7a5      	b.n	800038c <__udivmoddi4+0x9c>
 8000440:	f1c1 0620 	rsb	r6, r1, #32
 8000444:	408b      	lsls	r3, r1
 8000446:	fa22 f706 	lsr.w	r7, r2, r6
 800044a:	431f      	orrs	r7, r3
 800044c:	fa20 fc06 	lsr.w	ip, r0, r6
 8000450:	fa04 f301 	lsl.w	r3, r4, r1
 8000454:	ea43 030c 	orr.w	r3, r3, ip
 8000458:	40f4      	lsrs	r4, r6
 800045a:	fa00 f801 	lsl.w	r8, r0, r1
 800045e:	0c38      	lsrs	r0, r7, #16
 8000460:	ea4f 4913 	mov.w	r9, r3, lsr #16
 8000464:	fbb4 fef0 	udiv	lr, r4, r0
 8000468:	fa1f fc87 	uxth.w	ip, r7
 800046c:	fb00 441e 	mls	r4, r0, lr, r4
 8000470:	ea49 4404 	orr.w	r4, r9, r4, lsl #16
 8000474:	fb0e f90c 	mul.w	r9, lr, ip
 8000478:	45a1      	cmp	r9, r4
 800047a:	fa02 f201 	lsl.w	r2, r2, r1
 800047e:	d90a      	bls.n	8000496 <__udivmoddi4+0x1a6>
 8000480:	193c      	adds	r4, r7, r4
 8000482:	f10e 3aff 	add.w	sl, lr, #4294967295	@ 0xffffffff
 8000486:	f080 8084 	bcs.w	8000592 <__udivmoddi4+0x2a2>
 800048a:	45a1      	cmp	r9, r4
 800048c:	f240 8081 	bls.w	8000592 <__udivmoddi4+0x2a2>
 8000490:	f1ae 0e02 	sub.w	lr, lr, #2
 8000494:	443c      	add	r4, r7
 8000496:	eba4 0409 	sub.w	r4, r4, r9
 800049a:	fa1f f983 	uxth.w	r9, r3
 800049e:	fbb4 f3f0 	udiv	r3, r4, r0
 80004a2:	fb00 4413 	mls	r4, r0, r3, r4
 80004a6:	ea49 4404 	orr.w	r4, r9, r4, lsl #16
 80004aa:	fb03 fc0c 	mul.w	ip, r3, ip
 80004ae:	45a4      	cmp	ip, r4
 80004b0:	d907      	bls.n	80004c2 <__udivmoddi4+0x1d2>
 80004b2:	193c      	adds	r4, r7, r4
 80004b4:	f103 30ff 	add.w	r0, r3, #4294967295	@ 0xffffffff
 80004b8:	d267      	bcs.n	800058a <__udivmoddi4+0x29a>
 80004ba:	45a4      	cmp	ip, r4
 80004bc:	d965      	bls.n	800058a <__udivmoddi4+0x29a>
 80004be:	3b02      	subs	r3, #2
 80004c0:	443c      	add	r4, r7
 80004c2:	ea43 400e 	orr.w	r0, r3, lr, lsl #16
 80004c6:	fba0 9302 	umull	r9, r3, r0, r2
 80004ca:	eba4 040c 	sub.w	r4, r4, ip
 80004ce:	429c      	cmp	r4, r3
 80004d0:	46ce      	mov	lr, r9
 80004d2:	469c      	mov	ip, r3
 80004d4:	d351      	bcc.n	800057a <__udivmoddi4+0x28a>
 80004d6:	d04e      	beq.n	8000576 <__udivmoddi4+0x286>
 80004d8:	b155      	cbz	r5, 80004f0 <__udivmoddi4+0x200>
 80004da:	ebb8 030e 	subs.w	r3, r8, lr
 80004de:	eb64 040c 	sbc.w	r4, r4, ip
 80004e2:	fa04 f606 	lsl.w	r6, r4, r6
 80004e6:	40cb      	lsrs	r3, r1
 80004e8:	431e      	orrs	r6, r3
 80004ea:	40cc      	lsrs	r4, r1
 80004ec:	e9c5 6400 	strd	r6, r4, [r5]
 80004f0:	2100      	movs	r1, #0
 80004f2:	e750      	b.n	8000396 <__udivmoddi4+0xa6>
 80004f4:	f1c2 0320 	rsb	r3, r2, #32
 80004f8:	fa20 f103 	lsr.w	r1, r0, r3
 80004fc:	fa0c fc02 	lsl.w	ip, ip, r2
 8000500:	fa24 f303 	lsr.w	r3, r4, r3
 8000504:	4094      	lsls	r4, r2
 8000506:	430c      	orrs	r4, r1
 8000508:	ea4f 481c 	mov.w	r8, ip, lsr #16
 800050c:	fa00 fe02 	lsl.w	lr, r0, r2
 8000510:	fa1f f78c 	uxth.w	r7, ip
 8000514:	fbb3 f0f8 	udiv	r0, r3, r8
 8000518:	fb08 3110 	mls	r1, r8, r0, r3
 800051c:	0c23      	lsrs	r3, r4, #16
 800051e:	ea43 4301 	orr.w	r3, r3, r1, lsl #16
 8000522:	fb00 f107 	mul.w	r1, r0, r7
 8000526:	4299      	cmp	r1, r3
 8000528:	d908      	bls.n	800053c <__udivmoddi4+0x24c>
 800052a:	eb1c 0303 	adds.w	r3, ip, r3
 800052e:	f100 36ff 	add.w	r6, r0, #4294967295	@ 0xffffffff
 8000532:	d22c      	bcs.n	800058e <__udivmoddi4+0x29e>
 8000534:	4299      	cmp	r1, r3
 8000536:	d92a      	bls.n	800058e <__udivmoddi4+0x29e>
 8000538:	3802      	subs	r0, #2
 800053a:	4463      	add	r3, ip
 800053c:	1a5b      	subs	r3, r3, r1
 800053e:	b2a4      	uxth	r4, r4
 8000540:	fbb3 f1f8 	udiv	r1, r3, r8
 8000544:	fb08 3311 	mls	r3, r8, r1, r3
 8000548:	ea44 4403 	orr.w	r4, r4, r3, lsl #16
 800054c:	fb01 f307 	mul.w	r3, r1, r7
 8000550:	42a3      	cmp	r3, r4
 8000552:	d908      	bls.n	8000566 <__udivmoddi4+0x276>
 8000554:	eb1c 0404 	adds.w	r4, ip, r4
 8000558:	f101 36ff 	add.w	r6, r1, #4294967295	@ 0xffffffff
 800055c:	d213      	bcs.n	8000586 <__udivmoddi4+0x296>
 800055e:	42a3      	cmp	r3, r4
 8000560:	d911      	bls.n	8000586 <__udivmoddi4+0x296>
 8000562:	3902      	subs	r1, #2
 8000564:	4464      	add	r4, ip
 8000566:	1ae4      	subs	r4, r4, r3
 8000568:	ea41 4100 	orr.w	r1, r1, r0, lsl #16
 800056c:	e739      	b.n	80003e2 <__udivmoddi4+0xf2>
 800056e:	4604      	mov	r4, r0
 8000570:	e6f0      	b.n	8000354 <__udivmoddi4+0x64>
 8000572:	4608      	mov	r0, r1
 8000574:	e706      	b.n	8000384 <__udivmoddi4+0x94>
 8000576:	45c8      	cmp	r8, r9
 8000578:	d2ae      	bcs.n	80004d8 <__udivmoddi4+0x1e8>
 800057a:	ebb9 0e02 	subs.w	lr, r9, r2
 800057e:	eb63 0c07 	sbc.w	ip, r3, r7
 8000582:	3801      	subs	r0, #1
 8000584:	e7a8      	b.n	80004d8 <__udivmoddi4+0x1e8>
 8000586:	4631      	mov	r1, r6
 8000588:	e7ed      	b.n	8000566 <__udivmoddi4+0x276>
 800058a:	4603      	mov	r3, r0
 800058c:	e799      	b.n	80004c2 <__udivmoddi4+0x1d2>
 800058e:	4630      	mov	r0, r6
 8000590:	e7d4      	b.n	800053c <__udivmoddi4+0x24c>
 8000592:	46d6      	mov	lr, sl
 8000594:	e77f      	b.n	8000496 <__udivmoddi4+0x1a6>
 8000596:	4463      	add	r3, ip
 8000598:	3802      	subs	r0, #2
 800059a:	e74d      	b.n	8000438 <__udivmoddi4+0x148>
 800059c:	4606      	mov	r6, r0
 800059e:	4623      	mov	r3, r4
 80005a0:	4608      	mov	r0, r1
 80005a2:	e70f      	b.n	80003c4 <__udivmoddi4+0xd4>
 80005a4:	3e02      	subs	r6, #2
 80005a6:	4463      	add	r3, ip
 80005a8:	e730      	b.n	800040c <__udivmoddi4+0x11c>
 80005aa:	bf00      	nop

080005ac <__aeabi_idiv0>:
 80005ac:	4770      	bx	lr
 80005ae:	bf00      	nop

080005b0 <MX_ADC1_Init>:
 80005b0:	b580      	push	{r7, lr}
 80005b2:	b08c      	sub	sp, #48	@ 0x30
 80005b4:	af00      	add	r7, sp, #0
 80005b6:	f107 0324 	add.w	r3, r7, #36	@ 0x24
 80005ba:	2200      	movs	r2, #0
 80005bc:	601a      	str	r2, [r3, #0]
 80005be:	605a      	str	r2, [r3, #4]
 80005c0:	609a      	str	r2, [r3, #8]
 80005c2:	1d3b      	adds	r3, r7, #4
 80005c4:	2220      	movs	r2, #32
 80005c6:	2100      	movs	r1, #0
 80005c8:	4618      	mov	r0, r3
 80005ca:	f005 fd92 	bl	80060f2 <memset>
 80005ce:	4b32      	ldr	r3, [pc, #200]	@ (8000698 <MX_ADC1_Init+0xe8>)
 80005d0:	f04f 42a0 	mov.w	r2, #1342177280	@ 0x50000000
 80005d4:	601a      	str	r2, [r3, #0]
 80005d6:	4b30      	ldr	r3, [pc, #192]	@ (8000698 <MX_ADC1_Init+0xe8>)
 80005d8:	f44f 3240 	mov.w	r2, #196608	@ 0x30000
 80005dc:	605a      	str	r2, [r3, #4]
 80005de:	4b2e      	ldr	r3, [pc, #184]	@ (8000698 <MX_ADC1_Init+0xe8>)
 80005e0:	2200      	movs	r2, #0
 80005e2:	609a      	str	r2, [r3, #8]
 80005e4:	4b2c      	ldr	r3, [pc, #176]	@ (8000698 <MX_ADC1_Init+0xe8>)
 80005e6:	2200      	movs	r2, #0
 80005e8:	60da      	str	r2, [r3, #12]
 80005ea:	4b2b      	ldr	r3, [pc, #172]	@ (8000698 <MX_ADC1_Init+0xe8>)
 80005ec:	2200      	movs	r2, #0
 80005ee:	611a      	str	r2, [r3, #16]
 80005f0:	4b29      	ldr	r3, [pc, #164]	@ (8000698 <MX_ADC1_Init+0xe8>)
 80005f2:	2200      	movs	r2, #0
 80005f4:	615a      	str	r2, [r3, #20]
 80005f6:	4b28      	ldr	r3, [pc, #160]	@ (8000698 <MX_ADC1_Init+0xe8>)
 80005f8:	2204      	movs	r2, #4
 80005fa:	619a      	str	r2, [r3, #24]
 80005fc:	4b26      	ldr	r3, [pc, #152]	@ (8000698 <MX_ADC1_Init+0xe8>)
 80005fe:	2200      	movs	r2, #0
 8000600:	771a      	strb	r2, [r3, #28]
 8000602:	4b25      	ldr	r3, [pc, #148]	@ (8000698 <MX_ADC1_Init+0xe8>)
 8000604:	2200      	movs	r2, #0
 8000606:	775a      	strb	r2, [r3, #29]
 8000608:	4b23      	ldr	r3, [pc, #140]	@ (8000698 <MX_ADC1_Init+0xe8>)
 800060a:	2201      	movs	r2, #1
 800060c:	621a      	str	r2, [r3, #32]
 800060e:	4b22      	ldr	r3, [pc, #136]	@ (8000698 <MX_ADC1_Init+0xe8>)
 8000610:	2200      	movs	r2, #0
 8000612:	f883 2024 	strb.w	r2, [r3, #36]	@ 0x24
 8000616:	4b20      	ldr	r3, [pc, #128]	@ (8000698 <MX_ADC1_Init+0xe8>)
 8000618:	2200      	movs	r2, #0
 800061a:	62da      	str	r2, [r3, #44]	@ 0x2c
 800061c:	4b1e      	ldr	r3, [pc, #120]	@ (8000698 <MX_ADC1_Init+0xe8>)
 800061e:	2200      	movs	r2, #0
 8000620:	631a      	str	r2, [r3, #48]	@ 0x30
 8000622:	4b1d      	ldr	r3, [pc, #116]	@ (8000698 <MX_ADC1_Init+0xe8>)
 8000624:	2200      	movs	r2, #0
 8000626:	f883 2038 	strb.w	r2, [r3, #56]	@ 0x38
 800062a:	4b1b      	ldr	r3, [pc, #108]	@ (8000698 <MX_ADC1_Init+0xe8>)
 800062c:	2200      	movs	r2, #0
 800062e:	63da      	str	r2, [r3, #60]	@ 0x3c
 8000630:	4b19      	ldr	r3, [pc, #100]	@ (8000698 <MX_ADC1_Init+0xe8>)
 8000632:	2200      	movs	r2, #0
 8000634:	f883 2040 	strb.w	r2, [r3, #64]	@ 0x40
 8000638:	4817      	ldr	r0, [pc, #92]	@ (8000698 <MX_ADC1_Init+0xe8>)
 800063a:	f000 ff5b 	bl	80014f4 <HAL_ADC_Init>
 800063e:	4603      	mov	r3, r0
 8000640:	2b00      	cmp	r3, #0
 8000642:	d001      	beq.n	8000648 <MX_ADC1_Init+0x98>
 8000644:	f000 f9cb 	bl	80009de <Error_Handler>
 8000648:	2300      	movs	r3, #0
 800064a:	627b      	str	r3, [r7, #36]	@ 0x24
 800064c:	f107 0324 	add.w	r3, r7, #36	@ 0x24
 8000650:	4619      	mov	r1, r3
 8000652:	4811      	ldr	r0, [pc, #68]	@ (8000698 <MX_ADC1_Init+0xe8>)
 8000654:	f001 fffe 	bl	8002654 <HAL_ADCEx_MultiModeConfigChannel>
 8000658:	4603      	mov	r3, r0
 800065a:	2b00      	cmp	r3, #0
 800065c:	d001      	beq.n	8000662 <MX_ADC1_Init+0xb2>
 800065e:	f000 f9be 	bl	80009de <Error_Handler>
 8000662:	4b0e      	ldr	r3, [pc, #56]	@ (800069c <MX_ADC1_Init+0xec>)
 8000664:	607b      	str	r3, [r7, #4]
 8000666:	2306      	movs	r3, #6
 8000668:	60bb      	str	r3, [r7, #8]
 800066a:	2300      	movs	r3, #0
 800066c:	60fb      	str	r3, [r7, #12]
 800066e:	237f      	movs	r3, #127	@ 0x7f
 8000670:	613b      	str	r3, [r7, #16]
 8000672:	2304      	movs	r3, #4
 8000674:	617b      	str	r3, [r7, #20]
 8000676:	2300      	movs	r3, #0
 8000678:	61bb      	str	r3, [r7, #24]
 800067a:	1d3b      	adds	r3, r7, #4
 800067c:	4619      	mov	r1, r3
 800067e:	4806      	ldr	r0, [pc, #24]	@ (8000698 <MX_ADC1_Init+0xe8>)
 8000680:	f001 fa5e 	bl	8001b40 <HAL_ADC_ConfigChannel>
 8000684:	4603      	mov	r3, r0
 8000686:	2b00      	cmp	r3, #0
 8000688:	d001      	beq.n	800068e <MX_ADC1_Init+0xde>
 800068a:	f000 f9a8 	bl	80009de <Error_Handler>
 800068e:	bf00      	nop
 8000690:	3730      	adds	r7, #48	@ 0x30
 8000692:	46bd      	mov	sp, r7
 8000694:	bd80      	pop	{r7, pc}
 8000696:	bf00      	nop
 8000698:	20000084 	.word	0x20000084
 800069c:	21800100 	.word	0x21800100

080006a0 <HAL_ADC_MspInit>:
 80006a0:	b580      	push	{r7, lr}
 80006a2:	b09a      	sub	sp, #104	@ 0x68
 80006a4:	af00      	add	r7, sp, #0
 80006a6:	6078      	str	r0, [r7, #4]
 80006a8:	f107 0354 	add.w	r3, r7, #84	@ 0x54
 80006ac:	2200      	movs	r2, #0
 80006ae:	601a      	str	r2, [r3, #0]
 80006b0:	605a      	str	r2, [r3, #4]
 80006b2:	609a      	str	r2, [r3, #8]
 80006b4:	60da      	str	r2, [r3, #12]
 80006b6:	611a      	str	r2, [r3, #16]
 80006b8:	f107 0310 	add.w	r3, r7, #16
 80006bc:	2244      	movs	r2, #68	@ 0x44
 80006be:	2100      	movs	r1, #0
 80006c0:	4618      	mov	r0, r3
 80006c2:	f005 fd16 	bl	80060f2 <memset>
 80006c6:	687b      	ldr	r3, [r7, #4]
 80006c8:	681b      	ldr	r3, [r3, #0]
 80006ca:	f1b3 4fa0 	cmp.w	r3, #1342177280	@ 0x50000000
 80006ce:	d133      	bne.n	8000738 <HAL_ADC_MspInit+0x98>
 80006d0:	f44f 4300 	mov.w	r3, #32768	@ 0x8000
 80006d4:	613b      	str	r3, [r7, #16]
 80006d6:	f04f 5300 	mov.w	r3, #536870912	@ 0x20000000
 80006da:	64fb      	str	r3, [r7, #76]	@ 0x4c
 80006dc:	f107 0310 	add.w	r3, r7, #16
 80006e0:	4618      	mov	r0, r3
 80006e2:	f003 f8cf 	bl	8003884 <HAL_RCCEx_PeriphCLKConfig>
 80006e6:	4603      	mov	r3, r0
 80006e8:	2b00      	cmp	r3, #0
 80006ea:	d001      	beq.n	80006f0 <HAL_ADC_MspInit+0x50>
 80006ec:	f000 f977 	bl	80009de <Error_Handler>
 80006f0:	4b13      	ldr	r3, [pc, #76]	@ (8000740 <HAL_ADC_MspInit+0xa0>)
 80006f2:	6cdb      	ldr	r3, [r3, #76]	@ 0x4c
 80006f4:	4a12      	ldr	r2, [pc, #72]	@ (8000740 <HAL_ADC_MspInit+0xa0>)
 80006f6:	f443 5300 	orr.w	r3, r3, #8192	@ 0x2000
 80006fa:	64d3      	str	r3, [r2, #76]	@ 0x4c
 80006fc:	4b10      	ldr	r3, [pc, #64]	@ (8000740 <HAL_ADC_MspInit+0xa0>)
 80006fe:	6cdb      	ldr	r3, [r3, #76]	@ 0x4c
 8000700:	f403 5300 	and.w	r3, r3, #8192	@ 0x2000
 8000704:	60fb      	str	r3, [r7, #12]
 8000706:	68fb      	ldr	r3, [r7, #12]
 8000708:	4b0d      	ldr	r3, [pc, #52]	@ (8000740 <HAL_ADC_MspInit+0xa0>)
 800070a:	6cdb      	ldr	r3, [r3, #76]	@ 0x4c
 800070c:	4a0c      	ldr	r2, [pc, #48]	@ (8000740 <HAL_ADC_MspInit+0xa0>)
 800070e:	f043 0304 	orr.w	r3, r3, #4
 8000712:	64d3      	str	r3, [r2, #76]	@ 0x4c
 8000714:	4b0a      	ldr	r3, [pc, #40]	@ (8000740 <HAL_ADC_MspInit+0xa0>)
 8000716:	6cdb      	ldr	r3, [r3, #76]	@ 0x4c
 8000718:	f003 0304 	and.w	r3, r3, #4
 800071c:	60bb      	str	r3, [r7, #8]
 800071e:	68bb      	ldr	r3, [r7, #8]
 8000720:	2304      	movs	r3, #4
 8000722:	657b      	str	r3, [r7, #84]	@ 0x54
 8000724:	2303      	movs	r3, #3
 8000726:	65bb      	str	r3, [r7, #88]	@ 0x58
 8000728:	2300      	movs	r3, #0
 800072a:	65fb      	str	r3, [r7, #92]	@ 0x5c
 800072c:	f107 0354 	add.w	r3, r7, #84	@ 0x54
 8000730:	4619      	mov	r1, r3
 8000732:	4804      	ldr	r0, [pc, #16]	@ (8000744 <HAL_ADC_MspInit+0xa4>)
 8000734:	f002 f942 	bl	80029bc <HAL_GPIO_Init>
 8000738:	bf00      	nop
 800073a:	3768      	adds	r7, #104	@ 0x68
 800073c:	46bd      	mov	sp, r7
 800073e:	bd80      	pop	{r7, pc}
 8000740:	40021000 	.word	0x40021000
 8000744:	48000800 	.word	0x48000800

08000748 <MX_GPIO_Init>:
 8000748:	b580      	push	{r7, lr}
 800074a:	b08a      	sub	sp, #40	@ 0x28
 800074c:	af00      	add	r7, sp, #0
 800074e:	f107 0314 	add.w	r3, r7, #20
 8000752:	2200      	movs	r2, #0
 8000754:	601a      	str	r2, [r3, #0]
 8000756:	605a      	str	r2, [r3, #4]
 8000758:	609a      	str	r2, [r3, #8]
 800075a:	60da      	str	r2, [r3, #12]
 800075c:	611a      	str	r2, [r3, #16]
 800075e:	4b29      	ldr	r3, [pc, #164]	@ (8000804 <MX_GPIO_Init+0xbc>)
 8000760:	6cdb      	ldr	r3, [r3, #76]	@ 0x4c
 8000762:	4a28      	ldr	r2, [pc, #160]	@ (8000804 <MX_GPIO_Init+0xbc>)
 8000764:	f043 0304 	orr.w	r3, r3, #4
 8000768:	64d3      	str	r3, [r2, #76]	@ 0x4c
 800076a:	4b26      	ldr	r3, [pc, #152]	@ (8000804 <MX_GPIO_Init+0xbc>)
 800076c:	6cdb      	ldr	r3, [r3, #76]	@ 0x4c
 800076e:	f003 0304 	and.w	r3, r3, #4
 8000772:	613b      	str	r3, [r7, #16]
 8000774:	693b      	ldr	r3, [r7, #16]
 8000776:	4b23      	ldr	r3, [pc, #140]	@ (8000804 <MX_GPIO_Init+0xbc>)
 8000778:	6cdb      	ldr	r3, [r3, #76]	@ 0x4c
 800077a:	4a22      	ldr	r2, [pc, #136]	@ (8000804 <MX_GPIO_Init+0xbc>)
 800077c:	f043 0320 	orr.w	r3, r3, #32
 8000780:	64d3      	str	r3, [r2, #76]	@ 0x4c
 8000782:	4b20      	ldr	r3, [pc, #128]	@ (8000804 <MX_GPIO_Init+0xbc>)
 8000784:	6cdb      	ldr	r3, [r3, #76]	@ 0x4c
 8000786:	f003 0320 	and.w	r3, r3, #32
 800078a:	60fb      	str	r3, [r7, #12]
 800078c:	68fb      	ldr	r3, [r7, #12]
 800078e:	4b1d      	ldr	r3, [pc, #116]	@ (8000804 <MX_GPIO_Init+0xbc>)
 8000790:	6cdb      	ldr	r3, [r3, #76]	@ 0x4c
 8000792:	4a1c      	ldr	r2, [pc, #112]	@ (8000804 <MX_GPIO_Init+0xbc>)
 8000794:	f043 0301 	orr.w	r3, r3, #1
 8000798:	64d3      	str	r3, [r2, #76]	@ 0x4c
 800079a:	4b1a      	ldr	r3, [pc, #104]	@ (8000804 <MX_GPIO_Init+0xbc>)
 800079c:	6cdb      	ldr	r3, [r3, #76]	@ 0x4c
 800079e:	f003 0301 	and.w	r3, r3, #1
 80007a2:	60bb      	str	r3, [r7, #8]
 80007a4:	68bb      	ldr	r3, [r7, #8]
 80007a6:	4b17      	ldr	r3, [pc, #92]	@ (8000804 <MX_GPIO_Init+0xbc>)
 80007a8:	6cdb      	ldr	r3, [r3, #76]	@ 0x4c
 80007aa:	4a16      	ldr	r2, [pc, #88]	@ (8000804 <MX_GPIO_Init+0xbc>)
 80007ac:	f043 0302 	orr.w	r3, r3, #2
 80007b0:	64d3      	str	r3, [r2, #76]	@ 0x4c
 80007b2:	4b14      	ldr	r3, [pc, #80]	@ (8000804 <MX_GPIO_Init+0xbc>)
 80007b4:	6cdb      	ldr	r3, [r3, #76]	@ 0x4c
 80007b6:	f003 0302 	and.w	r3, r3, #2
 80007ba:	607b      	str	r3, [r7, #4]
 80007bc:	687b      	ldr	r3, [r7, #4]
 80007be:	f44f 5300 	mov.w	r3, #8192	@ 0x2000
 80007c2:	617b      	str	r3, [r7, #20]
 80007c4:	f44f 1388 	mov.w	r3, #1114112	@ 0x110000
 80007c8:	61bb      	str	r3, [r7, #24]
 80007ca:	2300      	movs	r3, #0
 80007cc:	61fb      	str	r3, [r7, #28]
 80007ce:	f107 0314 	add.w	r3, r7, #20
 80007d2:	4619      	mov	r1, r3
 80007d4:	480c      	ldr	r0, [pc, #48]	@ (8000808 <MX_GPIO_Init+0xc0>)
 80007d6:	f002 f8f1 	bl	80029bc <HAL_GPIO_Init>
 80007da:	2308      	movs	r3, #8
 80007dc:	617b      	str	r3, [r7, #20]
 80007de:	2302      	movs	r3, #2
 80007e0:	61bb      	str	r3, [r7, #24]
 80007e2:	2300      	movs	r3, #0
 80007e4:	61fb      	str	r3, [r7, #28]
 80007e6:	2300      	movs	r3, #0
 80007e8:	623b      	str	r3, [r7, #32]
 80007ea:	230c      	movs	r3, #12
 80007ec:	627b      	str	r3, [r7, #36]	@ 0x24
 80007ee:	f107 0314 	add.w	r3, r7, #20
 80007f2:	4619      	mov	r1, r3
 80007f4:	f04f 4090 	mov.w	r0, #1207959552	@ 0x48000000
 80007f8:	f002 f8e0 	bl	80029bc <HAL_GPIO_Init>
 80007fc:	bf00      	nop
 80007fe:	3728      	adds	r7, #40	@ 0x28
 8000800:	46bd      	mov	sp, r7
 8000802:	bd80      	pop	{r7, pc}
 8000804:	40021000 	.word	0x40021000
 8000808:	48000800 	.word	0x48000800

0800080c <__io_putchar>:
/* USER CODE END PFP */

/* Private user code ---------------------------------------------------------*/
/* USER CODE BEGIN 0 */
int __io_putchar(int chr)
{
 800080c:	b580      	push	{r7, lr}
 800080e:	b082      	sub	sp, #8
 8000810:	af00      	add	r7, sp, #0
 8000812:	6078      	str	r0, [r7, #4]
	HAL_UART_Transmit(&huart2, (uint8_t*)&chr, 1, HAL_MAX_DELAY);
 8000814:	1d39      	adds	r1, r7, #4
 8000816:	f04f 33ff 	mov.w	r3, #4294967295	@ 0xffffffff
 800081a:	2201      	movs	r2, #1
 800081c:	4803      	ldr	r0, [pc, #12]	@ (800082c <__io_putchar+0x20>)
 800081e:	f004 fcd5 	bl	80051cc <HAL_UART_Transmit>
	return chr;
 8000822:	687b      	ldr	r3, [r7, #4]
}
 8000824:	4618      	mov	r0, r3
 8000826:	3708      	adds	r7, #8
 8000828:	46bd      	mov	sp, r7
 800082a:	bd80      	pop	{r7, pc}
 800082c:	20000140 	.word	0x20000140

08000830 <sign>:

int sign(int x) {
 8000830:	b480      	push	{r7}
 8000832:	b083      	sub	sp, #12
 8000834:	af00      	add	r7, sp, #0
 8000836:	6078      	str	r0, [r7, #4]
	return (x > 0) - (x < 0);
 8000838:	687b      	ldr	r3, [r7, #4]
 800083a:	2b00      	cmp	r3, #0
 800083c:	bfcc      	ite	gt
 800083e:	2301      	movgt	r3, #1
 8000840:	2300      	movle	r3, #0
 8000842:	b2db      	uxtb	r3, r3
 8000844:	461a      	mov	r2, r3
 8000846:	687b      	ldr	r3, [r7, #4]
 8000848:	0fdb      	lsrs	r3, r3, #31
 800084a:	b2db      	uxtb	r3, r3
 800084c:	1ad3      	subs	r3, r2, r3
}
 800084e:	4618      	mov	r0, r3
 8000850:	370c      	adds	r7, #12
 8000852:	46bd      	mov	sp, r7
 8000854:	f85d 7b04 	ldr.w	r7, [sp], #4
 8000858:	4770      	bx	lr
	...

0800085c <main>:
/**
 * @brief  The application entry point.
 * @retval int
 */
int main(void)
{
 800085c:	b590      	push	{r4, r7, lr}
 800085e:	b085      	sub	sp, #20
 8000860:	af00      	add	r7, sp, #0

	/* USER CODE BEGIN 1 */
	int value = 0;
 8000862:	2300      	movs	r3, #0
 8000864:	60fb      	str	r3, [r7, #12]
	int incr = 170;
 8000866:	23aa      	movs	r3, #170	@ 0xaa
 8000868:	60bb      	str	r3, [r7, #8]
	int ratio_pwm = 0;
 800086a:	2300      	movs	r3, #0
 800086c:	607b      	str	r3, [r7, #4]
	/* USER CODE END 1 */

	/* MCU Configuration--------------------------------------------------------*/

	/* Reset of all peripherals, Initializes the Flash interface and the Systick. */
	HAL_Init();
 800086e:	f000 fb5c 	bl	8000f2a <HAL_Init>
	/* USER CODE BEGIN Init */

	/* USER CODE END Init */

	/* Configure the system clock */
	SystemClock_Config();
 8000872:	f000 f869 	bl	8000948 <SystemClock_Config>
	/* USER CODE BEGIN SysInit */

	/* USER CODE END SysInit */

	/* Initialize all configured peripherals */
	MX_GPIO_Init();
 8000876:	f7ff ff67 	bl	8000748 <MX_GPIO_Init>
	MX_TIM2_Init();
 800087a:	f000 f9cb 	bl	8000c14 <MX_TIM2_Init>
	MX_ADC1_Init();
 800087e:	f7ff fe97 	bl	80005b0 <MX_ADC1_Init>
	MX_USART2_UART_Init();
 8000882:	f000 fa85 	bl	8000d90 <MX_USART2_UART_Init>
	/* USER CODE BEGIN 2 */
	HAL_TIM_PWM_Start(&htim2, TIM_CHANNEL_1);
 8000886:	2100      	movs	r1, #0
 8000888:	4829      	ldr	r0, [pc, #164]	@ (8000930 <main+0xd4>)
 800088a:	f003 faa3 	bl	8003dd4 <HAL_TIM_PWM_Start>
	HAL_ADCEx_Calibration_Start(&hadc1, ADC_SINGLE_ENDED);
 800088e:	217f      	movs	r1, #127	@ 0x7f
 8000890:	4828      	ldr	r0, [pc, #160]	@ (8000934 <main+0xd8>)
 8000892:	f001 fe7d 	bl	8002590 <HAL_ADCEx_Calibration_Start>
	/* Infinite loop */
	/* USER CODE BEGIN WHILE */
	while (1)
	{
		// ADC affiché sur la LED
		HAL_ADC_Start(&hadc1);
 8000896:	4827      	ldr	r0, [pc, #156]	@ (8000934 <main+0xd8>)
 8000898:	f000 ffb0 	bl	80017fc <HAL_ADC_Start>
		HAL_ADC_PollForConversion(&hadc1, 100);
 800089c:	2164      	movs	r1, #100	@ 0x64
 800089e:	4825      	ldr	r0, [pc, #148]	@ (8000934 <main+0xd8>)
 80008a0:	f001 f868 	bl	8001974 <HAL_ADC_PollForConversion>
		incr = sign(incr)*HAL_ADC_GetValue(&hadc1)*(PWM_MAX_VAL/4095);
 80008a4:	68b8      	ldr	r0, [r7, #8]
 80008a6:	f7ff ffc3 	bl	8000830 <sign>
 80008aa:	4603      	mov	r3, r0
 80008ac:	461c      	mov	r4, r3
 80008ae:	4821      	ldr	r0, [pc, #132]	@ (8000934 <main+0xd8>)
 80008b0:	f001 f938 	bl	8001b24 <HAL_ADC_GetValue>
 80008b4:	4603      	mov	r3, r0
 80008b6:	fb03 f204 	mul.w	r2, r3, r4
 80008ba:	4613      	mov	r3, r2
 80008bc:	009b      	lsls	r3, r3, #2
 80008be:	4413      	add	r3, r2
 80008c0:	00db      	lsls	r3, r3, #3
 80008c2:	4413      	add	r3, r2
 80008c4:	60bb      	str	r3, [r7, #8]
		printf("\r\nRAW pot: %d\r\n", incr);
 80008c6:	68b9      	ldr	r1, [r7, #8]
 80008c8:	481b      	ldr	r0, [pc, #108]	@ (8000938 <main+0xdc>)
 80008ca:	f005 fbbd 	bl	8006048 <iprintf>

		// LED mode respiration
		value += incr;
 80008ce:	68fa      	ldr	r2, [r7, #12]
 80008d0:	68bb      	ldr	r3, [r7, #8]
 80008d2:	4413      	add	r3, r2
 80008d4:	60fb      	str	r3, [r7, #12]
		ratio_pwm = (int)100*value/PWM_MAX_VAL;
 80008d6:	68fb      	ldr	r3, [r7, #12]
 80008d8:	4a18      	ldr	r2, [pc, #96]	@ (800093c <main+0xe0>)
 80008da:	fb82 1203 	smull	r1, r2, r2, r3
 80008de:	11d2      	asrs	r2, r2, #7
 80008e0:	17db      	asrs	r3, r3, #31
 80008e2:	1ad3      	subs	r3, r2, r3
 80008e4:	607b      	str	r3, [r7, #4]
		incr = (sign(ratio_pwm)*ratio_pwm>100) ? -incr : incr;
 80008e6:	6878      	ldr	r0, [r7, #4]
 80008e8:	f7ff ffa2 	bl	8000830 <sign>
 80008ec:	4602      	mov	r2, r0
 80008ee:	687b      	ldr	r3, [r7, #4]
 80008f0:	fb02 f303 	mul.w	r3, r2, r3
 80008f4:	2b64      	cmp	r3, #100	@ 0x64
 80008f6:	dd02      	ble.n	80008fe <main+0xa2>
 80008f8:	68bb      	ldr	r3, [r7, #8]
 80008fa:	425b      	negs	r3, r3
 80008fc:	e000      	b.n	8000900 <main+0xa4>
 80008fe:	68bb      	ldr	r3, [r7, #8]
 8000900:	60bb      	str	r3, [r7, #8]
		printf("PWM LED: %d\r\n", value);
 8000902:	68f9      	ldr	r1, [r7, #12]
 8000904:	480e      	ldr	r0, [pc, #56]	@ (8000940 <main+0xe4>)
 8000906:	f005 fb9f 	bl	8006048 <iprintf>

		// Envoi de la commande PWM
		__HAL_TIM_SET_COMPARE(&htim2, TIM_CHANNEL_1, sign(value)*value);
 800090a:	68f8      	ldr	r0, [r7, #12]
 800090c:	f7ff ff90 	bl	8000830 <sign>
 8000910:	4602      	mov	r2, r0
 8000912:	68fb      	ldr	r3, [r7, #12]
 8000914:	fb03 f202 	mul.w	r2, r3, r2
 8000918:	4b05      	ldr	r3, [pc, #20]	@ (8000930 <main+0xd4>)
 800091a:	681b      	ldr	r3, [r3, #0]
 800091c:	635a      	str	r2, [r3, #52]	@ 0x34
		printf("Ratio PWM : %d\r\n", ratio_pwm);
 800091e:	6879      	ldr	r1, [r7, #4]
 8000920:	4808      	ldr	r0, [pc, #32]	@ (8000944 <main+0xe8>)
 8000922:	f005 fb91 	bl	8006048 <iprintf>

		HAL_Delay(1);
 8000926:	2001      	movs	r0, #1
 8000928:	f000 fb70 	bl	800100c <HAL_Delay>
		HAL_ADC_Start(&hadc1);
 800092c:	e7b3      	b.n	8000896 <main+0x3a>
 800092e:	bf00      	nop
 8000930:	200000f4 	.word	0x200000f4
 8000934:	20000084 	.word	0x20000084
 8000938:	08006d3c 	.word	0x08006d3c
 800093c:	134679ad 	.word	0x134679ad
 8000940:	08006d4c 	.word	0x08006d4c
 8000944:	08006d5c 	.word	0x08006d5c

08000948 <SystemClock_Config>:
/**
 * @brief System Clock Configuration
 * @retval None
 */
void SystemClock_Config(void)
{
 8000948:	b580      	push	{r7, lr}
 800094a:	b094      	sub	sp, #80	@ 0x50
 800094c:	af00      	add	r7, sp, #0
	RCC_OscInitTypeDef RCC_OscInitStruct = {0};
 800094e:	f107 0318 	add.w	r3, r7, #24
 8000952:	2238      	movs	r2, #56	@ 0x38
 8000954:	2100      	movs	r1, #0
 8000956:	4618      	mov	r0, r3
 8000958:	f005 fbcb 	bl	80060f2 <memset>
	RCC_ClkInitTypeDef RCC_ClkInitStruct = {0};
 800095c:	1d3b      	adds	r3, r7, #4
 800095e:	2200      	movs	r2, #0
 8000960:	601a      	str	r2, [r3, #0]
 8000962:	605a      	str	r2, [r3, #4]
 8000964:	609a      	str	r2, [r3, #8]
 8000966:	60da      	str	r2, [r3, #12]
 8000968:	611a      	str	r2, [r3, #16]

	/** Configure the main internal regulator output voltage
	 */
	HAL_PWREx_ControlVoltageScaling(PWR_REGULATOR_VOLTAGE_SCALE1_BOOST);
 800096a:	2000      	movs	r0, #0
 800096c:	f002 f9a8 	bl	8002cc0 <HAL_PWREx_ControlVoltageScaling>

	/** Initializes the RCC Oscillators according to the specified parameters
	 * in the RCC_OscInitTypeDef structure.
	 */
	RCC_OscInitStruct.OscillatorType = RCC_OSCILLATORTYPE_HSI;
 8000970:	2302      	movs	r3, #2
 8000972:	61bb      	str	r3, [r7, #24]
	RCC_OscInitStruct.HSIState = RCC_HSI_ON;
 8000974:	f44f 7380 	mov.w	r3, #256	@ 0x100
 8000978:	627b      	str	r3, [r7, #36]	@ 0x24
	RCC_OscInitStruct.HSICalibrationValue = RCC_HSICALIBRATION_DEFAULT;
 800097a:	2340      	movs	r3, #64	@ 0x40
 800097c:	62bb      	str	r3, [r7, #40]	@ 0x28
	RCC_OscInitStruct.PLL.PLLState = RCC_PLL_ON;
 800097e:	2302      	movs	r3, #2
 8000980:	637b      	str	r3, [r7, #52]	@ 0x34
	RCC_OscInitStruct.PLL.PLLSource = RCC_PLLSOURCE_HSI;
 8000982:	2302      	movs	r3, #2
 8000984:	63bb      	str	r3, [r7, #56]	@ 0x38
	RCC_OscInitStruct.PLL.PLLM = RCC_PLLM_DIV4;
 8000986:	2304      	movs	r3, #4
 8000988:	63fb      	str	r3, [r7, #60]	@ 0x3c
	RCC_OscInitStruct.PLL.PLLN = 85;
 800098a:	2355      	movs	r3, #85	@ 0x55
 800098c:	643b      	str	r3, [r7, #64]	@ 0x40
	RCC_OscInitStruct.PLL.PLLP = RCC_PLLP_DIV2;
 800098e:	2302      	movs	r3, #2
 8000990:	647b      	str	r3, [r7, #68]	@ 0x44
	RCC_OscInitStruct.PLL.PLLQ = RCC_PLLQ_DIV2;
 8000992:	2302      	movs	r3, #2
 8000994:	64bb      	str	r3, [r7, #72]	@ 0x48
	RCC_OscInitStruct.PLL.PLLR = RCC_PLLR_DIV2;
 8000996:	2302      	movs	r3, #2
 8000998:	64fb      	str	r3, [r7, #76]	@ 0x4c
	if (HAL_RCC_OscConfig(&RCC_OscInitStruct) != HAL_OK)
 800099a:	f107 0318 	add.w	r3, r7, #24
 800099e:	4618      	mov	r0, r3
 80009a0:	f002 fa42 	bl	8002e28 <HAL_RCC_OscConfig>
 80009a4:	4603      	mov	r3, r0
 80009a6:	2b00      	cmp	r3, #0
 80009a8:	d001      	beq.n	80009ae <SystemClock_Config+0x66>
	{
		Error_Handler();
 80009aa:	f000 f818 	bl	80009de <Error_Handler>
	}

	/** Initializes the CPU, AHB and APB buses clocks
	 */
	RCC_ClkInitStruct.ClockType = RCC_CLOCKTYPE_HCLK|RCC_CLOCKTYPE_SYSCLK
 80009ae:	230f      	movs	r3, #15
 80009b0:	607b      	str	r3, [r7, #4]
			|RCC_CLOCKTYPE_PCLK1|RCC_CLOCKTYPE_PCLK2;
	RCC_ClkInitStruct.SYSCLKSource = RCC_SYSCLKSOURCE_PLLCLK;
 80009b2:	2303      	movs	r3, #3
 80009b4:	60bb      	str	r3, [r7, #8]
	RCC_ClkInitStruct.AHBCLKDivider = RCC_SYSCLK_DIV1;
 80009b6:	2300      	movs	r3, #0
 80009b8:	60fb      	str	r3, [r7, #12]
	RCC_ClkInitStruct.APB1CLKDivider = RCC_HCLK_DIV1;
 80009ba:	2300      	movs	r3, #0
 80009bc:	613b      	str	r3, [r7, #16]
	RCC_ClkInitStruct.APB2CLKDivider = RCC_HCLK_DIV1;
 80009be:	2300      	movs	r3, #0
 80009c0:	617b      	str	r3, [r7, #20]

	if (HAL_RCC_ClockConfig(&RCC_ClkInitStruct, FLASH_LATENCY_4) != HAL_OK)
 80009c2:	1d3b      	adds	r3, r7, #4
 80009c4:	2104      	movs	r1, #4
 80009c6:	4618      	mov	r0, r3
 80009c8:	f002 fd40 	bl	800344c <HAL_RCC_ClockConfig>
 80009cc:	4603      	mov	r3, r0
 80009ce:	2b00      	cmp	r3, #0
 80009d0:	d001      	beq.n	80009d6 <SystemClock_Config+0x8e>
	{
		Error_Handler();
 80009d2:	f000 f804 	bl	80009de <Error_Handler>
	}
}
 80009d6:	bf00      	nop
 80009d8:	3750      	adds	r7, #80	@ 0x50
 80009da:	46bd      	mov	sp, r7
 80009dc:	bd80      	pop	{r7, pc}

080009de <Error_Handler>:
/**
 * @brief  This function is executed in case of error occurrence.
 * @retval None
 */
void Error_Handler(void)
{
 80009de:	b480      	push	{r7}
 80009e0:	af00      	add	r7, sp, #0
  \details Disables IRQ interrupts by setting the I-bit in the CPSR.
           Can only be executed in Privileged modes.
 */
__STATIC_FORCEINLINE void __disable_irq(void)
{
  __ASM volatile ("cpsid i" : : : "memory");
 80009e2:	b672      	cpsid	i
}
 80009e4:	bf00      	nop
	/* USER CODE BEGIN Error_Handler_Debug */
	/* User can add his own implementation to report the HAL error return state */
	__disable_irq();
	while (1)
 80009e6:	bf00      	nop
 80009e8:	e7fd      	b.n	80009e6 <Error_Handler+0x8>
	...

080009ec <HAL_MspInit>:
 80009ec:	b580      	push	{r7, lr}
 80009ee:	b082      	sub	sp, #8
 80009f0:	af00      	add	r7, sp, #0
 80009f2:	4b0f      	ldr	r3, [pc, #60]	@ (8000a30 <HAL_MspInit+0x44>)
 80009f4:	6e1b      	ldr	r3, [r3, #96]	@ 0x60
 80009f6:	4a0e      	ldr	r2, [pc, #56]	@ (8000a30 <HAL_MspInit+0x44>)
 80009f8:	f043 0301 	orr.w	r3, r3, #1
 80009fc:	6613      	str	r3, [r2, #96]	@ 0x60
 80009fe:	4b0c      	ldr	r3, [pc, #48]	@ (8000a30 <HAL_MspInit+0x44>)
 8000a00:	6e1b      	ldr	r3, [r3, #96]	@ 0x60
 8000a02:	f003 0301 	and.w	r3, r3, #1
 8000a06:	607b      	str	r3, [r7, #4]
 8000a08:	687b      	ldr	r3, [r7, #4]
 8000a0a:	4b09      	ldr	r3, [pc, #36]	@ (8000a30 <HAL_MspInit+0x44>)
 8000a0c:	6d9b      	ldr	r3, [r3, #88]	@ 0x58
 8000a0e:	4a08      	ldr	r2, [pc, #32]	@ (8000a30 <HAL_MspInit+0x44>)
 8000a10:	f043 5380 	orr.w	r3, r3, #268435456	@ 0x10000000
 8000a14:	6593      	str	r3, [r2, #88]	@ 0x58
 8000a16:	4b06      	ldr	r3, [pc, #24]	@ (8000a30 <HAL_MspInit+0x44>)
 8000a18:	6d9b      	ldr	r3, [r3, #88]	@ 0x58
 8000a1a:	f003 5380 	and.w	r3, r3, #268435456	@ 0x10000000
 8000a1e:	603b      	str	r3, [r7, #0]
 8000a20:	683b      	ldr	r3, [r7, #0]
 8000a22:	f002 f9f1 	bl	8002e08 <HAL_PWREx_DisableUCPDDeadBattery>
 8000a26:	bf00      	nop
 8000a28:	3708      	adds	r7, #8
 8000a2a:	46bd      	mov	sp, r7
 8000a2c:	bd80      	pop	{r7, pc}
 8000a2e:	bf00      	nop
 8000a30:	40021000 	.word	0x40021000

08000a34 <NMI_Handler>:
 8000a34:	b480      	push	{r7}
 8000a36:	af00      	add	r7, sp, #0
 8000a38:	bf00      	nop
 8000a3a:	e7fd      	b.n	8000a38 <NMI_Handler+0x4>

08000a3c <HardFault_Handler>:
 8000a3c:	b480      	push	{r7}
 8000a3e:	af00      	add	r7, sp, #0
 8000a40:	bf00      	nop
 8000a42:	e7fd      	b.n	8000a40 <HardFault_Handler+0x4>

08000a44 <MemManage_Handler>:
 8000a44:	b480      	push	{r7}
 8000a46:	af00      	add	r7, sp, #0
 8000a48:	bf00      	nop
 8000a4a:	e7fd      	b.n	8000a48 <MemManage_Handler+0x4>

08000a4c <BusFault_Handler>:
 8000a4c:	b480      	push	{r7}
 8000a4e:	af00      	add	r7, sp, #0
 8000a50:	bf00      	nop
 8000a52:	e7fd      	b.n	8000a50 <BusFault_Handler+0x4>

08000a54 <UsageFault_Handler>:
 8000a54:	b480      	push	{r7}
 8000a56:	af00      	add	r7, sp, #0
 8000a58:	bf00      	nop
 8000a5a:	e7fd      	b.n	8000a58 <UsageFault_Handler+0x4>

08000a5c <SVC_Handler>:
 8000a5c:	b480      	push	{r7}
 8000a5e:	af00      	add	r7, sp, #0
 8000a60:	bf00      	nop
 8000a62:	46bd      	mov	sp, r7
 8000a64:	f85d 7b04 	ldr.w	r7, [sp], #4
 8000a68:	4770      	bx	lr

08000a6a <DebugMon_Handler>:
 8000a6a:	b480      	push	{r7}
 8000a6c:	af00      	add	r7, sp, #0
 8000a6e:	bf00      	nop
 8000a70:	46bd      	mov	sp, r7
 8000a72:	f85d 7b04 	ldr.w	r7, [sp], #4
 8000a76:	4770      	bx	lr

08000a78 <PendSV_Handler>:
 8000a78:	b480      	push	{r7}
 8000a7a:	af00      	add	r7, sp, #0
 8000a7c:	bf00      	nop
 8000a7e:	46bd      	mov	sp, r7
 8000a80:	f85d 7b04 	ldr.w	r7, [sp], #4
 8000a84:	4770      	bx	lr

08000a86 <SysTick_Handler>:
 8000a86:	b580      	push	{r7, lr}
 8000a88:	af00      	add	r7, sp, #0
 8000a8a:	f000 faa1 	bl	8000fd0 <HAL_IncTick>
 8000a8e:	bf00      	nop
 8000a90:	bd80      	pop	{r7, pc}
	...

08000a94 <TIM2_IRQHandler>:
 8000a94:	b580      	push	{r7, lr}
 8000a96:	af00      	add	r7, sp, #0
 8000a98:	4802      	ldr	r0, [pc, #8]	@ (8000aa4 <TIM2_IRQHandler+0x10>)
 8000a9a:	f003 fa9b 	bl	8003fd4 <HAL_TIM_IRQHandler>
 8000a9e:	bf00      	nop
 8000aa0:	bd80      	pop	{r7, pc}
 8000aa2:	bf00      	nop
 8000aa4:	200000f4 	.word	0x200000f4

08000aa8 <_read>:
 8000aa8:	b580      	push	{r7, lr}
 8000aaa:	b086      	sub	sp, #24
 8000aac:	af00      	add	r7, sp, #0
 8000aae:	60f8      	str	r0, [r7, #12]
 8000ab0:	60b9      	str	r1, [r7, #8]
 8000ab2:	607a      	str	r2, [r7, #4]
 8000ab4:	2300      	movs	r3, #0
 8000ab6:	617b      	str	r3, [r7, #20]
 8000ab8:	e00a      	b.n	8000ad0 <_read+0x28>
 8000aba:	f3af 8000 	nop.w
 8000abe:	4601      	mov	r1, r0
 8000ac0:	68bb      	ldr	r3, [r7, #8]
 8000ac2:	1c5a      	adds	r2, r3, #1
 8000ac4:	60ba      	str	r2, [r7, #8]
 8000ac6:	b2ca      	uxtb	r2, r1
 8000ac8:	701a      	strb	r2, [r3, #0]
 8000aca:	697b      	ldr	r3, [r7, #20]
 8000acc:	3301      	adds	r3, #1
 8000ace:	617b      	str	r3, [r7, #20]
 8000ad0:	697a      	ldr	r2, [r7, #20]
 8000ad2:	687b      	ldr	r3, [r7, #4]
 8000ad4:	429a      	cmp	r2, r3
 8000ad6:	dbf0      	blt.n	8000aba <_read+0x12>
 8000ad8:	687b      	ldr	r3, [r7, #4]
 8000ada:	4618      	mov	r0, r3
 8000adc:	3718      	adds	r7, #24
 8000ade:	46bd      	mov	sp, r7
 8000ae0:	bd80      	pop	{r7, pc}

08000ae2 <_write>:
 8000ae2:	b580      	push	{r7, lr}
 8000ae4:	b086      	sub	sp, #24
 8000ae6:	af00      	add	r7, sp, #0
 8000ae8:	60f8      	str	r0, [r7, #12]
 8000aea:	60b9      	str	r1, [r7, #8]
 8000aec:	607a      	str	r2, [r7, #4]
 8000aee:	2300      	movs	r3, #0
 8000af0:	617b      	str	r3, [r7, #20]
 8000af2:	e009      	b.n	8000b08 <_write+0x26>
 8000af4:	68bb      	ldr	r3, [r7, #8]
 8000af6:	1c5a      	adds	r2, r3, #1
 8000af8:	60ba      	str	r2, [r7, #8]
 8000afa:	781b      	ldrb	r3, [r3, #0]
 8000afc:	4618      	mov	r0, r3
 8000afe:	f7ff fe85 	bl	800080c <__io_putchar>
 8000b02:	697b      	ldr	r3, [r7, #20]
 8000b04:	3301      	adds	r3, #1
 8000b06:	617b      	str	r3, [r7, #20]
 8000b08:	697a      	ldr	r2, [r7, #20]
 8000b0a:	687b      	ldr	r3, [r7, #4]
 8000b0c:	429a      	cmp	r2, r3
 8000b0e:	dbf1      	blt.n	8000af4 <_write+0x12>
 8000b10:	687b      	ldr	r3, [r7, #4]
 8000b12:	4618      	mov	r0, r3
 8000b14:	3718      	adds	r7, #24
 8000b16:	46bd      	mov	sp, r7
 8000b18:	bd80      	pop	{r7, pc}

08000b1a <_close>:
 8000b1a:	b480      	push	{r7}
 8000b1c:	b083      	sub	sp, #12
 8000b1e:	af00      	add	r7, sp, #0
 8000b20:	6078      	str	r0, [r7, #4]
 8000b22:	f04f 33ff 	mov.w	r3, #4294967295	@ 0xffffffff
 8000b26:	4618      	mov	r0, r3
 8000b28:	370c      	adds	r7, #12
 8000b2a:	46bd      	mov	sp, r7
 8000b2c:	f85d 7b04 	ldr.w	r7, [sp], #4
 8000b30:	4770      	bx	lr

08000b32 <_fstat>:
 8000b32:	b480      	push	{r7}
 8000b34:	b083      	sub	sp, #12
 8000b36:	af00      	add	r7, sp, #0
 8000b38:	6078      	str	r0, [r7, #4]
 8000b3a:	6039      	str	r1, [r7, #0]
 8000b3c:	683b      	ldr	r3, [r7, #0]
 8000b3e:	f44f 5200 	mov.w	r2, #8192	@ 0x2000
 8000b42:	605a      	str	r2, [r3, #4]
 8000b44:	2300      	movs	r3, #0
 8000b46:	4618      	mov	r0, r3
 8000b48:	370c      	adds	r7, #12
 8000b4a:	46bd      	mov	sp, r7
 8000b4c:	f85d 7b04 	ldr.w	r7, [sp], #4
 8000b50:	4770      	bx	lr

08000b52 <_isatty>:
 8000b52:	b480      	push	{r7}
 8000b54:	b083      	sub	sp, #12
 8000b56:	af00      	add	r7, sp, #0
 8000b58:	6078      	str	r0, [r7, #4]
 8000b5a:	2301      	movs	r3, #1
 8000b5c:	4618      	mov	r0, r3
 8000b5e:	370c      	adds	r7, #12
 8000b60:	46bd      	mov	sp, r7
 8000b62:	f85d 7b04 	ldr.w	r7, [sp], #4
 8000b66:	4770      	bx	lr

08000b68 <_lseek>:
 8000b68:	b480      	push	{r7}
 8000b6a:	b085      	sub	sp, #20
 8000b6c:	af00      	add	r7, sp, #0
 8000b6e:	60f8      	str	r0, [r7, #12]
 8000b70:	60b9      	str	r1, [r7, #8]
 8000b72:	607a      	str	r2, [r7, #4]
 8000b74:	2300      	movs	r3, #0
 8000b76:	4618      	mov	r0, r3
 8000b78:	3714      	adds	r7, #20
 8000b7a:	46bd      	mov	sp, r7
 8000b7c:	f85d 7b04 	ldr.w	r7, [sp], #4
 8000b80:	4770      	bx	lr
	...

08000b84 <_sbrk>:
 8000b84:	b580      	push	{r7, lr}
 8000b86:	b086      	sub	sp, #24
 8000b88:	af00      	add	r7, sp, #0
 8000b8a:	6078      	str	r0, [r7, #4]
 8000b8c:	4a14      	ldr	r2, [pc, #80]	@ (8000be0 <_sbrk+0x5c>)
 8000b8e:	4b15      	ldr	r3, [pc, #84]	@ (8000be4 <_sbrk+0x60>)
 8000b90:	1ad3      	subs	r3, r2, r3
 8000b92:	617b      	str	r3, [r7, #20]
 8000b94:	697b      	ldr	r3, [r7, #20]
 8000b96:	613b      	str	r3, [r7, #16]
 8000b98:	4b13      	ldr	r3, [pc, #76]	@ (8000be8 <_sbrk+0x64>)
 8000b9a:	681b      	ldr	r3, [r3, #0]
 8000b9c:	2b00      	cmp	r3, #0
 8000b9e:	d102      	bne.n	8000ba6 <_sbrk+0x22>
 8000ba0:	4b11      	ldr	r3, [pc, #68]	@ (8000be8 <_sbrk+0x64>)
 8000ba2:	4a12      	ldr	r2, [pc, #72]	@ (8000bec <_sbrk+0x68>)
 8000ba4:	601a      	str	r2, [r3, #0]
 8000ba6:	4b10      	ldr	r3, [pc, #64]	@ (8000be8 <_sbrk+0x64>)
 8000ba8:	681a      	ldr	r2, [r3, #0]
 8000baa:	687b      	ldr	r3, [r7, #4]
 8000bac:	4413      	add	r3, r2
 8000bae:	693a      	ldr	r2, [r7, #16]
 8000bb0:	429a      	cmp	r2, r3
 8000bb2:	d207      	bcs.n	8000bc4 <_sbrk+0x40>
 8000bb4:	f005 faec 	bl	8006190 <__errno>
 8000bb8:	4603      	mov	r3, r0
 8000bba:	220c      	movs	r2, #12
 8000bbc:	601a      	str	r2, [r3, #0]
 8000bbe:	f04f 33ff 	mov.w	r3, #4294967295	@ 0xffffffff
 8000bc2:	e009      	b.n	8000bd8 <_sbrk+0x54>
 8000bc4:	4b08      	ldr	r3, [pc, #32]	@ (8000be8 <_sbrk+0x64>)
 8000bc6:	681b      	ldr	r3, [r3, #0]
 8000bc8:	60fb      	str	r3, [r7, #12]
 8000bca:	4b07      	ldr	r3, [pc, #28]	@ (8000be8 <_sbrk+0x64>)
 8000bcc:	681a      	ldr	r2, [r3, #0]
 8000bce:	687b      	ldr	r3, [r7, #4]
 8000bd0:	4413      	add	r3, r2
 8000bd2:	4a05      	ldr	r2, [pc, #20]	@ (8000be8 <_sbrk+0x64>)
 8000bd4:	6013      	str	r3, [r2, #0]
 8000bd6:	68fb      	ldr	r3, [r7, #12]
 8000bd8:	4618      	mov	r0, r3
 8000bda:	3718      	adds	r7, #24
 8000bdc:	46bd      	mov	sp, r7
 8000bde:	bd80      	pop	{r7, pc}
 8000be0:	20008000 	.word	0x20008000
 8000be4:	00000400 	.word	0x00000400
 8000be8:	200000f0 	.word	0x200000f0
 8000bec:	20000328 	.word	0x20000328

08000bf0 <SystemInit>:
 8000bf0:	b480      	push	{r7}
 8000bf2:	af00      	add	r7, sp, #0
 8000bf4:	4b06      	ldr	r3, [pc, #24]	@ (8000c10 <SystemInit+0x20>)
 8000bf6:	f8d3 3088 	ldr.w	r3, [r3, #136]	@ 0x88
 8000bfa:	4a05      	ldr	r2, [pc, #20]	@ (8000c10 <SystemInit+0x20>)
 8000bfc:	f443 0370 	orr.w	r3, r3, #15728640	@ 0xf00000
 8000c00:	f8c2 3088 	str.w	r3, [r2, #136]	@ 0x88
 8000c04:	bf00      	nop
 8000c06:	46bd      	mov	sp, r7
 8000c08:	f85d 7b04 	ldr.w	r7, [sp], #4
 8000c0c:	4770      	bx	lr
 8000c0e:	bf00      	nop
 8000c10:	e000ed00 	.word	0xe000ed00

08000c14 <MX_TIM2_Init>:
 8000c14:	b580      	push	{r7, lr}
 8000c16:	b08e      	sub	sp, #56	@ 0x38
 8000c18:	af00      	add	r7, sp, #0
 8000c1a:	f107 0328 	add.w	r3, r7, #40	@ 0x28
 8000c1e:	2200      	movs	r2, #0
 8000c20:	601a      	str	r2, [r3, #0]
 8000c22:	605a      	str	r2, [r3, #4]
 8000c24:	609a      	str	r2, [r3, #8]
 8000c26:	60da      	str	r2, [r3, #12]
 8000c28:	f107 031c 	add.w	r3, r7, #28
 8000c2c:	2200      	movs	r2, #0
 8000c2e:	601a      	str	r2, [r3, #0]
 8000c30:	605a      	str	r2, [r3, #4]
 8000c32:	609a      	str	r2, [r3, #8]
 8000c34:	463b      	mov	r3, r7
 8000c36:	2200      	movs	r2, #0
 8000c38:	601a      	str	r2, [r3, #0]
 8000c3a:	605a      	str	r2, [r3, #4]
 8000c3c:	609a      	str	r2, [r3, #8]
 8000c3e:	60da      	str	r2, [r3, #12]
 8000c40:	611a      	str	r2, [r3, #16]
 8000c42:	615a      	str	r2, [r3, #20]
 8000c44:	619a      	str	r2, [r3, #24]
 8000c46:	4b2b      	ldr	r3, [pc, #172]	@ (8000cf4 <MX_TIM2_Init+0xe0>)
 8000c48:	f04f 4280 	mov.w	r2, #1073741824	@ 0x40000000
 8000c4c:	601a      	str	r2, [r3, #0]
 8000c4e:	4b29      	ldr	r3, [pc, #164]	@ (8000cf4 <MX_TIM2_Init+0xe0>)
 8000c50:	2200      	movs	r2, #0
 8000c52:	605a      	str	r2, [r3, #4]
 8000c54:	4b27      	ldr	r3, [pc, #156]	@ (8000cf4 <MX_TIM2_Init+0xe0>)
 8000c56:	2200      	movs	r2, #0
 8000c58:	609a      	str	r2, [r3, #8]
 8000c5a:	4b26      	ldr	r3, [pc, #152]	@ (8000cf4 <MX_TIM2_Init+0xe0>)
 8000c5c:	4a26      	ldr	r2, [pc, #152]	@ (8000cf8 <MX_TIM2_Init+0xe4>)
 8000c5e:	60da      	str	r2, [r3, #12]
 8000c60:	4b24      	ldr	r3, [pc, #144]	@ (8000cf4 <MX_TIM2_Init+0xe0>)
 8000c62:	2200      	movs	r2, #0
 8000c64:	611a      	str	r2, [r3, #16]
 8000c66:	4b23      	ldr	r3, [pc, #140]	@ (8000cf4 <MX_TIM2_Init+0xe0>)
 8000c68:	2200      	movs	r2, #0
 8000c6a:	619a      	str	r2, [r3, #24]
 8000c6c:	4821      	ldr	r0, [pc, #132]	@ (8000cf4 <MX_TIM2_Init+0xe0>)
 8000c6e:	f002 fff9 	bl	8003c64 <HAL_TIM_Base_Init>
 8000c72:	4603      	mov	r3, r0
 8000c74:	2b00      	cmp	r3, #0
 8000c76:	d001      	beq.n	8000c7c <MX_TIM2_Init+0x68>
 8000c78:	f7ff feb1 	bl	80009de <Error_Handler>
 8000c7c:	f44f 5380 	mov.w	r3, #4096	@ 0x1000
 8000c80:	62bb      	str	r3, [r7, #40]	@ 0x28
 8000c82:	f107 0328 	add.w	r3, r7, #40	@ 0x28
 8000c86:	4619      	mov	r1, r3
 8000c88:	481a      	ldr	r0, [pc, #104]	@ (8000cf4 <MX_TIM2_Init+0xe0>)
 8000c8a:	f003 fc07 	bl	800449c <HAL_TIM_ConfigClockSource>
 8000c8e:	4603      	mov	r3, r0
 8000c90:	2b00      	cmp	r3, #0
 8000c92:	d001      	beq.n	8000c98 <MX_TIM2_Init+0x84>
 8000c94:	f7ff fea3 	bl	80009de <Error_Handler>
 8000c98:	4816      	ldr	r0, [pc, #88]	@ (8000cf4 <MX_TIM2_Init+0xe0>)
 8000c9a:	f003 f83a 	bl	8003d12 <HAL_TIM_PWM_Init>
 8000c9e:	4603      	mov	r3, r0
 8000ca0:	2b00      	cmp	r3, #0
 8000ca2:	d001      	beq.n	8000ca8 <MX_TIM2_Init+0x94>
 8000ca4:	f7ff fe9b 	bl	80009de <Error_Handler>
 8000ca8:	2300      	movs	r3, #0
 8000caa:	61fb      	str	r3, [r7, #28]
 8000cac:	2300      	movs	r3, #0
 8000cae:	627b      	str	r3, [r7, #36]	@ 0x24
 8000cb0:	f107 031c 	add.w	r3, r7, #28
 8000cb4:	4619      	mov	r1, r3
 8000cb6:	480f      	ldr	r0, [pc, #60]	@ (8000cf4 <MX_TIM2_Init+0xe0>)
 8000cb8:	f004 f970 	bl	8004f9c <HAL_TIMEx_MasterConfigSynchronization>
 8000cbc:	4603      	mov	r3, r0
 8000cbe:	2b00      	cmp	r3, #0
 8000cc0:	d001      	beq.n	8000cc6 <MX_TIM2_Init+0xb2>
 8000cc2:	f7ff fe8c 	bl	80009de <Error_Handler>
 8000cc6:	2360      	movs	r3, #96	@ 0x60
 8000cc8:	603b      	str	r3, [r7, #0]
 8000cca:	4b0c      	ldr	r3, [pc, #48]	@ (8000cfc <MX_TIM2_Init+0xe8>)
 8000ccc:	607b      	str	r3, [r7, #4]
 8000cce:	2300      	movs	r3, #0
 8000cd0:	60bb      	str	r3, [r7, #8]
 8000cd2:	2300      	movs	r3, #0
 8000cd4:	613b      	str	r3, [r7, #16]
 8000cd6:	463b      	mov	r3, r7
 8000cd8:	2200      	movs	r2, #0
 8000cda:	4619      	mov	r1, r3
 8000cdc:	4805      	ldr	r0, [pc, #20]	@ (8000cf4 <MX_TIM2_Init+0xe0>)
 8000cde:	f003 fac9 	bl	8004274 <HAL_TIM_PWM_ConfigChannel>
 8000ce2:	4603      	mov	r3, r0
 8000ce4:	2b00      	cmp	r3, #0
 8000ce6:	d001      	beq.n	8000cec <MX_TIM2_Init+0xd8>
 8000ce8:	f7ff fe79 	bl	80009de <Error_Handler>
 8000cec:	bf00      	nop
 8000cee:	3738      	adds	r7, #56	@ 0x38
 8000cf0:	46bd      	mov	sp, r7
 8000cf2:	bd80      	pop	{r7, pc}
 8000cf4:	200000f4 	.word	0x200000f4
 8000cf8:	0002980f 	.word	0x0002980f
 8000cfc:	00014c08 	.word	0x00014c08

08000d00 <HAL_TIM_Base_MspInit>:
 8000d00:	b580      	push	{r7, lr}
 8000d02:	b08a      	sub	sp, #40	@ 0x28
 8000d04:	af00      	add	r7, sp, #0
 8000d06:	6078      	str	r0, [r7, #4]
 8000d08:	f107 0314 	add.w	r3, r7, #20
 8000d0c:	2200      	movs	r2, #0
 8000d0e:	601a      	str	r2, [r3, #0]
 8000d10:	605a      	str	r2, [r3, #4]
 8000d12:	609a      	str	r2, [r3, #8]
 8000d14:	60da      	str	r2, [r3, #12]
 8000d16:	611a      	str	r2, [r3, #16]
 8000d18:	687b      	ldr	r3, [r7, #4]
 8000d1a:	681b      	ldr	r3, [r3, #0]
 8000d1c:	f1b3 4f80 	cmp.w	r3, #1073741824	@ 0x40000000
 8000d20:	d130      	bne.n	8000d84 <HAL_TIM_Base_MspInit+0x84>
 8000d22:	4b1a      	ldr	r3, [pc, #104]	@ (8000d8c <HAL_TIM_Base_MspInit+0x8c>)
 8000d24:	6d9b      	ldr	r3, [r3, #88]	@ 0x58
 8000d26:	4a19      	ldr	r2, [pc, #100]	@ (8000d8c <HAL_TIM_Base_MspInit+0x8c>)
 8000d28:	f043 0301 	orr.w	r3, r3, #1
 8000d2c:	6593      	str	r3, [r2, #88]	@ 0x58
 8000d2e:	4b17      	ldr	r3, [pc, #92]	@ (8000d8c <HAL_TIM_Base_MspInit+0x8c>)
 8000d30:	6d9b      	ldr	r3, [r3, #88]	@ 0x58
 8000d32:	f003 0301 	and.w	r3, r3, #1
 8000d36:	613b      	str	r3, [r7, #16]
 8000d38:	693b      	ldr	r3, [r7, #16]
 8000d3a:	4b14      	ldr	r3, [pc, #80]	@ (8000d8c <HAL_TIM_Base_MspInit+0x8c>)
 8000d3c:	6cdb      	ldr	r3, [r3, #76]	@ 0x4c
 8000d3e:	4a13      	ldr	r2, [pc, #76]	@ (8000d8c <HAL_TIM_Base_MspInit+0x8c>)
 8000d40:	f043 0301 	orr.w	r3, r3, #1
 8000d44:	64d3      	str	r3, [r2, #76]	@ 0x4c
 8000d46:	4b11      	ldr	r3, [pc, #68]	@ (8000d8c <HAL_TIM_Base_MspInit+0x8c>)
 8000d48:	6cdb      	ldr	r3, [r3, #76]	@ 0x4c
 8000d4a:	f003 0301 	and.w	r3, r3, #1
 8000d4e:	60fb      	str	r3, [r7, #12]
 8000d50:	68fb      	ldr	r3, [r7, #12]
 8000d52:	2320      	movs	r3, #32
 8000d54:	617b      	str	r3, [r7, #20]
 8000d56:	2302      	movs	r3, #2
 8000d58:	61bb      	str	r3, [r7, #24]
 8000d5a:	2300      	movs	r3, #0
 8000d5c:	61fb      	str	r3, [r7, #28]
 8000d5e:	2300      	movs	r3, #0
 8000d60:	623b      	str	r3, [r7, #32]
 8000d62:	2301      	movs	r3, #1
 8000d64:	627b      	str	r3, [r7, #36]	@ 0x24
 8000d66:	f107 0314 	add.w	r3, r7, #20
 8000d6a:	4619      	mov	r1, r3
 8000d6c:	f04f 4090 	mov.w	r0, #1207959552	@ 0x48000000
 8000d70:	f001 fe24 	bl	80029bc <HAL_GPIO_Init>
 8000d74:	2200      	movs	r2, #0
 8000d76:	2100      	movs	r1, #0
 8000d78:	201c      	movs	r0, #28
 8000d7a:	f001 fdea 	bl	8002952 <HAL_NVIC_SetPriority>
 8000d7e:	201c      	movs	r0, #28
 8000d80:	f001 fe01 	bl	8002986 <HAL_NVIC_EnableIRQ>
 8000d84:	bf00      	nop
 8000d86:	3728      	adds	r7, #40	@ 0x28
 8000d88:	46bd      	mov	sp, r7
 8000d8a:	bd80      	pop	{r7, pc}
 8000d8c:	40021000 	.word	0x40021000

08000d90 <MX_USART2_UART_Init>:
 8000d90:	b580      	push	{r7, lr}
 8000d92:	af00      	add	r7, sp, #0
 8000d94:	4b22      	ldr	r3, [pc, #136]	@ (8000e20 <MX_USART2_UART_Init+0x90>)
 8000d96:	4a23      	ldr	r2, [pc, #140]	@ (8000e24 <MX_USART2_UART_Init+0x94>)
 8000d98:	601a      	str	r2, [r3, #0]
 8000d9a:	4b21      	ldr	r3, [pc, #132]	@ (8000e20 <MX_USART2_UART_Init+0x90>)
 8000d9c:	f44f 32e1 	mov.w	r2, #115200	@ 0x1c200
 8000da0:	605a      	str	r2, [r3, #4]
 8000da2:	4b1f      	ldr	r3, [pc, #124]	@ (8000e20 <MX_USART2_UART_Init+0x90>)
 8000da4:	2200      	movs	r2, #0
 8000da6:	609a      	str	r2, [r3, #8]
 8000da8:	4b1d      	ldr	r3, [pc, #116]	@ (8000e20 <MX_USART2_UART_Init+0x90>)
 8000daa:	2200      	movs	r2, #0
 8000dac:	60da      	str	r2, [r3, #12]
 8000dae:	4b1c      	ldr	r3, [pc, #112]	@ (8000e20 <MX_USART2_UART_Init+0x90>)
 8000db0:	2200      	movs	r2, #0
 8000db2:	611a      	str	r2, [r3, #16]
 8000db4:	4b1a      	ldr	r3, [pc, #104]	@ (8000e20 <MX_USART2_UART_Init+0x90>)
 8000db6:	220c      	movs	r2, #12
 8000db8:	615a      	str	r2, [r3, #20]
 8000dba:	4b19      	ldr	r3, [pc, #100]	@ (8000e20 <MX_USART2_UART_Init+0x90>)
 8000dbc:	2200      	movs	r2, #0
 8000dbe:	619a      	str	r2, [r3, #24]
 8000dc0:	4b17      	ldr	r3, [pc, #92]	@ (8000e20 <MX_USART2_UART_Init+0x90>)
 8000dc2:	2200      	movs	r2, #0
 8000dc4:	61da      	str	r2, [r3, #28]
 8000dc6:	4b16      	ldr	r3, [pc, #88]	@ (8000e20 <MX_USART2_UART_Init+0x90>)
 8000dc8:	2200      	movs	r2, #0
 8000dca:	621a      	str	r2, [r3, #32]
 8000dcc:	4b14      	ldr	r3, [pc, #80]	@ (8000e20 <MX_USART2_UART_Init+0x90>)
 8000dce:	2200      	movs	r2, #0
 8000dd0:	625a      	str	r2, [r3, #36]	@ 0x24
 8000dd2:	4b13      	ldr	r3, [pc, #76]	@ (8000e20 <MX_USART2_UART_Init+0x90>)
 8000dd4:	2200      	movs	r2, #0
 8000dd6:	629a      	str	r2, [r3, #40]	@ 0x28
 8000dd8:	4811      	ldr	r0, [pc, #68]	@ (8000e20 <MX_USART2_UART_Init+0x90>)
 8000dda:	f004 f9a7 	bl	800512c <HAL_UART_Init>
 8000dde:	4603      	mov	r3, r0
 8000de0:	2b00      	cmp	r3, #0
 8000de2:	d001      	beq.n	8000de8 <MX_USART2_UART_Init+0x58>
 8000de4:	f7ff fdfb 	bl	80009de <Error_Handler>
 8000de8:	2100      	movs	r1, #0
 8000dea:	480d      	ldr	r0, [pc, #52]	@ (8000e20 <MX_USART2_UART_Init+0x90>)
 8000dec:	f004 ffa0 	bl	8005d30 <HAL_UARTEx_SetTxFifoThreshold>
 8000df0:	4603      	mov	r3, r0
 8000df2:	2b00      	cmp	r3, #0
 8000df4:	d001      	beq.n	8000dfa <MX_USART2_UART_Init+0x6a>
 8000df6:	f7ff fdf2 	bl	80009de <Error_Handler>
 8000dfa:	2100      	movs	r1, #0
 8000dfc:	4808      	ldr	r0, [pc, #32]	@ (8000e20 <MX_USART2_UART_Init+0x90>)
 8000dfe:	f004 ffd5 	bl	8005dac <HAL_UARTEx_SetRxFifoThreshold>
 8000e02:	4603      	mov	r3, r0
 8000e04:	2b00      	cmp	r3, #0
 8000e06:	d001      	beq.n	8000e0c <MX_USART2_UART_Init+0x7c>
 8000e08:	f7ff fde9 	bl	80009de <Error_Handler>
 8000e0c:	4804      	ldr	r0, [pc, #16]	@ (8000e20 <MX_USART2_UART_Init+0x90>)
 8000e0e:	f004 ff56 	bl	8005cbe <HAL_UARTEx_DisableFifoMode>
 8000e12:	4603      	mov	r3, r0
 8000e14:	2b00      	cmp	r3, #0
 8000e16:	d001      	beq.n	8000e1c <MX_USART2_UART_Init+0x8c>
 8000e18:	f7ff fde1 	bl	80009de <Error_Handler>
 8000e1c:	bf00      	nop
 8000e1e:	bd80      	pop	{r7, pc}
 8000e20:	20000140 	.word	0x20000140
 8000e24:	40004400 	.word	0x40004400

08000e28 <HAL_UART_MspInit>:
 8000e28:	b580      	push	{r7, lr}
 8000e2a:	b09a      	sub	sp, #104	@ 0x68
 8000e2c:	af00      	add	r7, sp, #0
 8000e2e:	6078      	str	r0, [r7, #4]
 8000e30:	f107 0354 	add.w	r3, r7, #84	@ 0x54
 8000e34:	2200      	movs	r2, #0
 8000e36:	601a      	str	r2, [r3, #0]
 8000e38:	605a      	str	r2, [r3, #4]
 8000e3a:	609a      	str	r2, [r3, #8]
 8000e3c:	60da      	str	r2, [r3, #12]
 8000e3e:	611a      	str	r2, [r3, #16]
 8000e40:	f107 0310 	add.w	r3, r7, #16
 8000e44:	2244      	movs	r2, #68	@ 0x44
 8000e46:	2100      	movs	r1, #0
 8000e48:	4618      	mov	r0, r3
 8000e4a:	f005 f952 	bl	80060f2 <memset>
 8000e4e:	687b      	ldr	r3, [r7, #4]
 8000e50:	681b      	ldr	r3, [r3, #0]
 8000e52:	4a1f      	ldr	r2, [pc, #124]	@ (8000ed0 <HAL_UART_MspInit+0xa8>)
 8000e54:	4293      	cmp	r3, r2
 8000e56:	d137      	bne.n	8000ec8 <HAL_UART_MspInit+0xa0>
 8000e58:	2302      	movs	r3, #2
 8000e5a:	613b      	str	r3, [r7, #16]
 8000e5c:	2300      	movs	r3, #0
 8000e5e:	61bb      	str	r3, [r7, #24]
 8000e60:	f107 0310 	add.w	r3, r7, #16
 8000e64:	4618      	mov	r0, r3
 8000e66:	f002 fd0d 	bl	8003884 <HAL_RCCEx_PeriphCLKConfig>
 8000e6a:	4603      	mov	r3, r0
 8000e6c:	2b00      	cmp	r3, #0
 8000e6e:	d001      	beq.n	8000e74 <HAL_UART_MspInit+0x4c>
 8000e70:	f7ff fdb5 	bl	80009de <Error_Handler>
 8000e74:	4b17      	ldr	r3, [pc, #92]	@ (8000ed4 <HAL_UART_MspInit+0xac>)
 8000e76:	6d9b      	ldr	r3, [r3, #88]	@ 0x58
 8000e78:	4a16      	ldr	r2, [pc, #88]	@ (8000ed4 <HAL_UART_MspInit+0xac>)
 8000e7a:	f443 3300 	orr.w	r3, r3, #131072	@ 0x20000
 8000e7e:	6593      	str	r3, [r2, #88]	@ 0x58
 8000e80:	4b14      	ldr	r3, [pc, #80]	@ (8000ed4 <HAL_UART_MspInit+0xac>)
 8000e82:	6d9b      	ldr	r3, [r3, #88]	@ 0x58
 8000e84:	f403 3300 	and.w	r3, r3, #131072	@ 0x20000
 8000e88:	60fb      	str	r3, [r7, #12]
 8000e8a:	68fb      	ldr	r3, [r7, #12]
 8000e8c:	4b11      	ldr	r3, [pc, #68]	@ (8000ed4 <HAL_UART_MspInit+0xac>)
 8000e8e:	6cdb      	ldr	r3, [r3, #76]	@ 0x4c
 8000e90:	4a10      	ldr	r2, [pc, #64]	@ (8000ed4 <HAL_UART_MspInit+0xac>)
 8000e92:	f043 0301 	orr.w	r3, r3, #1
 8000e96:	64d3      	str	r3, [r2, #76]	@ 0x4c
 8000e98:	4b0e      	ldr	r3, [pc, #56]	@ (8000ed4 <HAL_UART_MspInit+0xac>)
 8000e9a:	6cdb      	ldr	r3, [r3, #76]	@ 0x4c
 8000e9c:	f003 0301 	and.w	r3, r3, #1
 8000ea0:	60bb      	str	r3, [r7, #8]
 8000ea2:	68bb      	ldr	r3, [r7, #8]
 8000ea4:	f248 0304 	movw	r3, #32772	@ 0x8004
 8000ea8:	657b      	str	r3, [r7, #84]	@ 0x54
 8000eaa:	2302      	movs	r3, #2
 8000eac:	65bb      	str	r3, [r7, #88]	@ 0x58
 8000eae:	2300      	movs	r3, #0
 8000eb0:	65fb      	str	r3, [r7, #92]	@ 0x5c
 8000eb2:	2300      	movs	r3, #0
 8000eb4:	663b      	str	r3, [r7, #96]	@ 0x60
 8000eb6:	2307      	movs	r3, #7
 8000eb8:	667b      	str	r3, [r7, #100]	@ 0x64
 8000eba:	f107 0354 	add.w	r3, r7, #84	@ 0x54
 8000ebe:	4619      	mov	r1, r3
 8000ec0:	f04f 4090 	mov.w	r0, #1207959552	@ 0x48000000
 8000ec4:	f001 fd7a 	bl	80029bc <HAL_GPIO_Init>
 8000ec8:	bf00      	nop
 8000eca:	3768      	adds	r7, #104	@ 0x68
 8000ecc:	46bd      	mov	sp, r7
 8000ece:	bd80      	pop	{r7, pc}
 8000ed0:	40004400 	.word	0x40004400
 8000ed4:	40021000 	.word	0x40021000

08000ed8 <Reset_Handler>:
 8000ed8:	480d      	ldr	r0, [pc, #52]	@ (8000f10 <LoopForever+0x2>)
 8000eda:	4685      	mov	sp, r0
 8000edc:	f7ff fe88 	bl	8000bf0 <SystemInit>
 8000ee0:	480c      	ldr	r0, [pc, #48]	@ (8000f14 <LoopForever+0x6>)
 8000ee2:	490d      	ldr	r1, [pc, #52]	@ (8000f18 <LoopForever+0xa>)
 8000ee4:	4a0d      	ldr	r2, [pc, #52]	@ (8000f1c <LoopForever+0xe>)
 8000ee6:	2300      	movs	r3, #0
 8000ee8:	e002      	b.n	8000ef0 <LoopCopyDataInit>

08000eea <CopyDataInit>:
 8000eea:	58d4      	ldr	r4, [r2, r3]
 8000eec:	50c4      	str	r4, [r0, r3]
 8000eee:	3304      	adds	r3, #4

08000ef0 <LoopCopyDataInit>:
 8000ef0:	18c4      	adds	r4, r0, r3
 8000ef2:	428c      	cmp	r4, r1
 8000ef4:	d3f9      	bcc.n	8000eea <CopyDataInit>
 8000ef6:	4a0a      	ldr	r2, [pc, #40]	@ (8000f20 <LoopForever+0x12>)
 8000ef8:	4c0a      	ldr	r4, [pc, #40]	@ (8000f24 <LoopForever+0x16>)
 8000efa:	2300      	movs	r3, #0
 8000efc:	e001      	b.n	8000f02 <LoopFillZerobss>

08000efe <FillZerobss>:
 8000efe:	6013      	str	r3, [r2, #0]
 8000f00:	3204      	adds	r2, #4

08000f02 <LoopFillZerobss>:
 8000f02:	42a2      	cmp	r2, r4
 8000f04:	d3fb      	bcc.n	8000efe <FillZerobss>
 8000f06:	f005 f949 	bl	800619c <__libc_init_array>
 8000f0a:	f7ff fca7 	bl	800085c <main>

08000f0e <LoopForever>:
 8000f0e:	e7fe      	b.n	8000f0e <LoopForever>
 8000f10:	20008000 	.word	0x20008000
 8000f14:	20000000 	.word	0x20000000
 8000f18:	20000068 	.word	0x20000068
 8000f1c:	08006df4 	.word	0x08006df4
 8000f20:	20000068 	.word	0x20000068
 8000f24:	20000324 	.word	0x20000324

08000f28 <ADC1_2_IRQHandler>:
 8000f28:	e7fe      	b.n	8000f28 <ADC1_2_IRQHandler>

08000f2a <HAL_Init>:
 8000f2a:	b580      	push	{r7, lr}
 8000f2c:	b082      	sub	sp, #8
 8000f2e:	af00      	add	r7, sp, #0
 8000f30:	2300      	movs	r3, #0
 8000f32:	71fb      	strb	r3, [r7, #7]
 8000f34:	2003      	movs	r0, #3
 8000f36:	f001 fd01 	bl	800293c <HAL_NVIC_SetPriorityGrouping>
 8000f3a:	2000      	movs	r0, #0
 8000f3c:	f000 f80e 	bl	8000f5c <HAL_InitTick>
 8000f40:	4603      	mov	r3, r0
 8000f42:	2b00      	cmp	r3, #0
 8000f44:	d002      	beq.n	8000f4c <HAL_Init+0x22>
 8000f46:	2301      	movs	r3, #1
 8000f48:	71fb      	strb	r3, [r7, #7]
 8000f4a:	e001      	b.n	8000f50 <HAL_Init+0x26>
 8000f4c:	f7ff fd4e 	bl	80009ec <HAL_MspInit>
 8000f50:	79fb      	ldrb	r3, [r7, #7]
 8000f52:	4618      	mov	r0, r3
 8000f54:	3708      	adds	r7, #8
 8000f56:	46bd      	mov	sp, r7
 8000f58:	bd80      	pop	{r7, pc}
	...

08000f5c <HAL_InitTick>:
 8000f5c:	b580      	push	{r7, lr}
 8000f5e:	b084      	sub	sp, #16
 8000f60:	af00      	add	r7, sp, #0
 8000f62:	6078      	str	r0, [r7, #4]
 8000f64:	2300      	movs	r3, #0
 8000f66:	73fb      	strb	r3, [r7, #15]
 8000f68:	4b16      	ldr	r3, [pc, #88]	@ (8000fc4 <HAL_InitTick+0x68>)
 8000f6a:	681b      	ldr	r3, [r3, #0]
 8000f6c:	2b00      	cmp	r3, #0
 8000f6e:	d022      	beq.n	8000fb6 <HAL_InitTick+0x5a>
 8000f70:	4b15      	ldr	r3, [pc, #84]	@ (8000fc8 <HAL_InitTick+0x6c>)
 8000f72:	681a      	ldr	r2, [r3, #0]
 8000f74:	4b13      	ldr	r3, [pc, #76]	@ (8000fc4 <HAL_InitTick+0x68>)
 8000f76:	681b      	ldr	r3, [r3, #0]
 8000f78:	f44f 717a 	mov.w	r1, #1000	@ 0x3e8
 8000f7c:	fbb1 f3f3 	udiv	r3, r1, r3
 8000f80:	fbb2 f3f3 	udiv	r3, r2, r3
 8000f84:	4618      	mov	r0, r3
 8000f86:	f001 fd0c 	bl	80029a2 <HAL_SYSTICK_Config>
 8000f8a:	4603      	mov	r3, r0
 8000f8c:	2b00      	cmp	r3, #0
 8000f8e:	d10f      	bne.n	8000fb0 <HAL_InitTick+0x54>
 8000f90:	687b      	ldr	r3, [r7, #4]
 8000f92:	2b0f      	cmp	r3, #15
 8000f94:	d809      	bhi.n	8000faa <HAL_InitTick+0x4e>
 8000f96:	2200      	movs	r2, #0
 8000f98:	6879      	ldr	r1, [r7, #4]
 8000f9a:	f04f 30ff 	mov.w	r0, #4294967295	@ 0xffffffff
 8000f9e:	f001 fcd8 	bl	8002952 <HAL_NVIC_SetPriority>
 8000fa2:	4a0a      	ldr	r2, [pc, #40]	@ (8000fcc <HAL_InitTick+0x70>)
 8000fa4:	687b      	ldr	r3, [r7, #4]
 8000fa6:	6013      	str	r3, [r2, #0]
 8000fa8:	e007      	b.n	8000fba <HAL_InitTick+0x5e>
 8000faa:	2301      	movs	r3, #1
 8000fac:	73fb      	strb	r3, [r7, #15]
 8000fae:	e004      	b.n	8000fba <HAL_InitTick+0x5e>
 8000fb0:	2301      	movs	r3, #1
 8000fb2:	73fb      	strb	r3, [r7, #15]
 8000fb4:	e001      	b.n	8000fba <HAL_InitTick+0x5e>
 8000fb6:	2301      	movs	r3, #1
 8000fb8:	73fb      	strb	r3, [r7, #15]
 8000fba:	7bfb      	ldrb	r3, [r7, #15]
 8000fbc:	4618      	mov	r0, r3
 8000fbe:	3710      	adds	r7, #16
 8000fc0:	46bd      	mov	sp, r7
 8000fc2:	bd80      	pop	{r7, pc}
 8000fc4:	20000008 	.word	0x20000008
 8000fc8:	20000000 	.word	0x20000000
 8000fcc:	20000004 	.word	0x20000004

08000fd0 <HAL_IncTick>:
 8000fd0:	b480      	push	{r7}
 8000fd2:	af00      	add	r7, sp, #0
 8000fd4:	4b05      	ldr	r3, [pc, #20]	@ (8000fec <HAL_IncTick+0x1c>)
 8000fd6:	681a      	ldr	r2, [r3, #0]
 8000fd8:	4b05      	ldr	r3, [pc, #20]	@ (8000ff0 <HAL_IncTick+0x20>)
 8000fda:	681b      	ldr	r3, [r3, #0]
 8000fdc:	4413      	add	r3, r2
 8000fde:	4a03      	ldr	r2, [pc, #12]	@ (8000fec <HAL_IncTick+0x1c>)
 8000fe0:	6013      	str	r3, [r2, #0]
 8000fe2:	bf00      	nop
 8000fe4:	46bd      	mov	sp, r7
 8000fe6:	f85d 7b04 	ldr.w	r7, [sp], #4
 8000fea:	4770      	bx	lr
 8000fec:	200001d4 	.word	0x200001d4
 8000ff0:	20000008 	.word	0x20000008

08000ff4 <HAL_GetTick>:
 8000ff4:	b480      	push	{r7}
 8000ff6:	af00      	add	r7, sp, #0
 8000ff8:	4b03      	ldr	r3, [pc, #12]	@ (8001008 <HAL_GetTick+0x14>)
 8000ffa:	681b      	ldr	r3, [r3, #0]
 8000ffc:	4618      	mov	r0, r3
 8000ffe:	46bd      	mov	sp, r7
 8001000:	f85d 7b04 	ldr.w	r7, [sp], #4
 8001004:	4770      	bx	lr
 8001006:	bf00      	nop
 8001008:	200001d4 	.word	0x200001d4

0800100c <HAL_Delay>:
 800100c:	b580      	push	{r7, lr}
 800100e:	b084      	sub	sp, #16
 8001010:	af00      	add	r7, sp, #0
 8001012:	6078      	str	r0, [r7, #4]
 8001014:	f7ff ffee 	bl	8000ff4 <HAL_GetTick>
 8001018:	60b8      	str	r0, [r7, #8]
 800101a:	687b      	ldr	r3, [r7, #4]
 800101c:	60fb      	str	r3, [r7, #12]
 800101e:	68fb      	ldr	r3, [r7, #12]
 8001020:	f1b3 3fff 	cmp.w	r3, #4294967295	@ 0xffffffff
 8001024:	d004      	beq.n	8001030 <HAL_Delay+0x24>
 8001026:	4b09      	ldr	r3, [pc, #36]	@ (800104c <HAL_Delay+0x40>)
 8001028:	681b      	ldr	r3, [r3, #0]
 800102a:	68fa      	ldr	r2, [r7, #12]
 800102c:	4413      	add	r3, r2
 800102e:	60fb      	str	r3, [r7, #12]
 8001030:	bf00      	nop
 8001032:	f7ff ffdf 	bl	8000ff4 <HAL_GetTick>
 8001036:	4602      	mov	r2, r0
 8001038:	68bb      	ldr	r3, [r7, #8]
 800103a:	1ad3      	subs	r3, r2, r3
 800103c:	68fa      	ldr	r2, [r7, #12]
 800103e:	429a      	cmp	r2, r3
 8001040:	d8f7      	bhi.n	8001032 <HAL_Delay+0x26>
 8001042:	bf00      	nop
 8001044:	bf00      	nop
 8001046:	3710      	adds	r7, #16
 8001048:	46bd      	mov	sp, r7
 800104a:	bd80      	pop	{r7, pc}
 800104c:	20000008 	.word	0x20000008

08001050 <LL_ADC_SetCommonClock>:
 8001050:	b480      	push	{r7}
 8001052:	b083      	sub	sp, #12
 8001054:	af00      	add	r7, sp, #0
 8001056:	6078      	str	r0, [r7, #4]
 8001058:	6039      	str	r1, [r7, #0]
 800105a:	687b      	ldr	r3, [r7, #4]
 800105c:	689b      	ldr	r3, [r3, #8]
 800105e:	f423 127c 	bic.w	r2, r3, #4128768	@ 0x3f0000
 8001062:	683b      	ldr	r3, [r7, #0]
 8001064:	431a      	orrs	r2, r3
 8001066:	687b      	ldr	r3, [r7, #4]
 8001068:	609a      	str	r2, [r3, #8]
 800106a:	bf00      	nop
 800106c:	370c      	adds	r7, #12
 800106e:	46bd      	mov	sp, r7
 8001070:	f85d 7b04 	ldr.w	r7, [sp], #4
 8001074:	4770      	bx	lr

08001076 <LL_ADC_SetCommonPathInternalCh>:
 8001076:	b480      	push	{r7}
 8001078:	b083      	sub	sp, #12
 800107a:	af00      	add	r7, sp, #0
 800107c:	6078      	str	r0, [r7, #4]
 800107e:	6039      	str	r1, [r7, #0]
 8001080:	687b      	ldr	r3, [r7, #4]
 8001082:	689b      	ldr	r3, [r3, #8]
 8001084:	f023 72e0 	bic.w	r2, r3, #29360128	@ 0x1c00000
 8001088:	683b      	ldr	r3, [r7, #0]
 800108a:	431a      	orrs	r2, r3
 800108c:	687b      	ldr	r3, [r7, #4]
 800108e:	609a      	str	r2, [r3, #8]
 8001090:	bf00      	nop
 8001092:	370c      	adds	r7, #12
 8001094:	46bd      	mov	sp, r7
 8001096:	f85d 7b04 	ldr.w	r7, [sp], #4
 800109a:	4770      	bx	lr

0800109c <LL_ADC_GetCommonPathInternalCh>:
 800109c:	b480      	push	{r7}
 800109e:	b083      	sub	sp, #12
 80010a0:	af00      	add	r7, sp, #0
 80010a2:	6078      	str	r0, [r7, #4]
 80010a4:	687b      	ldr	r3, [r7, #4]
 80010a6:	689b      	ldr	r3, [r3, #8]
 80010a8:	f003 73e0 	and.w	r3, r3, #29360128	@ 0x1c00000
 80010ac:	4618      	mov	r0, r3
 80010ae:	370c      	adds	r7, #12
 80010b0:	46bd      	mov	sp, r7
 80010b2:	f85d 7b04 	ldr.w	r7, [sp], #4
 80010b6:	4770      	bx	lr

080010b8 <LL_ADC_SetOffset>:
 80010b8:	b480      	push	{r7}
 80010ba:	b087      	sub	sp, #28
 80010bc:	af00      	add	r7, sp, #0
 80010be:	60f8      	str	r0, [r7, #12]
 80010c0:	60b9      	str	r1, [r7, #8]
 80010c2:	607a      	str	r2, [r7, #4]
 80010c4:	603b      	str	r3, [r7, #0]
 80010c6:	68fb      	ldr	r3, [r7, #12]
 80010c8:	3360      	adds	r3, #96	@ 0x60
 80010ca:	461a      	mov	r2, r3
 80010cc:	68bb      	ldr	r3, [r7, #8]
 80010ce:	009b      	lsls	r3, r3, #2
 80010d0:	4413      	add	r3, r2
 80010d2:	617b      	str	r3, [r7, #20]
 80010d4:	697b      	ldr	r3, [r7, #20]
 80010d6:	681a      	ldr	r2, [r3, #0]
 80010d8:	4b08      	ldr	r3, [pc, #32]	@ (80010fc <LL_ADC_SetOffset+0x44>)
 80010da:	4013      	ands	r3, r2
 80010dc:	687a      	ldr	r2, [r7, #4]
 80010de:	f002 41f8 	and.w	r1, r2, #2080374784	@ 0x7c000000
 80010e2:	683a      	ldr	r2, [r7, #0]
 80010e4:	430a      	orrs	r2, r1
 80010e6:	4313      	orrs	r3, r2
 80010e8:	f043 4200 	orr.w	r2, r3, #2147483648	@ 0x80000000
 80010ec:	697b      	ldr	r3, [r7, #20]
 80010ee:	601a      	str	r2, [r3, #0]
 80010f0:	bf00      	nop
 80010f2:	371c      	adds	r7, #28
 80010f4:	46bd      	mov	sp, r7
 80010f6:	f85d 7b04 	ldr.w	r7, [sp], #4
 80010fa:	4770      	bx	lr
 80010fc:	03fff000 	.word	0x03fff000

08001100 <LL_ADC_GetOffsetChannel>:
 8001100:	b480      	push	{r7}
 8001102:	b085      	sub	sp, #20
 8001104:	af00      	add	r7, sp, #0
 8001106:	6078      	str	r0, [r7, #4]
 8001108:	6039      	str	r1, [r7, #0]
 800110a:	687b      	ldr	r3, [r7, #4]
 800110c:	3360      	adds	r3, #96	@ 0x60
 800110e:	461a      	mov	r2, r3
 8001110:	683b      	ldr	r3, [r7, #0]
 8001112:	009b      	lsls	r3, r3, #2
 8001114:	4413      	add	r3, r2
 8001116:	60fb      	str	r3, [r7, #12]
 8001118:	68fb      	ldr	r3, [r7, #12]
 800111a:	681b      	ldr	r3, [r3, #0]
 800111c:	f003 43f8 	and.w	r3, r3, #2080374784	@ 0x7c000000
 8001120:	4618      	mov	r0, r3
 8001122:	3714      	adds	r7, #20
 8001124:	46bd      	mov	sp, r7
 8001126:	f85d 7b04 	ldr.w	r7, [sp], #4
 800112a:	4770      	bx	lr

0800112c <LL_ADC_SetOffsetState>:
 800112c:	b480      	push	{r7}
 800112e:	b087      	sub	sp, #28
 8001130:	af00      	add	r7, sp, #0
 8001132:	60f8      	str	r0, [r7, #12]
 8001134:	60b9      	str	r1, [r7, #8]
 8001136:	607a      	str	r2, [r7, #4]
 8001138:	68fb      	ldr	r3, [r7, #12]
 800113a:	3360      	adds	r3, #96	@ 0x60
 800113c:	461a      	mov	r2, r3
 800113e:	68bb      	ldr	r3, [r7, #8]
 8001140:	009b      	lsls	r3, r3, #2
 8001142:	4413      	add	r3, r2
 8001144:	617b      	str	r3, [r7, #20]
 8001146:	697b      	ldr	r3, [r7, #20]
 8001148:	681b      	ldr	r3, [r3, #0]
 800114a:	f023 4200 	bic.w	r2, r3, #2147483648	@ 0x80000000
 800114e:	687b      	ldr	r3, [r7, #4]
 8001150:	431a      	orrs	r2, r3
 8001152:	697b      	ldr	r3, [r7, #20]
 8001154:	601a      	str	r2, [r3, #0]
 8001156:	bf00      	nop
 8001158:	371c      	adds	r7, #28
 800115a:	46bd      	mov	sp, r7
 800115c:	f85d 7b04 	ldr.w	r7, [sp], #4
 8001160:	4770      	bx	lr

08001162 <LL_ADC_SetOffsetSign>:
 8001162:	b480      	push	{r7}
 8001164:	b087      	sub	sp, #28
 8001166:	af00      	add	r7, sp, #0
 8001168:	60f8      	str	r0, [r7, #12]
 800116a:	60b9      	str	r1, [r7, #8]
 800116c:	607a      	str	r2, [r7, #4]
 800116e:	68fb      	ldr	r3, [r7, #12]
 8001170:	3360      	adds	r3, #96	@ 0x60
 8001172:	461a      	mov	r2, r3
 8001174:	68bb      	ldr	r3, [r7, #8]
 8001176:	009b      	lsls	r3, r3, #2
 8001178:	4413      	add	r3, r2
 800117a:	617b      	str	r3, [r7, #20]
 800117c:	697b      	ldr	r3, [r7, #20]
 800117e:	681b      	ldr	r3, [r3, #0]
 8001180:	f023 7280 	bic.w	r2, r3, #16777216	@ 0x1000000
 8001184:	687b      	ldr	r3, [r7, #4]
 8001186:	431a      	orrs	r2, r3
 8001188:	697b      	ldr	r3, [r7, #20]
 800118a:	601a      	str	r2, [r3, #0]
 800118c:	bf00      	nop
 800118e:	371c      	adds	r7, #28
 8001190:	46bd      	mov	sp, r7
 8001192:	f85d 7b04 	ldr.w	r7, [sp], #4
 8001196:	4770      	bx	lr

08001198 <LL_ADC_SetOffsetSaturation>:
 8001198:	b480      	push	{r7}
 800119a:	b087      	sub	sp, #28
 800119c:	af00      	add	r7, sp, #0
 800119e:	60f8      	str	r0, [r7, #12]
 80011a0:	60b9      	str	r1, [r7, #8]
 80011a2:	607a      	str	r2, [r7, #4]
 80011a4:	68fb      	ldr	r3, [r7, #12]
 80011a6:	3360      	adds	r3, #96	@ 0x60
 80011a8:	461a      	mov	r2, r3
 80011aa:	68bb      	ldr	r3, [r7, #8]
 80011ac:	009b      	lsls	r3, r3, #2
 80011ae:	4413      	add	r3, r2
 80011b0:	617b      	str	r3, [r7, #20]
 80011b2:	697b      	ldr	r3, [r7, #20]
 80011b4:	681b      	ldr	r3, [r3, #0]
 80011b6:	f023 7200 	bic.w	r2, r3, #33554432	@ 0x2000000
 80011ba:	687b      	ldr	r3, [r7, #4]
 80011bc:	431a      	orrs	r2, r3
 80011be:	697b      	ldr	r3, [r7, #20]
 80011c0:	601a      	str	r2, [r3, #0]
 80011c2:	bf00      	nop
 80011c4:	371c      	adds	r7, #28
 80011c6:	46bd      	mov	sp, r7
 80011c8:	f85d 7b04 	ldr.w	r7, [sp], #4
 80011cc:	4770      	bx	lr

080011ce <LL_ADC_SetSamplingTimeCommonConfig>:
 80011ce:	b480      	push	{r7}
 80011d0:	b083      	sub	sp, #12
 80011d2:	af00      	add	r7, sp, #0
 80011d4:	6078      	str	r0, [r7, #4]
 80011d6:	6039      	str	r1, [r7, #0]
 80011d8:	687b      	ldr	r3, [r7, #4]
 80011da:	695b      	ldr	r3, [r3, #20]
 80011dc:	f023 4200 	bic.w	r2, r3, #2147483648	@ 0x80000000
 80011e0:	683b      	ldr	r3, [r7, #0]
 80011e2:	431a      	orrs	r2, r3
 80011e4:	687b      	ldr	r3, [r7, #4]
 80011e6:	615a      	str	r2, [r3, #20]
 80011e8:	bf00      	nop
 80011ea:	370c      	adds	r7, #12
 80011ec:	46bd      	mov	sp, r7
 80011ee:	f85d 7b04 	ldr.w	r7, [sp], #4
 80011f2:	4770      	bx	lr

080011f4 <LL_ADC_REG_IsTriggerSourceSWStart>:
 80011f4:	b480      	push	{r7}
 80011f6:	b083      	sub	sp, #12
 80011f8:	af00      	add	r7, sp, #0
 80011fa:	6078      	str	r0, [r7, #4]
 80011fc:	687b      	ldr	r3, [r7, #4]
 80011fe:	68db      	ldr	r3, [r3, #12]
 8001200:	f403 6340 	and.w	r3, r3, #3072	@ 0xc00
 8001204:	2b00      	cmp	r3, #0
 8001206:	d101      	bne.n	800120c <LL_ADC_REG_IsTriggerSourceSWStart+0x18>
 8001208:	2301      	movs	r3, #1
 800120a:	e000      	b.n	800120e <LL_ADC_REG_IsTriggerSourceSWStart+0x1a>
 800120c:	2300      	movs	r3, #0
 800120e:	4618      	mov	r0, r3
 8001210:	370c      	adds	r7, #12
 8001212:	46bd      	mov	sp, r7
 8001214:	f85d 7b04 	ldr.w	r7, [sp], #4
 8001218:	4770      	bx	lr

0800121a <LL_ADC_REG_SetSequencerRanks>:
 800121a:	b480      	push	{r7}
 800121c:	b087      	sub	sp, #28
 800121e:	af00      	add	r7, sp, #0
 8001220:	60f8      	str	r0, [r7, #12]
 8001222:	60b9      	str	r1, [r7, #8]
 8001224:	607a      	str	r2, [r7, #4]
 8001226:	68fb      	ldr	r3, [r7, #12]
 8001228:	3330      	adds	r3, #48	@ 0x30
 800122a:	461a      	mov	r2, r3
 800122c:	68bb      	ldr	r3, [r7, #8]
 800122e:	0a1b      	lsrs	r3, r3, #8
 8001230:	009b      	lsls	r3, r3, #2
 8001232:	f003 030c 	and.w	r3, r3, #12
 8001236:	4413      	add	r3, r2
 8001238:	617b      	str	r3, [r7, #20]
 800123a:	697b      	ldr	r3, [r7, #20]
 800123c:	681a      	ldr	r2, [r3, #0]
 800123e:	68bb      	ldr	r3, [r7, #8]
 8001240:	f003 031f 	and.w	r3, r3, #31
 8001244:	211f      	movs	r1, #31
 8001246:	fa01 f303 	lsl.w	r3, r1, r3
 800124a:	43db      	mvns	r3, r3
 800124c:	401a      	ands	r2, r3
 800124e:	687b      	ldr	r3, [r7, #4]
 8001250:	0e9b      	lsrs	r3, r3, #26
 8001252:	f003 011f 	and.w	r1, r3, #31
 8001256:	68bb      	ldr	r3, [r7, #8]
 8001258:	f003 031f 	and.w	r3, r3, #31
 800125c:	fa01 f303 	lsl.w	r3, r1, r3
 8001260:	431a      	orrs	r2, r3
 8001262:	697b      	ldr	r3, [r7, #20]
 8001264:	601a      	str	r2, [r3, #0]
 8001266:	bf00      	nop
 8001268:	371c      	adds	r7, #28
 800126a:	46bd      	mov	sp, r7
 800126c:	f85d 7b04 	ldr.w	r7, [sp], #4
 8001270:	4770      	bx	lr

08001272 <LL_ADC_SetChannelSamplingTime>:
 8001272:	b480      	push	{r7}
 8001274:	b087      	sub	sp, #28
 8001276:	af00      	add	r7, sp, #0
 8001278:	60f8      	str	r0, [r7, #12]
 800127a:	60b9      	str	r1, [r7, #8]
 800127c:	607a      	str	r2, [r7, #4]
 800127e:	68fb      	ldr	r3, [r7, #12]
 8001280:	3314      	adds	r3, #20
 8001282:	461a      	mov	r2, r3
 8001284:	68bb      	ldr	r3, [r7, #8]
 8001286:	0e5b      	lsrs	r3, r3, #25
 8001288:	009b      	lsls	r3, r3, #2
 800128a:	f003 0304 	and.w	r3, r3, #4
 800128e:	4413      	add	r3, r2
 8001290:	617b      	str	r3, [r7, #20]
 8001292:	697b      	ldr	r3, [r7, #20]
 8001294:	681a      	ldr	r2, [r3, #0]
 8001296:	68bb      	ldr	r3, [r7, #8]
 8001298:	0d1b      	lsrs	r3, r3, #20
 800129a:	f003 031f 	and.w	r3, r3, #31
 800129e:	2107      	movs	r1, #7
 80012a0:	fa01 f303 	lsl.w	r3, r1, r3
 80012a4:	43db      	mvns	r3, r3
 80012a6:	401a      	ands	r2, r3
 80012a8:	68bb      	ldr	r3, [r7, #8]
 80012aa:	0d1b      	lsrs	r3, r3, #20
 80012ac:	f003 031f 	and.w	r3, r3, #31
 80012b0:	6879      	ldr	r1, [r7, #4]
 80012b2:	fa01 f303 	lsl.w	r3, r1, r3
 80012b6:	431a      	orrs	r2, r3
 80012b8:	697b      	ldr	r3, [r7, #20]
 80012ba:	601a      	str	r2, [r3, #0]
 80012bc:	bf00      	nop
 80012be:	371c      	adds	r7, #28
 80012c0:	46bd      	mov	sp, r7
 80012c2:	f85d 7b04 	ldr.w	r7, [sp], #4
 80012c6:	4770      	bx	lr

080012c8 <LL_ADC_SetChannelSingleDiff>:
 80012c8:	b480      	push	{r7}
 80012ca:	b085      	sub	sp, #20
 80012cc:	af00      	add	r7, sp, #0
 80012ce:	60f8      	str	r0, [r7, #12]
 80012d0:	60b9      	str	r1, [r7, #8]
 80012d2:	607a      	str	r2, [r7, #4]
 80012d4:	68fb      	ldr	r3, [r7, #12]
 80012d6:	f8d3 20b0 	ldr.w	r2, [r3, #176]	@ 0xb0
 80012da:	68bb      	ldr	r3, [r7, #8]
 80012dc:	f3c3 0312 	ubfx	r3, r3, #0, #19
 80012e0:	43db      	mvns	r3, r3
 80012e2:	401a      	ands	r2, r3
 80012e4:	687b      	ldr	r3, [r7, #4]
 80012e6:	f003 0318 	and.w	r3, r3, #24
 80012ea:	4908      	ldr	r1, [pc, #32]	@ (800130c <LL_ADC_SetChannelSingleDiff+0x44>)
 80012ec:	40d9      	lsrs	r1, r3
 80012ee:	68bb      	ldr	r3, [r7, #8]
 80012f0:	400b      	ands	r3, r1
 80012f2:	f3c3 0312 	ubfx	r3, r3, #0, #19
 80012f6:	431a      	orrs	r2, r3
 80012f8:	68fb      	ldr	r3, [r7, #12]
 80012fa:	f8c3 20b0 	str.w	r2, [r3, #176]	@ 0xb0
 80012fe:	bf00      	nop
 8001300:	3714      	adds	r7, #20
 8001302:	46bd      	mov	sp, r7
 8001304:	f85d 7b04 	ldr.w	r7, [sp], #4
 8001308:	4770      	bx	lr
 800130a:	bf00      	nop
 800130c:	0007ffff 	.word	0x0007ffff

08001310 <LL_ADC_GetMultimode>:
 8001310:	b480      	push	{r7}
 8001312:	b083      	sub	sp, #12
 8001314:	af00      	add	r7, sp, #0
 8001316:	6078      	str	r0, [r7, #4]
 8001318:	687b      	ldr	r3, [r7, #4]
 800131a:	689b      	ldr	r3, [r3, #8]
 800131c:	f003 031f 	and.w	r3, r3, #31
 8001320:	4618      	mov	r0, r3
 8001322:	370c      	adds	r7, #12
 8001324:	46bd      	mov	sp, r7
 8001326:	f85d 7b04 	ldr.w	r7, [sp], #4
 800132a:	4770      	bx	lr

0800132c <LL_ADC_GetMultiDMATransfer>:
 800132c:	b480      	push	{r7}
 800132e:	b083      	sub	sp, #12
 8001330:	af00      	add	r7, sp, #0
 8001332:	6078      	str	r0, [r7, #4]
 8001334:	687b      	ldr	r3, [r7, #4]
 8001336:	689b      	ldr	r3, [r3, #8]
 8001338:	f403 4360 	and.w	r3, r3, #57344	@ 0xe000
 800133c:	4618      	mov	r0, r3
 800133e:	370c      	adds	r7, #12
 8001340:	46bd      	mov	sp, r7
 8001342:	f85d 7b04 	ldr.w	r7, [sp], #4
 8001346:	4770      	bx	lr

08001348 <LL_ADC_DisableDeepPowerDown>:
 8001348:	b480      	push	{r7}
 800134a:	b083      	sub	sp, #12
 800134c:	af00      	add	r7, sp, #0
 800134e:	6078      	str	r0, [r7, #4]
 8001350:	687b      	ldr	r3, [r7, #4]
 8001352:	689b      	ldr	r3, [r3, #8]
 8001354:	f023 4320 	bic.w	r3, r3, #2684354560	@ 0xa0000000
 8001358:	f023 033f 	bic.w	r3, r3, #63	@ 0x3f
 800135c:	687a      	ldr	r2, [r7, #4]
 800135e:	6093      	str	r3, [r2, #8]
 8001360:	bf00      	nop
 8001362:	370c      	adds	r7, #12
 8001364:	46bd      	mov	sp, r7
 8001366:	f85d 7b04 	ldr.w	r7, [sp], #4
 800136a:	4770      	bx	lr

0800136c <LL_ADC_IsDeepPowerDownEnabled>:
 800136c:	b480      	push	{r7}
 800136e:	b083      	sub	sp, #12
 8001370:	af00      	add	r7, sp, #0
 8001372:	6078      	str	r0, [r7, #4]
 8001374:	687b      	ldr	r3, [r7, #4]
 8001376:	689b      	ldr	r3, [r3, #8]
 8001378:	f003 5300 	and.w	r3, r3, #536870912	@ 0x20000000
 800137c:	f1b3 5f00 	cmp.w	r3, #536870912	@ 0x20000000
 8001380:	d101      	bne.n	8001386 <LL_ADC_IsDeepPowerDownEnabled+0x1a>
 8001382:	2301      	movs	r3, #1
 8001384:	e000      	b.n	8001388 <LL_ADC_IsDeepPowerDownEnabled+0x1c>
 8001386:	2300      	movs	r3, #0
 8001388:	4618      	mov	r0, r3
 800138a:	370c      	adds	r7, #12
 800138c:	46bd      	mov	sp, r7
 800138e:	f85d 7b04 	ldr.w	r7, [sp], #4
 8001392:	4770      	bx	lr

08001394 <LL_ADC_EnableInternalRegulator>:
 8001394:	b480      	push	{r7}
 8001396:	b083      	sub	sp, #12
 8001398:	af00      	add	r7, sp, #0
 800139a:	6078      	str	r0, [r7, #4]
 800139c:	687b      	ldr	r3, [r7, #4]
 800139e:	689b      	ldr	r3, [r3, #8]
 80013a0:	f023 4310 	bic.w	r3, r3, #2415919104	@ 0x90000000
 80013a4:	f023 033f 	bic.w	r3, r3, #63	@ 0x3f
 80013a8:	f043 5280 	orr.w	r2, r3, #268435456	@ 0x10000000
 80013ac:	687b      	ldr	r3, [r7, #4]
 80013ae:	609a      	str	r2, [r3, #8]
 80013b0:	bf00      	nop
 80013b2:	370c      	adds	r7, #12
 80013b4:	46bd      	mov	sp, r7
 80013b6:	f85d 7b04 	ldr.w	r7, [sp], #4
 80013ba:	4770      	bx	lr

080013bc <LL_ADC_IsInternalRegulatorEnabled>:
 80013bc:	b480      	push	{r7}
 80013be:	b083      	sub	sp, #12
 80013c0:	af00      	add	r7, sp, #0
 80013c2:	6078      	str	r0, [r7, #4]
 80013c4:	687b      	ldr	r3, [r7, #4]
 80013c6:	689b      	ldr	r3, [r3, #8]
 80013c8:	f003 5380 	and.w	r3, r3, #268435456	@ 0x10000000
 80013cc:	f1b3 5f80 	cmp.w	r3, #268435456	@ 0x10000000
 80013d0:	d101      	bne.n	80013d6 <LL_ADC_IsInternalRegulatorEnabled+0x1a>
 80013d2:	2301      	movs	r3, #1
 80013d4:	e000      	b.n	80013d8 <LL_ADC_IsInternalRegulatorEnabled+0x1c>
 80013d6:	2300      	movs	r3, #0
 80013d8:	4618      	mov	r0, r3
 80013da:	370c      	adds	r7, #12
 80013dc:	46bd      	mov	sp, r7
 80013de:	f85d 7b04 	ldr.w	r7, [sp], #4
 80013e2:	4770      	bx	lr

080013e4 <LL_ADC_Enable>:
 80013e4:	b480      	push	{r7}
 80013e6:	b083      	sub	sp, #12
 80013e8:	af00      	add	r7, sp, #0
 80013ea:	6078      	str	r0, [r7, #4]
 80013ec:	687b      	ldr	r3, [r7, #4]
 80013ee:	689b      	ldr	r3, [r3, #8]
 80013f0:	f023 4300 	bic.w	r3, r3, #2147483648	@ 0x80000000
 80013f4:	f023 033f 	bic.w	r3, r3, #63	@ 0x3f
 80013f8:	f043 0201 	orr.w	r2, r3, #1
 80013fc:	687b      	ldr	r3, [r7, #4]
 80013fe:	609a      	str	r2, [r3, #8]
 8001400:	bf00      	nop
 8001402:	370c      	adds	r7, #12
 8001404:	46bd      	mov	sp, r7
 8001406:	f85d 7b04 	ldr.w	r7, [sp], #4
 800140a:	4770      	bx	lr

0800140c <LL_ADC_Disable>:
 800140c:	b480      	push	{r7}
 800140e:	b083      	sub	sp, #12
 8001410:	af00      	add	r7, sp, #0
 8001412:	6078      	str	r0, [r7, #4]
 8001414:	687b      	ldr	r3, [r7, #4]
 8001416:	689b      	ldr	r3, [r3, #8]
 8001418:	f023 4300 	bic.w	r3, r3, #2147483648	@ 0x80000000
 800141c:	f023 033f 	bic.w	r3, r3, #63	@ 0x3f
 8001420:	f043 0202 	orr.w	r2, r3, #2
 8001424:	687b      	ldr	r3, [r7, #4]
 8001426:	609a      	str	r2, [r3, #8]
 8001428:	bf00      	nop
 800142a:	370c      	adds	r7, #12
 800142c:	46bd      	mov	sp, r7
 800142e:	f85d 7b04 	ldr.w	r7, [sp], #4
 8001432:	4770      	bx	lr

08001434 <LL_ADC_IsEnabled>:
 8001434:	b480      	push	{r7}
 8001436:	b083      	sub	sp, #12
 8001438:	af00      	add	r7, sp, #0
 800143a:	6078      	str	r0, [r7, #4]
 800143c:	687b      	ldr	r3, [r7, #4]
 800143e:	689b      	ldr	r3, [r3, #8]
 8001440:	f003 0301 	and.w	r3, r3, #1
 8001444:	2b01      	cmp	r3, #1
 8001446:	d101      	bne.n	800144c <LL_ADC_IsEnabled+0x18>
 8001448:	2301      	movs	r3, #1
 800144a:	e000      	b.n	800144e <LL_ADC_IsEnabled+0x1a>
 800144c:	2300      	movs	r3, #0
 800144e:	4618      	mov	r0, r3
 8001450:	370c      	adds	r7, #12
 8001452:	46bd      	mov	sp, r7
 8001454:	f85d 7b04 	ldr.w	r7, [sp], #4
 8001458:	4770      	bx	lr

0800145a <LL_ADC_IsDisableOngoing>:
 800145a:	b480      	push	{r7}
 800145c:	b083      	sub	sp, #12
 800145e:	af00      	add	r7, sp, #0
 8001460:	6078      	str	r0, [r7, #4]
 8001462:	687b      	ldr	r3, [r7, #4]
 8001464:	689b      	ldr	r3, [r3, #8]
 8001466:	f003 0302 	and.w	r3, r3, #2
 800146a:	2b02      	cmp	r3, #2
 800146c:	d101      	bne.n	8001472 <LL_ADC_IsDisableOngoing+0x18>
 800146e:	2301      	movs	r3, #1
 8001470:	e000      	b.n	8001474 <LL_ADC_IsDisableOngoing+0x1a>
 8001472:	2300      	movs	r3, #0
 8001474:	4618      	mov	r0, r3
 8001476:	370c      	adds	r7, #12
 8001478:	46bd      	mov	sp, r7
 800147a:	f85d 7b04 	ldr.w	r7, [sp], #4
 800147e:	4770      	bx	lr

08001480 <LL_ADC_REG_StartConversion>:
 8001480:	b480      	push	{r7}
 8001482:	b083      	sub	sp, #12
 8001484:	af00      	add	r7, sp, #0
 8001486:	6078      	str	r0, [r7, #4]
 8001488:	687b      	ldr	r3, [r7, #4]
 800148a:	689b      	ldr	r3, [r3, #8]
 800148c:	f023 4300 	bic.w	r3, r3, #2147483648	@ 0x80000000
 8001490:	f023 033f 	bic.w	r3, r3, #63	@ 0x3f
 8001494:	f043 0204 	orr.w	r2, r3, #4
 8001498:	687b      	ldr	r3, [r7, #4]
 800149a:	609a      	str	r2, [r3, #8]
 800149c:	bf00      	nop
 800149e:	370c      	adds	r7, #12
 80014a0:	46bd      	mov	sp, r7
 80014a2:	f85d 7b04 	ldr.w	r7, [sp], #4
 80014a6:	4770      	bx	lr

080014a8 <LL_ADC_REG_IsConversionOngoing>:
 80014a8:	b480      	push	{r7}
 80014aa:	b083      	sub	sp, #12
 80014ac:	af00      	add	r7, sp, #0
 80014ae:	6078      	str	r0, [r7, #4]
 80014b0:	687b      	ldr	r3, [r7, #4]
 80014b2:	689b      	ldr	r3, [r3, #8]
 80014b4:	f003 0304 	and.w	r3, r3, #4
 80014b8:	2b04      	cmp	r3, #4
 80014ba:	d101      	bne.n	80014c0 <LL_ADC_REG_IsConversionOngoing+0x18>
 80014bc:	2301      	movs	r3, #1
 80014be:	e000      	b.n	80014c2 <LL_ADC_REG_IsConversionOngoing+0x1a>
 80014c0:	2300      	movs	r3, #0
 80014c2:	4618      	mov	r0, r3
 80014c4:	370c      	adds	r7, #12
 80014c6:	46bd      	mov	sp, r7
 80014c8:	f85d 7b04 	ldr.w	r7, [sp], #4
 80014cc:	4770      	bx	lr

080014ce <LL_ADC_INJ_IsConversionOngoing>:
 80014ce:	b480      	push	{r7}
 80014d0:	b083      	sub	sp, #12
 80014d2:	af00      	add	r7, sp, #0
 80014d4:	6078      	str	r0, [r7, #4]
 80014d6:	687b      	ldr	r3, [r7, #4]
 80014d8:	689b      	ldr	r3, [r3, #8]
 80014da:	f003 0308 	and.w	r3, r3, #8
 80014de:	2b08      	cmp	r3, #8
 80014e0:	d101      	bne.n	80014e6 <LL_ADC_INJ_IsConversionOngoing+0x18>
 80014e2:	2301      	movs	r3, #1
 80014e4:	e000      	b.n	80014e8 <LL_ADC_INJ_IsConversionOngoing+0x1a>
 80014e6:	2300      	movs	r3, #0
 80014e8:	4618      	mov	r0, r3
 80014ea:	370c      	adds	r7, #12
 80014ec:	46bd      	mov	sp, r7
 80014ee:	f85d 7b04 	ldr.w	r7, [sp], #4
 80014f2:	4770      	bx	lr

080014f4 <HAL_ADC_Init>:
 80014f4:	b590      	push	{r4, r7, lr}
 80014f6:	b089      	sub	sp, #36	@ 0x24
 80014f8:	af00      	add	r7, sp, #0
 80014fa:	6078      	str	r0, [r7, #4]
 80014fc:	2300      	movs	r3, #0
 80014fe:	77fb      	strb	r3, [r7, #31]
 8001500:	2300      	movs	r3, #0
 8001502:	60fb      	str	r3, [r7, #12]
 8001504:	687b      	ldr	r3, [r7, #4]
 8001506:	2b00      	cmp	r3, #0
 8001508:	d101      	bne.n	800150e <HAL_ADC_Init+0x1a>
 800150a:	2301      	movs	r3, #1
 800150c:	e167      	b.n	80017de <HAL_ADC_Init+0x2ea>
 800150e:	687b      	ldr	r3, [r7, #4]
 8001510:	695b      	ldr	r3, [r3, #20]
 8001512:	2b00      	cmp	r3, #0
 8001514:	687b      	ldr	r3, [r7, #4]
 8001516:	6ddb      	ldr	r3, [r3, #92]	@ 0x5c
 8001518:	2b00      	cmp	r3, #0
 800151a:	d109      	bne.n	8001530 <HAL_ADC_Init+0x3c>
 800151c:	6878      	ldr	r0, [r7, #4]
 800151e:	f7ff f8bf 	bl	80006a0 <HAL_ADC_MspInit>
 8001522:	687b      	ldr	r3, [r7, #4]
 8001524:	2200      	movs	r2, #0
 8001526:	661a      	str	r2, [r3, #96]	@ 0x60
 8001528:	687b      	ldr	r3, [r7, #4]
 800152a:	2200      	movs	r2, #0
 800152c:	f883 2058 	strb.w	r2, [r3, #88]	@ 0x58
 8001530:	687b      	ldr	r3, [r7, #4]
 8001532:	681b      	ldr	r3, [r3, #0]
 8001534:	4618      	mov	r0, r3
 8001536:	f7ff ff19 	bl	800136c <LL_ADC_IsDeepPowerDownEnabled>
 800153a:	4603      	mov	r3, r0
 800153c:	2b00      	cmp	r3, #0
 800153e:	d004      	beq.n	800154a <HAL_ADC_Init+0x56>
 8001540:	687b      	ldr	r3, [r7, #4]
 8001542:	681b      	ldr	r3, [r3, #0]
 8001544:	4618      	mov	r0, r3
 8001546:	f7ff feff 	bl	8001348 <LL_ADC_DisableDeepPowerDown>
 800154a:	687b      	ldr	r3, [r7, #4]
 800154c:	681b      	ldr	r3, [r3, #0]
 800154e:	4618      	mov	r0, r3
 8001550:	f7ff ff34 	bl	80013bc <LL_ADC_IsInternalRegulatorEnabled>
 8001554:	4603      	mov	r3, r0
 8001556:	2b00      	cmp	r3, #0
 8001558:	d115      	bne.n	8001586 <HAL_ADC_Init+0x92>
 800155a:	687b      	ldr	r3, [r7, #4]
 800155c:	681b      	ldr	r3, [r3, #0]
 800155e:	4618      	mov	r0, r3
 8001560:	f7ff ff18 	bl	8001394 <LL_ADC_EnableInternalRegulator>
 8001564:	4ba0      	ldr	r3, [pc, #640]	@ (80017e8 <HAL_ADC_Init+0x2f4>)
 8001566:	681b      	ldr	r3, [r3, #0]
 8001568:	099b      	lsrs	r3, r3, #6
 800156a:	4aa0      	ldr	r2, [pc, #640]	@ (80017ec <HAL_ADC_Init+0x2f8>)
 800156c:	fba2 2303 	umull	r2, r3, r2, r3
 8001570:	099b      	lsrs	r3, r3, #6
 8001572:	3301      	adds	r3, #1
 8001574:	005b      	lsls	r3, r3, #1
 8001576:	60fb      	str	r3, [r7, #12]
 8001578:	e002      	b.n	8001580 <HAL_ADC_Init+0x8c>
 800157a:	68fb      	ldr	r3, [r7, #12]
 800157c:	3b01      	subs	r3, #1
 800157e:	60fb      	str	r3, [r7, #12]
 8001580:	68fb      	ldr	r3, [r7, #12]
 8001582:	2b00      	cmp	r3, #0
 8001584:	d1f9      	bne.n	800157a <HAL_ADC_Init+0x86>
 8001586:	687b      	ldr	r3, [r7, #4]
 8001588:	681b      	ldr	r3, [r3, #0]
 800158a:	4618      	mov	r0, r3
 800158c:	f7ff ff16 	bl	80013bc <LL_ADC_IsInternalRegulatorEnabled>
 8001590:	4603      	mov	r3, r0
 8001592:	2b00      	cmp	r3, #0
 8001594:	d10d      	bne.n	80015b2 <HAL_ADC_Init+0xbe>
 8001596:	687b      	ldr	r3, [r7, #4]
 8001598:	6ddb      	ldr	r3, [r3, #92]	@ 0x5c
 800159a:	f043 0210 	orr.w	r2, r3, #16
 800159e:	687b      	ldr	r3, [r7, #4]
 80015a0:	65da      	str	r2, [r3, #92]	@ 0x5c
 80015a2:	687b      	ldr	r3, [r7, #4]
 80015a4:	6e1b      	ldr	r3, [r3, #96]	@ 0x60
 80015a6:	f043 0201 	orr.w	r2, r3, #1
 80015aa:	687b      	ldr	r3, [r7, #4]
 80015ac:	661a      	str	r2, [r3, #96]	@ 0x60
 80015ae:	2301      	movs	r3, #1
 80015b0:	77fb      	strb	r3, [r7, #31]
 80015b2:	687b      	ldr	r3, [r7, #4]
 80015b4:	681b      	ldr	r3, [r3, #0]
 80015b6:	4618      	mov	r0, r3
 80015b8:	f7ff ff76 	bl	80014a8 <LL_ADC_REG_IsConversionOngoing>
 80015bc:	6178      	str	r0, [r7, #20]
 80015be:	687b      	ldr	r3, [r7, #4]
 80015c0:	6ddb      	ldr	r3, [r3, #92]	@ 0x5c
 80015c2:	f003 0310 	and.w	r3, r3, #16
 80015c6:	2b00      	cmp	r3, #0
 80015c8:	f040 8100 	bne.w	80017cc <HAL_ADC_Init+0x2d8>
 80015cc:	697b      	ldr	r3, [r7, #20]
 80015ce:	2b00      	cmp	r3, #0
 80015d0:	f040 80fc 	bne.w	80017cc <HAL_ADC_Init+0x2d8>
 80015d4:	687b      	ldr	r3, [r7, #4]
 80015d6:	6ddb      	ldr	r3, [r3, #92]	@ 0x5c
 80015d8:	f423 7381 	bic.w	r3, r3, #258	@ 0x102
 80015dc:	f043 0202 	orr.w	r2, r3, #2
 80015e0:	687b      	ldr	r3, [r7, #4]
 80015e2:	65da      	str	r2, [r3, #92]	@ 0x5c
 80015e4:	687b      	ldr	r3, [r7, #4]
 80015e6:	681b      	ldr	r3, [r3, #0]
 80015e8:	4618      	mov	r0, r3
 80015ea:	f7ff ff23 	bl	8001434 <LL_ADC_IsEnabled>
 80015ee:	4603      	mov	r3, r0
 80015f0:	2b00      	cmp	r3, #0
 80015f2:	d111      	bne.n	8001618 <HAL_ADC_Init+0x124>
 80015f4:	f04f 40a0 	mov.w	r0, #1342177280	@ 0x50000000
 80015f8:	f7ff ff1c 	bl	8001434 <LL_ADC_IsEnabled>
 80015fc:	4604      	mov	r4, r0
 80015fe:	487c      	ldr	r0, [pc, #496]	@ (80017f0 <HAL_ADC_Init+0x2fc>)
 8001600:	f7ff ff18 	bl	8001434 <LL_ADC_IsEnabled>
 8001604:	4603      	mov	r3, r0
 8001606:	4323      	orrs	r3, r4
 8001608:	2b00      	cmp	r3, #0
 800160a:	d105      	bne.n	8001618 <HAL_ADC_Init+0x124>
 800160c:	687b      	ldr	r3, [r7, #4]
 800160e:	685b      	ldr	r3, [r3, #4]
 8001610:	4619      	mov	r1, r3
 8001612:	4878      	ldr	r0, [pc, #480]	@ (80017f4 <HAL_ADC_Init+0x300>)
 8001614:	f7ff fd1c 	bl	8001050 <LL_ADC_SetCommonClock>
 8001618:	687b      	ldr	r3, [r7, #4]
 800161a:	7f5b      	ldrb	r3, [r3, #29]
 800161c:	035a      	lsls	r2, r3, #13
 800161e:	687b      	ldr	r3, [r7, #4]
 8001620:	6bdb      	ldr	r3, [r3, #60]	@ 0x3c
 8001622:	431a      	orrs	r2, r3
 8001624:	687b      	ldr	r3, [r7, #4]
 8001626:	68db      	ldr	r3, [r3, #12]
 8001628:	431a      	orrs	r2, r3
 800162a:	687b      	ldr	r3, [r7, #4]
 800162c:	689b      	ldr	r3, [r3, #8]
 800162e:	431a      	orrs	r2, r3
 8001630:	687b      	ldr	r3, [r7, #4]
 8001632:	f893 3024 	ldrb.w	r3, [r3, #36]	@ 0x24
 8001636:	041b      	lsls	r3, r3, #16
 8001638:	4313      	orrs	r3, r2
 800163a:	61bb      	str	r3, [r7, #24]
 800163c:	687b      	ldr	r3, [r7, #4]
 800163e:	f893 3024 	ldrb.w	r3, [r3, #36]	@ 0x24
 8001642:	2b01      	cmp	r3, #1
 8001644:	d106      	bne.n	8001654 <HAL_ADC_Init+0x160>
 8001646:	687b      	ldr	r3, [r7, #4]
 8001648:	6a9b      	ldr	r3, [r3, #40]	@ 0x28
 800164a:	3b01      	subs	r3, #1
 800164c:	045b      	lsls	r3, r3, #17
 800164e:	69ba      	ldr	r2, [r7, #24]
 8001650:	4313      	orrs	r3, r2
 8001652:	61bb      	str	r3, [r7, #24]
 8001654:	687b      	ldr	r3, [r7, #4]
 8001656:	6adb      	ldr	r3, [r3, #44]	@ 0x2c
 8001658:	2b00      	cmp	r3, #0
 800165a:	d009      	beq.n	8001670 <HAL_ADC_Init+0x17c>
 800165c:	687b      	ldr	r3, [r7, #4]
 800165e:	6adb      	ldr	r3, [r3, #44]	@ 0x2c
 8001660:	f403 7278 	and.w	r2, r3, #992	@ 0x3e0
 8001664:	687b      	ldr	r3, [r7, #4]
 8001666:	6b1b      	ldr	r3, [r3, #48]	@ 0x30
 8001668:	4313      	orrs	r3, r2
 800166a:	69ba      	ldr	r2, [r7, #24]
 800166c:	4313      	orrs	r3, r2
 800166e:	61bb      	str	r3, [r7, #24]
 8001670:	687b      	ldr	r3, [r7, #4]
 8001672:	681b      	ldr	r3, [r3, #0]
 8001674:	68da      	ldr	r2, [r3, #12]
 8001676:	4b60      	ldr	r3, [pc, #384]	@ (80017f8 <HAL_ADC_Init+0x304>)
 8001678:	4013      	ands	r3, r2
 800167a:	687a      	ldr	r2, [r7, #4]
 800167c:	6812      	ldr	r2, [r2, #0]
 800167e:	69b9      	ldr	r1, [r7, #24]
 8001680:	430b      	orrs	r3, r1
 8001682:	60d3      	str	r3, [r2, #12]
 8001684:	687b      	ldr	r3, [r7, #4]
 8001686:	681b      	ldr	r3, [r3, #0]
 8001688:	691b      	ldr	r3, [r3, #16]
 800168a:	f023 6140 	bic.w	r1, r3, #201326592	@ 0xc000000
 800168e:	687b      	ldr	r3, [r7, #4]
 8001690:	6b5a      	ldr	r2, [r3, #52]	@ 0x34
 8001692:	687b      	ldr	r3, [r7, #4]
 8001694:	681b      	ldr	r3, [r3, #0]
 8001696:	430a      	orrs	r2, r1
 8001698:	611a      	str	r2, [r3, #16]
 800169a:	687b      	ldr	r3, [r7, #4]
 800169c:	681b      	ldr	r3, [r3, #0]
 800169e:	4618      	mov	r0, r3
 80016a0:	f7ff ff15 	bl	80014ce <LL_ADC_INJ_IsConversionOngoing>
 80016a4:	6138      	str	r0, [r7, #16]
 80016a6:	697b      	ldr	r3, [r7, #20]
 80016a8:	2b00      	cmp	r3, #0
 80016aa:	d16d      	bne.n	8001788 <HAL_ADC_Init+0x294>
 80016ac:	693b      	ldr	r3, [r7, #16]
 80016ae:	2b00      	cmp	r3, #0
 80016b0:	d16a      	bne.n	8001788 <HAL_ADC_Init+0x294>
 80016b2:	687b      	ldr	r3, [r7, #4]
 80016b4:	7f1b      	ldrb	r3, [r3, #28]
 80016b6:	039a      	lsls	r2, r3, #14
 80016b8:	687b      	ldr	r3, [r7, #4]
 80016ba:	f893 3038 	ldrb.w	r3, [r3, #56]	@ 0x38
 80016be:	005b      	lsls	r3, r3, #1
 80016c0:	4313      	orrs	r3, r2
 80016c2:	61bb      	str	r3, [r7, #24]
 80016c4:	687b      	ldr	r3, [r7, #4]
 80016c6:	681b      	ldr	r3, [r3, #0]
 80016c8:	68db      	ldr	r3, [r3, #12]
 80016ca:	f423 4380 	bic.w	r3, r3, #16384	@ 0x4000
 80016ce:	f023 0302 	bic.w	r3, r3, #2
 80016d2:	687a      	ldr	r2, [r7, #4]
 80016d4:	6812      	ldr	r2, [r2, #0]
 80016d6:	69b9      	ldr	r1, [r7, #24]
 80016d8:	430b      	orrs	r3, r1
 80016da:	60d3      	str	r3, [r2, #12]
 80016dc:	687b      	ldr	r3, [r7, #4]
 80016de:	691b      	ldr	r3, [r3, #16]
 80016e0:	2b00      	cmp	r3, #0
 80016e2:	d017      	beq.n	8001714 <HAL_ADC_Init+0x220>
 80016e4:	687b      	ldr	r3, [r7, #4]
 80016e6:	681b      	ldr	r3, [r3, #0]
 80016e8:	691a      	ldr	r2, [r3, #16]
 80016ea:	687b      	ldr	r3, [r7, #4]
 80016ec:	681b      	ldr	r3, [r3, #0]
 80016ee:	f442 3280 	orr.w	r2, r2, #65536	@ 0x10000
 80016f2:	611a      	str	r2, [r3, #16]
 80016f4:	687b      	ldr	r3, [r7, #4]
 80016f6:	681b      	ldr	r3, [r3, #0]
 80016f8:	f8d3 30c0 	ldr.w	r3, [r3, #192]	@ 0xc0
 80016fc:	f423 537f 	bic.w	r3, r3, #16320	@ 0x3fc0
 8001700:	f023 033f 	bic.w	r3, r3, #63	@ 0x3f
 8001704:	687a      	ldr	r2, [r7, #4]
 8001706:	6911      	ldr	r1, [r2, #16]
 8001708:	687a      	ldr	r2, [r7, #4]
 800170a:	6812      	ldr	r2, [r2, #0]
 800170c:	430b      	orrs	r3, r1
 800170e:	f8c2 30c0 	str.w	r3, [r2, #192]	@ 0xc0
 8001712:	e013      	b.n	800173c <HAL_ADC_Init+0x248>
 8001714:	687b      	ldr	r3, [r7, #4]
 8001716:	681b      	ldr	r3, [r3, #0]
 8001718:	691a      	ldr	r2, [r3, #16]
 800171a:	687b      	ldr	r3, [r7, #4]
 800171c:	681b      	ldr	r3, [r3, #0]
 800171e:	f422 3280 	bic.w	r2, r2, #65536	@ 0x10000
 8001722:	611a      	str	r2, [r3, #16]
 8001724:	687b      	ldr	r3, [r7, #4]
 8001726:	681b      	ldr	r3, [r3, #0]
 8001728:	f8d3 30c0 	ldr.w	r3, [r3, #192]	@ 0xc0
 800172c:	687a      	ldr	r2, [r7, #4]
 800172e:	6812      	ldr	r2, [r2, #0]
 8001730:	f423 537f 	bic.w	r3, r3, #16320	@ 0x3fc0
 8001734:	f023 033f 	bic.w	r3, r3, #63	@ 0x3f
 8001738:	f8c2 30c0 	str.w	r3, [r2, #192]	@ 0xc0
 800173c:	687b      	ldr	r3, [r7, #4]
 800173e:	f893 3040 	ldrb.w	r3, [r3, #64]	@ 0x40
 8001742:	2b01      	cmp	r3, #1
 8001744:	d118      	bne.n	8001778 <HAL_ADC_Init+0x284>
 8001746:	687b      	ldr	r3, [r7, #4]
 8001748:	681b      	ldr	r3, [r3, #0]
 800174a:	691b      	ldr	r3, [r3, #16]
 800174c:	f423 63ff 	bic.w	r3, r3, #2040	@ 0x7f8
 8001750:	f023 0304 	bic.w	r3, r3, #4
 8001754:	687a      	ldr	r2, [r7, #4]
 8001756:	6c51      	ldr	r1, [r2, #68]	@ 0x44
 8001758:	687a      	ldr	r2, [r7, #4]
 800175a:	6c92      	ldr	r2, [r2, #72]	@ 0x48
 800175c:	4311      	orrs	r1, r2
 800175e:	687a      	ldr	r2, [r7, #4]
 8001760:	6cd2      	ldr	r2, [r2, #76]	@ 0x4c
 8001762:	4311      	orrs	r1, r2
 8001764:	687a      	ldr	r2, [r7, #4]
 8001766:	6d12      	ldr	r2, [r2, #80]	@ 0x50
 8001768:	430a      	orrs	r2, r1
 800176a:	431a      	orrs	r2, r3
 800176c:	687b      	ldr	r3, [r7, #4]
 800176e:	681b      	ldr	r3, [r3, #0]
 8001770:	f042 0201 	orr.w	r2, r2, #1
 8001774:	611a      	str	r2, [r3, #16]
 8001776:	e007      	b.n	8001788 <HAL_ADC_Init+0x294>
 8001778:	687b      	ldr	r3, [r7, #4]
 800177a:	681b      	ldr	r3, [r3, #0]
 800177c:	691a      	ldr	r2, [r3, #16]
 800177e:	687b      	ldr	r3, [r7, #4]
 8001780:	681b      	ldr	r3, [r3, #0]
 8001782:	f022 0201 	bic.w	r2, r2, #1
 8001786:	611a      	str	r2, [r3, #16]
 8001788:	687b      	ldr	r3, [r7, #4]
 800178a:	695b      	ldr	r3, [r3, #20]
 800178c:	2b01      	cmp	r3, #1
 800178e:	d10c      	bne.n	80017aa <HAL_ADC_Init+0x2b6>
 8001790:	687b      	ldr	r3, [r7, #4]
 8001792:	681b      	ldr	r3, [r3, #0]
 8001794:	6b1b      	ldr	r3, [r3, #48]	@ 0x30
 8001796:	f023 010f 	bic.w	r1, r3, #15
 800179a:	687b      	ldr	r3, [r7, #4]
 800179c:	6a1b      	ldr	r3, [r3, #32]
 800179e:	1e5a      	subs	r2, r3, #1
 80017a0:	687b      	ldr	r3, [r7, #4]
 80017a2:	681b      	ldr	r3, [r3, #0]
 80017a4:	430a      	orrs	r2, r1
 80017a6:	631a      	str	r2, [r3, #48]	@ 0x30
 80017a8:	e007      	b.n	80017ba <HAL_ADC_Init+0x2c6>
 80017aa:	687b      	ldr	r3, [r7, #4]
 80017ac:	681b      	ldr	r3, [r3, #0]
 80017ae:	6b1a      	ldr	r2, [r3, #48]	@ 0x30
 80017b0:	687b      	ldr	r3, [r7, #4]
 80017b2:	681b      	ldr	r3, [r3, #0]
 80017b4:	f022 020f 	bic.w	r2, r2, #15
 80017b8:	631a      	str	r2, [r3, #48]	@ 0x30
 80017ba:	687b      	ldr	r3, [r7, #4]
 80017bc:	6ddb      	ldr	r3, [r3, #92]	@ 0x5c
 80017be:	f023 0303 	bic.w	r3, r3, #3
 80017c2:	f043 0201 	orr.w	r2, r3, #1
 80017c6:	687b      	ldr	r3, [r7, #4]
 80017c8:	65da      	str	r2, [r3, #92]	@ 0x5c
 80017ca:	e007      	b.n	80017dc <HAL_ADC_Init+0x2e8>
 80017cc:	687b      	ldr	r3, [r7, #4]
 80017ce:	6ddb      	ldr	r3, [r3, #92]	@ 0x5c
 80017d0:	f043 0210 	orr.w	r2, r3, #16
 80017d4:	687b      	ldr	r3, [r7, #4]
 80017d6:	65da      	str	r2, [r3, #92]	@ 0x5c
 80017d8:	2301      	movs	r3, #1
 80017da:	77fb      	strb	r3, [r7, #31]
 80017dc:	7ffb      	ldrb	r3, [r7, #31]
 80017de:	4618      	mov	r0, r3
 80017e0:	3724      	adds	r7, #36	@ 0x24
 80017e2:	46bd      	mov	sp, r7
 80017e4:	bd90      	pop	{r4, r7, pc}
 80017e6:	bf00      	nop
 80017e8:	20000000 	.word	0x20000000
 80017ec:	053e2d63 	.word	0x053e2d63
 80017f0:	50000100 	.word	0x50000100
 80017f4:	50000300 	.word	0x50000300
 80017f8:	fff04007 	.word	0xfff04007

080017fc <HAL_ADC_Start>:
 80017fc:	b580      	push	{r7, lr}
 80017fe:	b086      	sub	sp, #24
 8001800:	af00      	add	r7, sp, #0
 8001802:	6078      	str	r0, [r7, #4]
 8001804:	4859      	ldr	r0, [pc, #356]	@ (800196c <HAL_ADC_Start+0x170>)
 8001806:	f7ff fd83 	bl	8001310 <LL_ADC_GetMultimode>
 800180a:	6138      	str	r0, [r7, #16]
 800180c:	687b      	ldr	r3, [r7, #4]
 800180e:	681b      	ldr	r3, [r3, #0]
 8001810:	4618      	mov	r0, r3
 8001812:	f7ff fe49 	bl	80014a8 <LL_ADC_REG_IsConversionOngoing>
 8001816:	4603      	mov	r3, r0
 8001818:	2b00      	cmp	r3, #0
 800181a:	f040 809f 	bne.w	800195c <HAL_ADC_Start+0x160>
 800181e:	687b      	ldr	r3, [r7, #4]
 8001820:	f893 3058 	ldrb.w	r3, [r3, #88]	@ 0x58
 8001824:	2b01      	cmp	r3, #1
 8001826:	d101      	bne.n	800182c <HAL_ADC_Start+0x30>
 8001828:	2302      	movs	r3, #2
 800182a:	e09a      	b.n	8001962 <HAL_ADC_Start+0x166>
 800182c:	687b      	ldr	r3, [r7, #4]
 800182e:	2201      	movs	r2, #1
 8001830:	f883 2058 	strb.w	r2, [r3, #88]	@ 0x58
 8001834:	6878      	ldr	r0, [r7, #4]
 8001836:	f000 fd73 	bl	8002320 <ADC_Enable>
 800183a:	4603      	mov	r3, r0
 800183c:	75fb      	strb	r3, [r7, #23]
 800183e:	7dfb      	ldrb	r3, [r7, #23]
 8001840:	2b00      	cmp	r3, #0
 8001842:	f040 8086 	bne.w	8001952 <HAL_ADC_Start+0x156>
 8001846:	687b      	ldr	r3, [r7, #4]
 8001848:	6ddb      	ldr	r3, [r3, #92]	@ 0x5c
 800184a:	f423 6370 	bic.w	r3, r3, #3840	@ 0xf00
 800184e:	f023 0301 	bic.w	r3, r3, #1
 8001852:	f443 7280 	orr.w	r2, r3, #256	@ 0x100
 8001856:	687b      	ldr	r3, [r7, #4]
 8001858:	65da      	str	r2, [r3, #92]	@ 0x5c
 800185a:	687b      	ldr	r3, [r7, #4]
 800185c:	681b      	ldr	r3, [r3, #0]
 800185e:	4a44      	ldr	r2, [pc, #272]	@ (8001970 <HAL_ADC_Start+0x174>)
 8001860:	4293      	cmp	r3, r2
 8001862:	d002      	beq.n	800186a <HAL_ADC_Start+0x6e>
 8001864:	687b      	ldr	r3, [r7, #4]
 8001866:	681b      	ldr	r3, [r3, #0]
 8001868:	e001      	b.n	800186e <HAL_ADC_Start+0x72>
 800186a:	f04f 43a0 	mov.w	r3, #1342177280	@ 0x50000000
 800186e:	687a      	ldr	r2, [r7, #4]
 8001870:	6812      	ldr	r2, [r2, #0]
 8001872:	4293      	cmp	r3, r2
 8001874:	d002      	beq.n	800187c <HAL_ADC_Start+0x80>
 8001876:	693b      	ldr	r3, [r7, #16]
 8001878:	2b00      	cmp	r3, #0
 800187a:	d105      	bne.n	8001888 <HAL_ADC_Start+0x8c>
 800187c:	687b      	ldr	r3, [r7, #4]
 800187e:	6ddb      	ldr	r3, [r3, #92]	@ 0x5c
 8001880:	f423 1280 	bic.w	r2, r3, #1048576	@ 0x100000
 8001884:	687b      	ldr	r3, [r7, #4]
 8001886:	65da      	str	r2, [r3, #92]	@ 0x5c
 8001888:	687b      	ldr	r3, [r7, #4]
 800188a:	6ddb      	ldr	r3, [r3, #92]	@ 0x5c
 800188c:	f403 5380 	and.w	r3, r3, #4096	@ 0x1000
 8001890:	f5b3 5f80 	cmp.w	r3, #4096	@ 0x1000
 8001894:	d106      	bne.n	80018a4 <HAL_ADC_Start+0xa8>
 8001896:	687b      	ldr	r3, [r7, #4]
 8001898:	6e1b      	ldr	r3, [r3, #96]	@ 0x60
 800189a:	f023 0206 	bic.w	r2, r3, #6
 800189e:	687b      	ldr	r3, [r7, #4]
 80018a0:	661a      	str	r2, [r3, #96]	@ 0x60
 80018a2:	e002      	b.n	80018aa <HAL_ADC_Start+0xae>
 80018a4:	687b      	ldr	r3, [r7, #4]
 80018a6:	2200      	movs	r2, #0
 80018a8:	661a      	str	r2, [r3, #96]	@ 0x60
 80018aa:	687b      	ldr	r3, [r7, #4]
 80018ac:	681b      	ldr	r3, [r3, #0]
 80018ae:	221c      	movs	r2, #28
 80018b0:	601a      	str	r2, [r3, #0]
 80018b2:	687b      	ldr	r3, [r7, #4]
 80018b4:	2200      	movs	r2, #0
 80018b6:	f883 2058 	strb.w	r2, [r3, #88]	@ 0x58
 80018ba:	687b      	ldr	r3, [r7, #4]
 80018bc:	681b      	ldr	r3, [r3, #0]
 80018be:	4a2c      	ldr	r2, [pc, #176]	@ (8001970 <HAL_ADC_Start+0x174>)
 80018c0:	4293      	cmp	r3, r2
 80018c2:	d002      	beq.n	80018ca <HAL_ADC_Start+0xce>
 80018c4:	687b      	ldr	r3, [r7, #4]
 80018c6:	681b      	ldr	r3, [r3, #0]
 80018c8:	e001      	b.n	80018ce <HAL_ADC_Start+0xd2>
 80018ca:	f04f 43a0 	mov.w	r3, #1342177280	@ 0x50000000
 80018ce:	687a      	ldr	r2, [r7, #4]
 80018d0:	6812      	ldr	r2, [r2, #0]
 80018d2:	4293      	cmp	r3, r2
 80018d4:	d008      	beq.n	80018e8 <HAL_ADC_Start+0xec>
 80018d6:	693b      	ldr	r3, [r7, #16]
 80018d8:	2b00      	cmp	r3, #0
 80018da:	d005      	beq.n	80018e8 <HAL_ADC_Start+0xec>
 80018dc:	693b      	ldr	r3, [r7, #16]
 80018de:	2b05      	cmp	r3, #5
 80018e0:	d002      	beq.n	80018e8 <HAL_ADC_Start+0xec>
 80018e2:	693b      	ldr	r3, [r7, #16]
 80018e4:	2b09      	cmp	r3, #9
 80018e6:	d114      	bne.n	8001912 <HAL_ADC_Start+0x116>
 80018e8:	687b      	ldr	r3, [r7, #4]
 80018ea:	681b      	ldr	r3, [r3, #0]
 80018ec:	68db      	ldr	r3, [r3, #12]
 80018ee:	f003 7300 	and.w	r3, r3, #33554432	@ 0x2000000
 80018f2:	2b00      	cmp	r3, #0
 80018f4:	d007      	beq.n	8001906 <HAL_ADC_Start+0x10a>
 80018f6:	687b      	ldr	r3, [r7, #4]
 80018f8:	6ddb      	ldr	r3, [r3, #92]	@ 0x5c
 80018fa:	f423 5340 	bic.w	r3, r3, #12288	@ 0x3000
 80018fe:	f443 5280 	orr.w	r2, r3, #4096	@ 0x1000
 8001902:	687b      	ldr	r3, [r7, #4]
 8001904:	65da      	str	r2, [r3, #92]	@ 0x5c
 8001906:	687b      	ldr	r3, [r7, #4]
 8001908:	681b      	ldr	r3, [r3, #0]
 800190a:	4618      	mov	r0, r3
 800190c:	f7ff fdb8 	bl	8001480 <LL_ADC_REG_StartConversion>
 8001910:	e026      	b.n	8001960 <HAL_ADC_Start+0x164>
 8001912:	687b      	ldr	r3, [r7, #4]
 8001914:	6ddb      	ldr	r3, [r3, #92]	@ 0x5c
 8001916:	f443 1280 	orr.w	r2, r3, #1048576	@ 0x100000
 800191a:	687b      	ldr	r3, [r7, #4]
 800191c:	65da      	str	r2, [r3, #92]	@ 0x5c
 800191e:	687b      	ldr	r3, [r7, #4]
 8001920:	681b      	ldr	r3, [r3, #0]
 8001922:	4a13      	ldr	r2, [pc, #76]	@ (8001970 <HAL_ADC_Start+0x174>)
 8001924:	4293      	cmp	r3, r2
 8001926:	d002      	beq.n	800192e <HAL_ADC_Start+0x132>
 8001928:	687b      	ldr	r3, [r7, #4]
 800192a:	681b      	ldr	r3, [r3, #0]
 800192c:	e001      	b.n	8001932 <HAL_ADC_Start+0x136>
 800192e:	f04f 43a0 	mov.w	r3, #1342177280	@ 0x50000000
 8001932:	60fb      	str	r3, [r7, #12]
 8001934:	68fb      	ldr	r3, [r7, #12]
 8001936:	68db      	ldr	r3, [r3, #12]
 8001938:	f003 7300 	and.w	r3, r3, #33554432	@ 0x2000000
 800193c:	2b00      	cmp	r3, #0
 800193e:	d00f      	beq.n	8001960 <HAL_ADC_Start+0x164>
 8001940:	687b      	ldr	r3, [r7, #4]
 8001942:	6ddb      	ldr	r3, [r3, #92]	@ 0x5c
 8001944:	f423 5340 	bic.w	r3, r3, #12288	@ 0x3000
 8001948:	f443 5280 	orr.w	r2, r3, #4096	@ 0x1000
 800194c:	687b      	ldr	r3, [r7, #4]
 800194e:	65da      	str	r2, [r3, #92]	@ 0x5c
 8001950:	e006      	b.n	8001960 <HAL_ADC_Start+0x164>
 8001952:	687b      	ldr	r3, [r7, #4]
 8001954:	2200      	movs	r2, #0
 8001956:	f883 2058 	strb.w	r2, [r3, #88]	@ 0x58
 800195a:	e001      	b.n	8001960 <HAL_ADC_Start+0x164>
 800195c:	2302      	movs	r3, #2
 800195e:	75fb      	strb	r3, [r7, #23]
 8001960:	7dfb      	ldrb	r3, [r7, #23]
 8001962:	4618      	mov	r0, r3
 8001964:	3718      	adds	r7, #24
 8001966:	46bd      	mov	sp, r7
 8001968:	bd80      	pop	{r7, pc}
 800196a:	bf00      	nop
 800196c:	50000300 	.word	0x50000300
 8001970:	50000100 	.word	0x50000100

08001974 <HAL_ADC_PollForConversion>:
 8001974:	b580      	push	{r7, lr}
 8001976:	b088      	sub	sp, #32
 8001978:	af00      	add	r7, sp, #0
 800197a:	6078      	str	r0, [r7, #4]
 800197c:	6039      	str	r1, [r7, #0]
 800197e:	4867      	ldr	r0, [pc, #412]	@ (8001b1c <HAL_ADC_PollForConversion+0x1a8>)
 8001980:	f7ff fcc6 	bl	8001310 <LL_ADC_GetMultimode>
 8001984:	6178      	str	r0, [r7, #20]
 8001986:	687b      	ldr	r3, [r7, #4]
 8001988:	699b      	ldr	r3, [r3, #24]
 800198a:	2b08      	cmp	r3, #8
 800198c:	d102      	bne.n	8001994 <HAL_ADC_PollForConversion+0x20>
 800198e:	2308      	movs	r3, #8
 8001990:	61fb      	str	r3, [r7, #28]
 8001992:	e02a      	b.n	80019ea <HAL_ADC_PollForConversion+0x76>
 8001994:	697b      	ldr	r3, [r7, #20]
 8001996:	2b00      	cmp	r3, #0
 8001998:	d005      	beq.n	80019a6 <HAL_ADC_PollForConversion+0x32>
 800199a:	697b      	ldr	r3, [r7, #20]
 800199c:	2b05      	cmp	r3, #5
 800199e:	d002      	beq.n	80019a6 <HAL_ADC_PollForConversion+0x32>
 80019a0:	697b      	ldr	r3, [r7, #20]
 80019a2:	2b09      	cmp	r3, #9
 80019a4:	d111      	bne.n	80019ca <HAL_ADC_PollForConversion+0x56>
 80019a6:	687b      	ldr	r3, [r7, #4]
 80019a8:	681b      	ldr	r3, [r3, #0]
 80019aa:	68db      	ldr	r3, [r3, #12]
 80019ac:	f003 0301 	and.w	r3, r3, #1
 80019b0:	2b00      	cmp	r3, #0
 80019b2:	d007      	beq.n	80019c4 <HAL_ADC_PollForConversion+0x50>
 80019b4:	687b      	ldr	r3, [r7, #4]
 80019b6:	6ddb      	ldr	r3, [r3, #92]	@ 0x5c
 80019b8:	f043 0220 	orr.w	r2, r3, #32
 80019bc:	687b      	ldr	r3, [r7, #4]
 80019be:	65da      	str	r2, [r3, #92]	@ 0x5c
 80019c0:	2301      	movs	r3, #1
 80019c2:	e0a6      	b.n	8001b12 <HAL_ADC_PollForConversion+0x19e>
 80019c4:	2304      	movs	r3, #4
 80019c6:	61fb      	str	r3, [r7, #28]
 80019c8:	e00f      	b.n	80019ea <HAL_ADC_PollForConversion+0x76>
 80019ca:	4854      	ldr	r0, [pc, #336]	@ (8001b1c <HAL_ADC_PollForConversion+0x1a8>)
 80019cc:	f7ff fcae 	bl	800132c <LL_ADC_GetMultiDMATransfer>
 80019d0:	4603      	mov	r3, r0
 80019d2:	2b00      	cmp	r3, #0
 80019d4:	d007      	beq.n	80019e6 <HAL_ADC_PollForConversion+0x72>
 80019d6:	687b      	ldr	r3, [r7, #4]
 80019d8:	6ddb      	ldr	r3, [r3, #92]	@ 0x5c
 80019da:	f043 0220 	orr.w	r2, r3, #32
 80019de:	687b      	ldr	r3, [r7, #4]
 80019e0:	65da      	str	r2, [r3, #92]	@ 0x5c
 80019e2:	2301      	movs	r3, #1
 80019e4:	e095      	b.n	8001b12 <HAL_ADC_PollForConversion+0x19e>
 80019e6:	2304      	movs	r3, #4
 80019e8:	61fb      	str	r3, [r7, #28]
 80019ea:	f7ff fb03 	bl	8000ff4 <HAL_GetTick>
 80019ee:	6138      	str	r0, [r7, #16]
 80019f0:	e021      	b.n	8001a36 <HAL_ADC_PollForConversion+0xc2>
 80019f2:	683b      	ldr	r3, [r7, #0]
 80019f4:	f1b3 3fff 	cmp.w	r3, #4294967295	@ 0xffffffff
 80019f8:	d01d      	beq.n	8001a36 <HAL_ADC_PollForConversion+0xc2>
 80019fa:	f7ff fafb 	bl	8000ff4 <HAL_GetTick>
 80019fe:	4602      	mov	r2, r0
 8001a00:	693b      	ldr	r3, [r7, #16]
 8001a02:	1ad3      	subs	r3, r2, r3
 8001a04:	683a      	ldr	r2, [r7, #0]
 8001a06:	429a      	cmp	r2, r3
 8001a08:	d302      	bcc.n	8001a10 <HAL_ADC_PollForConversion+0x9c>
 8001a0a:	683b      	ldr	r3, [r7, #0]
 8001a0c:	2b00      	cmp	r3, #0
 8001a0e:	d112      	bne.n	8001a36 <HAL_ADC_PollForConversion+0xc2>
 8001a10:	687b      	ldr	r3, [r7, #4]
 8001a12:	681b      	ldr	r3, [r3, #0]
 8001a14:	681a      	ldr	r2, [r3, #0]
 8001a16:	69fb      	ldr	r3, [r7, #28]
 8001a18:	4013      	ands	r3, r2
 8001a1a:	2b00      	cmp	r3, #0
 8001a1c:	d10b      	bne.n	8001a36 <HAL_ADC_PollForConversion+0xc2>
 8001a1e:	687b      	ldr	r3, [r7, #4]
 8001a20:	6ddb      	ldr	r3, [r3, #92]	@ 0x5c
 8001a22:	f043 0204 	orr.w	r2, r3, #4
 8001a26:	687b      	ldr	r3, [r7, #4]
 8001a28:	65da      	str	r2, [r3, #92]	@ 0x5c
 8001a2a:	687b      	ldr	r3, [r7, #4]
 8001a2c:	2200      	movs	r2, #0
 8001a2e:	f883 2058 	strb.w	r2, [r3, #88]	@ 0x58
 8001a32:	2303      	movs	r3, #3
 8001a34:	e06d      	b.n	8001b12 <HAL_ADC_PollForConversion+0x19e>
 8001a36:	687b      	ldr	r3, [r7, #4]
 8001a38:	681b      	ldr	r3, [r3, #0]
 8001a3a:	681a      	ldr	r2, [r3, #0]
 8001a3c:	69fb      	ldr	r3, [r7, #28]
 8001a3e:	4013      	ands	r3, r2
 8001a40:	2b00      	cmp	r3, #0
 8001a42:	d0d6      	beq.n	80019f2 <HAL_ADC_PollForConversion+0x7e>
 8001a44:	687b      	ldr	r3, [r7, #4]
 8001a46:	6ddb      	ldr	r3, [r3, #92]	@ 0x5c
 8001a48:	f443 7200 	orr.w	r2, r3, #512	@ 0x200
 8001a4c:	687b      	ldr	r3, [r7, #4]
 8001a4e:	65da      	str	r2, [r3, #92]	@ 0x5c
 8001a50:	687b      	ldr	r3, [r7, #4]
 8001a52:	681b      	ldr	r3, [r3, #0]
 8001a54:	4618      	mov	r0, r3
 8001a56:	f7ff fbcd 	bl	80011f4 <LL_ADC_REG_IsTriggerSourceSWStart>
 8001a5a:	4603      	mov	r3, r0
 8001a5c:	2b00      	cmp	r3, #0
 8001a5e:	d01c      	beq.n	8001a9a <HAL_ADC_PollForConversion+0x126>
 8001a60:	687b      	ldr	r3, [r7, #4]
 8001a62:	7f5b      	ldrb	r3, [r3, #29]
 8001a64:	2b00      	cmp	r3, #0
 8001a66:	d118      	bne.n	8001a9a <HAL_ADC_PollForConversion+0x126>
 8001a68:	687b      	ldr	r3, [r7, #4]
 8001a6a:	681b      	ldr	r3, [r3, #0]
 8001a6c:	681b      	ldr	r3, [r3, #0]
 8001a6e:	f003 0308 	and.w	r3, r3, #8
 8001a72:	2b08      	cmp	r3, #8
 8001a74:	d111      	bne.n	8001a9a <HAL_ADC_PollForConversion+0x126>
 8001a76:	687b      	ldr	r3, [r7, #4]
 8001a78:	6ddb      	ldr	r3, [r3, #92]	@ 0x5c
 8001a7a:	f423 7280 	bic.w	r2, r3, #256	@ 0x100
 8001a7e:	687b      	ldr	r3, [r7, #4]
 8001a80:	65da      	str	r2, [r3, #92]	@ 0x5c
 8001a82:	687b      	ldr	r3, [r7, #4]
 8001a84:	6ddb      	ldr	r3, [r3, #92]	@ 0x5c
 8001a86:	f403 5380 	and.w	r3, r3, #4096	@ 0x1000
 8001a8a:	2b00      	cmp	r3, #0
 8001a8c:	d105      	bne.n	8001a9a <HAL_ADC_PollForConversion+0x126>
 8001a8e:	687b      	ldr	r3, [r7, #4]
 8001a90:	6ddb      	ldr	r3, [r3, #92]	@ 0x5c
 8001a92:	f043 0201 	orr.w	r2, r3, #1
 8001a96:	687b      	ldr	r3, [r7, #4]
 8001a98:	65da      	str	r2, [r3, #92]	@ 0x5c
 8001a9a:	687b      	ldr	r3, [r7, #4]
 8001a9c:	681b      	ldr	r3, [r3, #0]
 8001a9e:	4a20      	ldr	r2, [pc, #128]	@ (8001b20 <HAL_ADC_PollForConversion+0x1ac>)
 8001aa0:	4293      	cmp	r3, r2
 8001aa2:	d002      	beq.n	8001aaa <HAL_ADC_PollForConversion+0x136>
 8001aa4:	687b      	ldr	r3, [r7, #4]
 8001aa6:	681b      	ldr	r3, [r3, #0]
 8001aa8:	e001      	b.n	8001aae <HAL_ADC_PollForConversion+0x13a>
 8001aaa:	f04f 43a0 	mov.w	r3, #1342177280	@ 0x50000000
 8001aae:	687a      	ldr	r2, [r7, #4]
 8001ab0:	6812      	ldr	r2, [r2, #0]
 8001ab2:	4293      	cmp	r3, r2
 8001ab4:	d008      	beq.n	8001ac8 <HAL_ADC_PollForConversion+0x154>
 8001ab6:	697b      	ldr	r3, [r7, #20]
 8001ab8:	2b00      	cmp	r3, #0
 8001aba:	d005      	beq.n	8001ac8 <HAL_ADC_PollForConversion+0x154>
 8001abc:	697b      	ldr	r3, [r7, #20]
 8001abe:	2b05      	cmp	r3, #5
 8001ac0:	d002      	beq.n	8001ac8 <HAL_ADC_PollForConversion+0x154>
 8001ac2:	697b      	ldr	r3, [r7, #20]
 8001ac4:	2b09      	cmp	r3, #9
 8001ac6:	d104      	bne.n	8001ad2 <HAL_ADC_PollForConversion+0x15e>
 8001ac8:	687b      	ldr	r3, [r7, #4]
 8001aca:	681b      	ldr	r3, [r3, #0]
 8001acc:	68db      	ldr	r3, [r3, #12]
 8001ace:	61bb      	str	r3, [r7, #24]
 8001ad0:	e00d      	b.n	8001aee <HAL_ADC_PollForConversion+0x17a>
 8001ad2:	687b      	ldr	r3, [r7, #4]
 8001ad4:	681b      	ldr	r3, [r3, #0]
 8001ad6:	4a12      	ldr	r2, [pc, #72]	@ (8001b20 <HAL_ADC_PollForConversion+0x1ac>)
 8001ad8:	4293      	cmp	r3, r2
 8001ada:	d002      	beq.n	8001ae2 <HAL_ADC_PollForConversion+0x16e>
 8001adc:	687b      	ldr	r3, [r7, #4]
 8001ade:	681b      	ldr	r3, [r3, #0]
 8001ae0:	e001      	b.n	8001ae6 <HAL_ADC_PollForConversion+0x172>
 8001ae2:	f04f 43a0 	mov.w	r3, #1342177280	@ 0x50000000
 8001ae6:	60fb      	str	r3, [r7, #12]
 8001ae8:	68fb      	ldr	r3, [r7, #12]
 8001aea:	68db      	ldr	r3, [r3, #12]
 8001aec:	61bb      	str	r3, [r7, #24]
 8001aee:	69fb      	ldr	r3, [r7, #28]
 8001af0:	2b08      	cmp	r3, #8
 8001af2:	d104      	bne.n	8001afe <HAL_ADC_PollForConversion+0x18a>
 8001af4:	687b      	ldr	r3, [r7, #4]
 8001af6:	681b      	ldr	r3, [r3, #0]
 8001af8:	2208      	movs	r2, #8
 8001afa:	601a      	str	r2, [r3, #0]
 8001afc:	e008      	b.n	8001b10 <HAL_ADC_PollForConversion+0x19c>
 8001afe:	69bb      	ldr	r3, [r7, #24]
 8001b00:	f403 4380 	and.w	r3, r3, #16384	@ 0x4000
 8001b04:	2b00      	cmp	r3, #0
 8001b06:	d103      	bne.n	8001b10 <HAL_ADC_PollForConversion+0x19c>
 8001b08:	687b      	ldr	r3, [r7, #4]
 8001b0a:	681b      	ldr	r3, [r3, #0]
 8001b0c:	220c      	movs	r2, #12
 8001b0e:	601a      	str	r2, [r3, #0]
 8001b10:	2300      	movs	r3, #0
 8001b12:	4618      	mov	r0, r3
 8001b14:	3720      	adds	r7, #32
 8001b16:	46bd      	mov	sp, r7
 8001b18:	bd80      	pop	{r7, pc}
 8001b1a:	bf00      	nop
 8001b1c:	50000300 	.word	0x50000300
 8001b20:	50000100 	.word	0x50000100

08001b24 <HAL_ADC_GetValue>:
 8001b24:	b480      	push	{r7}
 8001b26:	b083      	sub	sp, #12
 8001b28:	af00      	add	r7, sp, #0
 8001b2a:	6078      	str	r0, [r7, #4]
 8001b2c:	687b      	ldr	r3, [r7, #4]
 8001b2e:	681b      	ldr	r3, [r3, #0]
 8001b30:	6c1b      	ldr	r3, [r3, #64]	@ 0x40
 8001b32:	4618      	mov	r0, r3
 8001b34:	370c      	adds	r7, #12
 8001b36:	46bd      	mov	sp, r7
 8001b38:	f85d 7b04 	ldr.w	r7, [sp], #4
 8001b3c:	4770      	bx	lr
	...

08001b40 <HAL_ADC_ConfigChannel>:
 8001b40:	b580      	push	{r7, lr}
 8001b42:	b0b6      	sub	sp, #216	@ 0xd8
 8001b44:	af00      	add	r7, sp, #0
 8001b46:	6078      	str	r0, [r7, #4]
 8001b48:	6039      	str	r1, [r7, #0]
 8001b4a:	2300      	movs	r3, #0
 8001b4c:	f887 30d7 	strb.w	r3, [r7, #215]	@ 0xd7
 8001b50:	2300      	movs	r3, #0
 8001b52:	60fb      	str	r3, [r7, #12]
 8001b54:	687b      	ldr	r3, [r7, #4]
 8001b56:	f893 3058 	ldrb.w	r3, [r3, #88]	@ 0x58
 8001b5a:	2b01      	cmp	r3, #1
 8001b5c:	d101      	bne.n	8001b62 <HAL_ADC_ConfigChannel+0x22>
 8001b5e:	2302      	movs	r3, #2
 8001b60:	e3c8      	b.n	80022f4 <HAL_ADC_ConfigChannel+0x7b4>
 8001b62:	687b      	ldr	r3, [r7, #4]
 8001b64:	2201      	movs	r2, #1
 8001b66:	f883 2058 	strb.w	r2, [r3, #88]	@ 0x58
 8001b6a:	687b      	ldr	r3, [r7, #4]
 8001b6c:	681b      	ldr	r3, [r3, #0]
 8001b6e:	4618      	mov	r0, r3
 8001b70:	f7ff fc9a 	bl	80014a8 <LL_ADC_REG_IsConversionOngoing>
 8001b74:	4603      	mov	r3, r0
 8001b76:	2b00      	cmp	r3, #0
 8001b78:	f040 83ad 	bne.w	80022d6 <HAL_ADC_ConfigChannel+0x796>
 8001b7c:	687b      	ldr	r3, [r7, #4]
 8001b7e:	6818      	ldr	r0, [r3, #0]
 8001b80:	683b      	ldr	r3, [r7, #0]
 8001b82:	6859      	ldr	r1, [r3, #4]
 8001b84:	683b      	ldr	r3, [r7, #0]
 8001b86:	681b      	ldr	r3, [r3, #0]
 8001b88:	461a      	mov	r2, r3
 8001b8a:	f7ff fb46 	bl	800121a <LL_ADC_REG_SetSequencerRanks>
 8001b8e:	687b      	ldr	r3, [r7, #4]
 8001b90:	681b      	ldr	r3, [r3, #0]
 8001b92:	4618      	mov	r0, r3
 8001b94:	f7ff fc88 	bl	80014a8 <LL_ADC_REG_IsConversionOngoing>
 8001b98:	f8c7 00d0 	str.w	r0, [r7, #208]	@ 0xd0
 8001b9c:	687b      	ldr	r3, [r7, #4]
 8001b9e:	681b      	ldr	r3, [r3, #0]
 8001ba0:	4618      	mov	r0, r3
 8001ba2:	f7ff fc94 	bl	80014ce <LL_ADC_INJ_IsConversionOngoing>
 8001ba6:	f8c7 00cc 	str.w	r0, [r7, #204]	@ 0xcc
 8001baa:	f8d7 30d0 	ldr.w	r3, [r7, #208]	@ 0xd0
 8001bae:	2b00      	cmp	r3, #0
 8001bb0:	f040 81d9 	bne.w	8001f66 <HAL_ADC_ConfigChannel+0x426>
 8001bb4:	f8d7 30cc 	ldr.w	r3, [r7, #204]	@ 0xcc
 8001bb8:	2b00      	cmp	r3, #0
 8001bba:	f040 81d4 	bne.w	8001f66 <HAL_ADC_ConfigChannel+0x426>
 8001bbe:	683b      	ldr	r3, [r7, #0]
 8001bc0:	689b      	ldr	r3, [r3, #8]
 8001bc2:	f1b3 4f00 	cmp.w	r3, #2147483648	@ 0x80000000
 8001bc6:	d10f      	bne.n	8001be8 <HAL_ADC_ConfigChannel+0xa8>
 8001bc8:	687b      	ldr	r3, [r7, #4]
 8001bca:	6818      	ldr	r0, [r3, #0]
 8001bcc:	683b      	ldr	r3, [r7, #0]
 8001bce:	681b      	ldr	r3, [r3, #0]
 8001bd0:	2200      	movs	r2, #0
 8001bd2:	4619      	mov	r1, r3
 8001bd4:	f7ff fb4d 	bl	8001272 <LL_ADC_SetChannelSamplingTime>
 8001bd8:	687b      	ldr	r3, [r7, #4]
 8001bda:	681b      	ldr	r3, [r3, #0]
 8001bdc:	f04f 4100 	mov.w	r1, #2147483648	@ 0x80000000
 8001be0:	4618      	mov	r0, r3
 8001be2:	f7ff faf4 	bl	80011ce <LL_ADC_SetSamplingTimeCommonConfig>
 8001be6:	e00e      	b.n	8001c06 <HAL_ADC_ConfigChannel+0xc6>
 8001be8:	687b      	ldr	r3, [r7, #4]
 8001bea:	6818      	ldr	r0, [r3, #0]
 8001bec:	683b      	ldr	r3, [r7, #0]
 8001bee:	6819      	ldr	r1, [r3, #0]
 8001bf0:	683b      	ldr	r3, [r7, #0]
 8001bf2:	689b      	ldr	r3, [r3, #8]
 8001bf4:	461a      	mov	r2, r3
 8001bf6:	f7ff fb3c 	bl	8001272 <LL_ADC_SetChannelSamplingTime>
 8001bfa:	687b      	ldr	r3, [r7, #4]
 8001bfc:	681b      	ldr	r3, [r3, #0]
 8001bfe:	2100      	movs	r1, #0
 8001c00:	4618      	mov	r0, r3
 8001c02:	f7ff fae4 	bl	80011ce <LL_ADC_SetSamplingTimeCommonConfig>
 8001c06:	683b      	ldr	r3, [r7, #0]
 8001c08:	695a      	ldr	r2, [r3, #20]
 8001c0a:	687b      	ldr	r3, [r7, #4]
 8001c0c:	681b      	ldr	r3, [r3, #0]
 8001c0e:	68db      	ldr	r3, [r3, #12]
 8001c10:	08db      	lsrs	r3, r3, #3
 8001c12:	f003 0303 	and.w	r3, r3, #3
 8001c16:	005b      	lsls	r3, r3, #1
 8001c18:	fa02 f303 	lsl.w	r3, r2, r3
 8001c1c:	f8c7 30c8 	str.w	r3, [r7, #200]	@ 0xc8
 8001c20:	683b      	ldr	r3, [r7, #0]
 8001c22:	691b      	ldr	r3, [r3, #16]
 8001c24:	2b04      	cmp	r3, #4
 8001c26:	d022      	beq.n	8001c6e <HAL_ADC_ConfigChannel+0x12e>
 8001c28:	687b      	ldr	r3, [r7, #4]
 8001c2a:	6818      	ldr	r0, [r3, #0]
 8001c2c:	683b      	ldr	r3, [r7, #0]
 8001c2e:	6919      	ldr	r1, [r3, #16]
 8001c30:	683b      	ldr	r3, [r7, #0]
 8001c32:	681a      	ldr	r2, [r3, #0]
 8001c34:	f8d7 30c8 	ldr.w	r3, [r7, #200]	@ 0xc8
 8001c38:	f7ff fa3e 	bl	80010b8 <LL_ADC_SetOffset>
 8001c3c:	687b      	ldr	r3, [r7, #4]
 8001c3e:	6818      	ldr	r0, [r3, #0]
 8001c40:	683b      	ldr	r3, [r7, #0]
 8001c42:	6919      	ldr	r1, [r3, #16]
 8001c44:	683b      	ldr	r3, [r7, #0]
 8001c46:	699b      	ldr	r3, [r3, #24]
 8001c48:	461a      	mov	r2, r3
 8001c4a:	f7ff fa8a 	bl	8001162 <LL_ADC_SetOffsetSign>
 8001c4e:	687b      	ldr	r3, [r7, #4]
 8001c50:	6818      	ldr	r0, [r3, #0]
 8001c52:	683b      	ldr	r3, [r7, #0]
 8001c54:	6919      	ldr	r1, [r3, #16]
 8001c56:	683b      	ldr	r3, [r7, #0]
 8001c58:	7f1b      	ldrb	r3, [r3, #28]
 8001c5a:	2b01      	cmp	r3, #1
 8001c5c:	d102      	bne.n	8001c64 <HAL_ADC_ConfigChannel+0x124>
 8001c5e:	f04f 7300 	mov.w	r3, #33554432	@ 0x2000000
 8001c62:	e000      	b.n	8001c66 <HAL_ADC_ConfigChannel+0x126>
 8001c64:	2300      	movs	r3, #0
 8001c66:	461a      	mov	r2, r3
 8001c68:	f7ff fa96 	bl	8001198 <LL_ADC_SetOffsetSaturation>
 8001c6c:	e17b      	b.n	8001f66 <HAL_ADC_ConfigChannel+0x426>
 8001c6e:	687b      	ldr	r3, [r7, #4]
 8001c70:	681b      	ldr	r3, [r3, #0]
 8001c72:	2100      	movs	r1, #0
 8001c74:	4618      	mov	r0, r3
 8001c76:	f7ff fa43 	bl	8001100 <LL_ADC_GetOffsetChannel>
 8001c7a:	4603      	mov	r3, r0
 8001c7c:	f3c3 0312 	ubfx	r3, r3, #0, #19
 8001c80:	2b00      	cmp	r3, #0
 8001c82:	d10a      	bne.n	8001c9a <HAL_ADC_ConfigChannel+0x15a>
 8001c84:	687b      	ldr	r3, [r7, #4]
 8001c86:	681b      	ldr	r3, [r3, #0]
 8001c88:	2100      	movs	r1, #0
 8001c8a:	4618      	mov	r0, r3
 8001c8c:	f7ff fa38 	bl	8001100 <LL_ADC_GetOffsetChannel>
 8001c90:	4603      	mov	r3, r0
 8001c92:	0e9b      	lsrs	r3, r3, #26
 8001c94:	f003 021f 	and.w	r2, r3, #31
 8001c98:	e01e      	b.n	8001cd8 <HAL_ADC_ConfigChannel+0x198>
 8001c9a:	687b      	ldr	r3, [r7, #4]
 8001c9c:	681b      	ldr	r3, [r3, #0]
 8001c9e:	2100      	movs	r1, #0
 8001ca0:	4618      	mov	r0, r3
 8001ca2:	f7ff fa2d 	bl	8001100 <LL_ADC_GetOffsetChannel>
 8001ca6:	4603      	mov	r3, r0
 8001ca8:	f8c7 30bc 	str.w	r3, [r7, #188]	@ 0xbc
 8001cac:	f8d7 30bc 	ldr.w	r3, [r7, #188]	@ 0xbc
 8001cb0:	fa93 f3a3 	rbit	r3, r3
 8001cb4:	f8c7 30b8 	str.w	r3, [r7, #184]	@ 0xb8
 8001cb8:	f8d7 30b8 	ldr.w	r3, [r7, #184]	@ 0xb8
 8001cbc:	f8c7 30c0 	str.w	r3, [r7, #192]	@ 0xc0
 8001cc0:	f8d7 30c0 	ldr.w	r3, [r7, #192]	@ 0xc0
 8001cc4:	2b00      	cmp	r3, #0
 8001cc6:	d101      	bne.n	8001ccc <HAL_ADC_ConfigChannel+0x18c>
 8001cc8:	2320      	movs	r3, #32
 8001cca:	e004      	b.n	8001cd6 <HAL_ADC_ConfigChannel+0x196>
 8001ccc:	f8d7 30c0 	ldr.w	r3, [r7, #192]	@ 0xc0
 8001cd0:	fab3 f383 	clz	r3, r3
 8001cd4:	b2db      	uxtb	r3, r3
 8001cd6:	461a      	mov	r2, r3
 8001cd8:	683b      	ldr	r3, [r7, #0]
 8001cda:	681b      	ldr	r3, [r3, #0]
 8001cdc:	f3c3 0312 	ubfx	r3, r3, #0, #19
 8001ce0:	2b00      	cmp	r3, #0
 8001ce2:	d105      	bne.n	8001cf0 <HAL_ADC_ConfigChannel+0x1b0>
 8001ce4:	683b      	ldr	r3, [r7, #0]
 8001ce6:	681b      	ldr	r3, [r3, #0]
 8001ce8:	0e9b      	lsrs	r3, r3, #26
 8001cea:	f003 031f 	and.w	r3, r3, #31
 8001cee:	e018      	b.n	8001d22 <HAL_ADC_ConfigChannel+0x1e2>
 8001cf0:	683b      	ldr	r3, [r7, #0]
 8001cf2:	681b      	ldr	r3, [r3, #0]
 8001cf4:	f8c7 30b0 	str.w	r3, [r7, #176]	@ 0xb0
 8001cf8:	f8d7 30b0 	ldr.w	r3, [r7, #176]	@ 0xb0
 8001cfc:	fa93 f3a3 	rbit	r3, r3
 8001d00:	f8c7 30ac 	str.w	r3, [r7, #172]	@ 0xac
 8001d04:	f8d7 30ac 	ldr.w	r3, [r7, #172]	@ 0xac
 8001d08:	f8c7 30b4 	str.w	r3, [r7, #180]	@ 0xb4
 8001d0c:	f8d7 30b4 	ldr.w	r3, [r7, #180]	@ 0xb4
 8001d10:	2b00      	cmp	r3, #0
 8001d12:	d101      	bne.n	8001d18 <HAL_ADC_ConfigChannel+0x1d8>
 8001d14:	2320      	movs	r3, #32
 8001d16:	e004      	b.n	8001d22 <HAL_ADC_ConfigChannel+0x1e2>
 8001d18:	f8d7 30b4 	ldr.w	r3, [r7, #180]	@ 0xb4
 8001d1c:	fab3 f383 	clz	r3, r3
 8001d20:	b2db      	uxtb	r3, r3
 8001d22:	429a      	cmp	r2, r3
 8001d24:	d106      	bne.n	8001d34 <HAL_ADC_ConfigChannel+0x1f4>
 8001d26:	687b      	ldr	r3, [r7, #4]
 8001d28:	681b      	ldr	r3, [r3, #0]
 8001d2a:	2200      	movs	r2, #0
 8001d2c:	2100      	movs	r1, #0
 8001d2e:	4618      	mov	r0, r3
 8001d30:	f7ff f9fc 	bl	800112c <LL_ADC_SetOffsetState>
 8001d34:	687b      	ldr	r3, [r7, #4]
 8001d36:	681b      	ldr	r3, [r3, #0]
 8001d38:	2101      	movs	r1, #1
 8001d3a:	4618      	mov	r0, r3
 8001d3c:	f7ff f9e0 	bl	8001100 <LL_ADC_GetOffsetChannel>
 8001d40:	4603      	mov	r3, r0
 8001d42:	f3c3 0312 	ubfx	r3, r3, #0, #19
 8001d46:	2b00      	cmp	r3, #0
 8001d48:	d10a      	bne.n	8001d60 <HAL_ADC_ConfigChannel+0x220>
 8001d4a:	687b      	ldr	r3, [r7, #4]
 8001d4c:	681b      	ldr	r3, [r3, #0]
 8001d4e:	2101      	movs	r1, #1
 8001d50:	4618      	mov	r0, r3
 8001d52:	f7ff f9d5 	bl	8001100 <LL_ADC_GetOffsetChannel>
 8001d56:	4603      	mov	r3, r0
 8001d58:	0e9b      	lsrs	r3, r3, #26
 8001d5a:	f003 021f 	and.w	r2, r3, #31
 8001d5e:	e01e      	b.n	8001d9e <HAL_ADC_ConfigChannel+0x25e>
 8001d60:	687b      	ldr	r3, [r7, #4]
 8001d62:	681b      	ldr	r3, [r3, #0]
 8001d64:	2101      	movs	r1, #1
 8001d66:	4618      	mov	r0, r3
 8001d68:	f7ff f9ca 	bl	8001100 <LL_ADC_GetOffsetChannel>
 8001d6c:	4603      	mov	r3, r0
 8001d6e:	f8c7 30a4 	str.w	r3, [r7, #164]	@ 0xa4
 8001d72:	f8d7 30a4 	ldr.w	r3, [r7, #164]	@ 0xa4
 8001d76:	fa93 f3a3 	rbit	r3, r3
 8001d7a:	f8c7 30a0 	str.w	r3, [r7, #160]	@ 0xa0
 8001d7e:	f8d7 30a0 	ldr.w	r3, [r7, #160]	@ 0xa0
 8001d82:	f8c7 30a8 	str.w	r3, [r7, #168]	@ 0xa8
 8001d86:	f8d7 30a8 	ldr.w	r3, [r7, #168]	@ 0xa8
 8001d8a:	2b00      	cmp	r3, #0
 8001d8c:	d101      	bne.n	8001d92 <HAL_ADC_ConfigChannel+0x252>
 8001d8e:	2320      	movs	r3, #32
 8001d90:	e004      	b.n	8001d9c <HAL_ADC_ConfigChannel+0x25c>
 8001d92:	f8d7 30a8 	ldr.w	r3, [r7, #168]	@ 0xa8
 8001d96:	fab3 f383 	clz	r3, r3
 8001d9a:	b2db      	uxtb	r3, r3
 8001d9c:	461a      	mov	r2, r3
 8001d9e:	683b      	ldr	r3, [r7, #0]
 8001da0:	681b      	ldr	r3, [r3, #0]
 8001da2:	f3c3 0312 	ubfx	r3, r3, #0, #19
 8001da6:	2b00      	cmp	r3, #0
 8001da8:	d105      	bne.n	8001db6 <HAL_ADC_ConfigChannel+0x276>
 8001daa:	683b      	ldr	r3, [r7, #0]
 8001dac:	681b      	ldr	r3, [r3, #0]
 8001dae:	0e9b      	lsrs	r3, r3, #26
 8001db0:	f003 031f 	and.w	r3, r3, #31
 8001db4:	e018      	b.n	8001de8 <HAL_ADC_ConfigChannel+0x2a8>
 8001db6:	683b      	ldr	r3, [r7, #0]
 8001db8:	681b      	ldr	r3, [r3, #0]
 8001dba:	f8c7 3098 	str.w	r3, [r7, #152]	@ 0x98
 8001dbe:	f8d7 3098 	ldr.w	r3, [r7, #152]	@ 0x98
 8001dc2:	fa93 f3a3 	rbit	r3, r3
 8001dc6:	f8c7 3094 	str.w	r3, [r7, #148]	@ 0x94
 8001dca:	f8d7 3094 	ldr.w	r3, [r7, #148]	@ 0x94
 8001dce:	f8c7 309c 	str.w	r3, [r7, #156]	@ 0x9c
 8001dd2:	f8d7 309c 	ldr.w	r3, [r7, #156]	@ 0x9c
 8001dd6:	2b00      	cmp	r3, #0
 8001dd8:	d101      	bne.n	8001dde <HAL_ADC_ConfigChannel+0x29e>
 8001dda:	2320      	movs	r3, #32
 8001ddc:	e004      	b.n	8001de8 <HAL_ADC_ConfigChannel+0x2a8>
 8001dde:	f8d7 309c 	ldr.w	r3, [r7, #156]	@ 0x9c
 8001de2:	fab3 f383 	clz	r3, r3
 8001de6:	b2db      	uxtb	r3, r3
 8001de8:	429a      	cmp	r2, r3
 8001dea:	d106      	bne.n	8001dfa <HAL_ADC_ConfigChannel+0x2ba>
 8001dec:	687b      	ldr	r3, [r7, #4]
 8001dee:	681b      	ldr	r3, [r3, #0]
 8001df0:	2200      	movs	r2, #0
 8001df2:	2101      	movs	r1, #1
 8001df4:	4618      	mov	r0, r3
 8001df6:	f7ff f999 	bl	800112c <LL_ADC_SetOffsetState>
 8001dfa:	687b      	ldr	r3, [r7, #4]
 8001dfc:	681b      	ldr	r3, [r3, #0]
 8001dfe:	2102      	movs	r1, #2
 8001e00:	4618      	mov	r0, r3
 8001e02:	f7ff f97d 	bl	8001100 <LL_ADC_GetOffsetChannel>
 8001e06:	4603      	mov	r3, r0
 8001e08:	f3c3 0312 	ubfx	r3, r3, #0, #19
 8001e0c:	2b00      	cmp	r3, #0
 8001e0e:	d10a      	bne.n	8001e26 <HAL_ADC_ConfigChannel+0x2e6>
 8001e10:	687b      	ldr	r3, [r7, #4]
 8001e12:	681b      	ldr	r3, [r3, #0]
 8001e14:	2102      	movs	r1, #2
 8001e16:	4618      	mov	r0, r3
 8001e18:	f7ff f972 	bl	8001100 <LL_ADC_GetOffsetChannel>
 8001e1c:	4603      	mov	r3, r0
 8001e1e:	0e9b      	lsrs	r3, r3, #26
 8001e20:	f003 021f 	and.w	r2, r3, #31
 8001e24:	e01e      	b.n	8001e64 <HAL_ADC_ConfigChannel+0x324>
 8001e26:	687b      	ldr	r3, [r7, #4]
 8001e28:	681b      	ldr	r3, [r3, #0]
 8001e2a:	2102      	movs	r1, #2
 8001e2c:	4618      	mov	r0, r3
 8001e2e:	f7ff f967 	bl	8001100 <LL_ADC_GetOffsetChannel>
 8001e32:	4603      	mov	r3, r0
 8001e34:	f8c7 308c 	str.w	r3, [r7, #140]	@ 0x8c
 8001e38:	f8d7 308c 	ldr.w	r3, [r7, #140]	@ 0x8c
 8001e3c:	fa93 f3a3 	rbit	r3, r3
 8001e40:	f8c7 3088 	str.w	r3, [r7, #136]	@ 0x88
 8001e44:	f8d7 3088 	ldr.w	r3, [r7, #136]	@ 0x88
 8001e48:	f8c7 3090 	str.w	r3, [r7, #144]	@ 0x90
 8001e4c:	f8d7 3090 	ldr.w	r3, [r7, #144]	@ 0x90
 8001e50:	2b00      	cmp	r3, #0
 8001e52:	d101      	bne.n	8001e58 <HAL_ADC_ConfigChannel+0x318>
 8001e54:	2320      	movs	r3, #32
 8001e56:	e004      	b.n	8001e62 <HAL_ADC_ConfigChannel+0x322>
 8001e58:	f8d7 3090 	ldr.w	r3, [r7, #144]	@ 0x90
 8001e5c:	fab3 f383 	clz	r3, r3
 8001e60:	b2db      	uxtb	r3, r3
 8001e62:	461a      	mov	r2, r3
 8001e64:	683b      	ldr	r3, [r7, #0]
 8001e66:	681b      	ldr	r3, [r3, #0]
 8001e68:	f3c3 0312 	ubfx	r3, r3, #0, #19
 8001e6c:	2b00      	cmp	r3, #0
 8001e6e:	d105      	bne.n	8001e7c <HAL_ADC_ConfigChannel+0x33c>
 8001e70:	683b      	ldr	r3, [r7, #0]
 8001e72:	681b      	ldr	r3, [r3, #0]
 8001e74:	0e9b      	lsrs	r3, r3, #26
 8001e76:	f003 031f 	and.w	r3, r3, #31
 8001e7a:	e016      	b.n	8001eaa <HAL_ADC_ConfigChannel+0x36a>
 8001e7c:	683b      	ldr	r3, [r7, #0]
 8001e7e:	681b      	ldr	r3, [r3, #0]
 8001e80:	f8c7 3080 	str.w	r3, [r7, #128]	@ 0x80
 8001e84:	f8d7 3080 	ldr.w	r3, [r7, #128]	@ 0x80
 8001e88:	fa93 f3a3 	rbit	r3, r3
 8001e8c:	67fb      	str	r3, [r7, #124]	@ 0x7c
 8001e8e:	6ffb      	ldr	r3, [r7, #124]	@ 0x7c
 8001e90:	f8c7 3084 	str.w	r3, [r7, #132]	@ 0x84
 8001e94:	f8d7 3084 	ldr.w	r3, [r7, #132]	@ 0x84
 8001e98:	2b00      	cmp	r3, #0
 8001e9a:	d101      	bne.n	8001ea0 <HAL_ADC_ConfigChannel+0x360>
 8001e9c:	2320      	movs	r3, #32
 8001e9e:	e004      	b.n	8001eaa <HAL_ADC_ConfigChannel+0x36a>
 8001ea0:	f8d7 3084 	ldr.w	r3, [r7, #132]	@ 0x84
 8001ea4:	fab3 f383 	clz	r3, r3
 8001ea8:	b2db      	uxtb	r3, r3
 8001eaa:	429a      	cmp	r2, r3
 8001eac:	d106      	bne.n	8001ebc <HAL_ADC_ConfigChannel+0x37c>
 8001eae:	687b      	ldr	r3, [r7, #4]
 8001eb0:	681b      	ldr	r3, [r3, #0]
 8001eb2:	2200      	movs	r2, #0
 8001eb4:	2102      	movs	r1, #2
 8001eb6:	4618      	mov	r0, r3
 8001eb8:	f7ff f938 	bl	800112c <LL_ADC_SetOffsetState>
 8001ebc:	687b      	ldr	r3, [r7, #4]
 8001ebe:	681b      	ldr	r3, [r3, #0]
 8001ec0:	2103      	movs	r1, #3
 8001ec2:	4618      	mov	r0, r3
 8001ec4:	f7ff f91c 	bl	8001100 <LL_ADC_GetOffsetChannel>
 8001ec8:	4603      	mov	r3, r0
 8001eca:	f3c3 0312 	ubfx	r3, r3, #0, #19
 8001ece:	2b00      	cmp	r3, #0
 8001ed0:	d10a      	bne.n	8001ee8 <HAL_ADC_ConfigChannel+0x3a8>
 8001ed2:	687b      	ldr	r3, [r7, #4]
 8001ed4:	681b      	ldr	r3, [r3, #0]
 8001ed6:	2103      	movs	r1, #3
 8001ed8:	4618      	mov	r0, r3
 8001eda:	f7ff f911 	bl	8001100 <LL_ADC_GetOffsetChannel>
 8001ede:	4603      	mov	r3, r0
 8001ee0:	0e9b      	lsrs	r3, r3, #26
 8001ee2:	f003 021f 	and.w	r2, r3, #31
 8001ee6:	e017      	b.n	8001f18 <HAL_ADC_ConfigChannel+0x3d8>
 8001ee8:	687b      	ldr	r3, [r7, #4]
 8001eea:	681b      	ldr	r3, [r3, #0]
 8001eec:	2103      	movs	r1, #3
 8001eee:	4618      	mov	r0, r3
 8001ef0:	f7ff f906 	bl	8001100 <LL_ADC_GetOffsetChannel>
 8001ef4:	4603      	mov	r3, r0
 8001ef6:	677b      	str	r3, [r7, #116]	@ 0x74
 8001ef8:	6f7b      	ldr	r3, [r7, #116]	@ 0x74
 8001efa:	fa93 f3a3 	rbit	r3, r3
 8001efe:	673b      	str	r3, [r7, #112]	@ 0x70
 8001f00:	6f3b      	ldr	r3, [r7, #112]	@ 0x70
 8001f02:	67bb      	str	r3, [r7, #120]	@ 0x78
 8001f04:	6fbb      	ldr	r3, [r7, #120]	@ 0x78
 8001f06:	2b00      	cmp	r3, #0
 8001f08:	d101      	bne.n	8001f0e <HAL_ADC_ConfigChannel+0x3ce>
 8001f0a:	2320      	movs	r3, #32
 8001f0c:	e003      	b.n	8001f16 <HAL_ADC_ConfigChannel+0x3d6>
 8001f0e:	6fbb      	ldr	r3, [r7, #120]	@ 0x78
 8001f10:	fab3 f383 	clz	r3, r3
 8001f14:	b2db      	uxtb	r3, r3
 8001f16:	461a      	mov	r2, r3
 8001f18:	683b      	ldr	r3, [r7, #0]
 8001f1a:	681b      	ldr	r3, [r3, #0]
 8001f1c:	f3c3 0312 	ubfx	r3, r3, #0, #19
 8001f20:	2b00      	cmp	r3, #0
 8001f22:	d105      	bne.n	8001f30 <HAL_ADC_ConfigChannel+0x3f0>
 8001f24:	683b      	ldr	r3, [r7, #0]
 8001f26:	681b      	ldr	r3, [r3, #0]
 8001f28:	0e9b      	lsrs	r3, r3, #26
 8001f2a:	f003 031f 	and.w	r3, r3, #31
 8001f2e:	e011      	b.n	8001f54 <HAL_ADC_ConfigChannel+0x414>
 8001f30:	683b      	ldr	r3, [r7, #0]
 8001f32:	681b      	ldr	r3, [r3, #0]
 8001f34:	66bb      	str	r3, [r7, #104]	@ 0x68
 8001f36:	6ebb      	ldr	r3, [r7, #104]	@ 0x68
 8001f38:	fa93 f3a3 	rbit	r3, r3
 8001f3c:	667b      	str	r3, [r7, #100]	@ 0x64
 8001f3e:	6e7b      	ldr	r3, [r7, #100]	@ 0x64
 8001f40:	66fb      	str	r3, [r7, #108]	@ 0x6c
 8001f42:	6efb      	ldr	r3, [r7, #108]	@ 0x6c
 8001f44:	2b00      	cmp	r3, #0
 8001f46:	d101      	bne.n	8001f4c <HAL_ADC_ConfigChannel+0x40c>
 8001f48:	2320      	movs	r3, #32
 8001f4a:	e003      	b.n	8001f54 <HAL_ADC_ConfigChannel+0x414>
 8001f4c:	6efb      	ldr	r3, [r7, #108]	@ 0x6c
 8001f4e:	fab3 f383 	clz	r3, r3
 8001f52:	b2db      	uxtb	r3, r3
 8001f54:	429a      	cmp	r2, r3
 8001f56:	d106      	bne.n	8001f66 <HAL_ADC_ConfigChannel+0x426>
 8001f58:	687b      	ldr	r3, [r7, #4]
 8001f5a:	681b      	ldr	r3, [r3, #0]
 8001f5c:	2200      	movs	r2, #0
 8001f5e:	2103      	movs	r1, #3
 8001f60:	4618      	mov	r0, r3
 8001f62:	f7ff f8e3 	bl	800112c <LL_ADC_SetOffsetState>
 8001f66:	687b      	ldr	r3, [r7, #4]
 8001f68:	681b      	ldr	r3, [r3, #0]
 8001f6a:	4618      	mov	r0, r3
 8001f6c:	f7ff fa62 	bl	8001434 <LL_ADC_IsEnabled>
 8001f70:	4603      	mov	r3, r0
 8001f72:	2b00      	cmp	r3, #0
 8001f74:	f040 8140 	bne.w	80021f8 <HAL_ADC_ConfigChannel+0x6b8>
 8001f78:	687b      	ldr	r3, [r7, #4]
 8001f7a:	6818      	ldr	r0, [r3, #0]
 8001f7c:	683b      	ldr	r3, [r7, #0]
 8001f7e:	6819      	ldr	r1, [r3, #0]
 8001f80:	683b      	ldr	r3, [r7, #0]
 8001f82:	68db      	ldr	r3, [r3, #12]
 8001f84:	461a      	mov	r2, r3
 8001f86:	f7ff f99f 	bl	80012c8 <LL_ADC_SetChannelSingleDiff>
 8001f8a:	683b      	ldr	r3, [r7, #0]
 8001f8c:	68db      	ldr	r3, [r3, #12]
 8001f8e:	4a8f      	ldr	r2, [pc, #572]	@ (80021cc <HAL_ADC_ConfigChannel+0x68c>)
 8001f90:	4293      	cmp	r3, r2
 8001f92:	f040 8131 	bne.w	80021f8 <HAL_ADC_ConfigChannel+0x6b8>
 8001f96:	687b      	ldr	r3, [r7, #4]
 8001f98:	6818      	ldr	r0, [r3, #0]
 8001f9a:	683b      	ldr	r3, [r7, #0]
 8001f9c:	681b      	ldr	r3, [r3, #0]
 8001f9e:	f3c3 0312 	ubfx	r3, r3, #0, #19
 8001fa2:	2b00      	cmp	r3, #0
 8001fa4:	d10b      	bne.n	8001fbe <HAL_ADC_ConfigChannel+0x47e>
 8001fa6:	683b      	ldr	r3, [r7, #0]
 8001fa8:	681b      	ldr	r3, [r3, #0]
 8001faa:	0e9b      	lsrs	r3, r3, #26
 8001fac:	3301      	adds	r3, #1
 8001fae:	f003 031f 	and.w	r3, r3, #31
 8001fb2:	2b09      	cmp	r3, #9
 8001fb4:	bf94      	ite	ls
 8001fb6:	2301      	movls	r3, #1
 8001fb8:	2300      	movhi	r3, #0
 8001fba:	b2db      	uxtb	r3, r3
 8001fbc:	e019      	b.n	8001ff2 <HAL_ADC_ConfigChannel+0x4b2>
 8001fbe:	683b      	ldr	r3, [r7, #0]
 8001fc0:	681b      	ldr	r3, [r3, #0]
 8001fc2:	65fb      	str	r3, [r7, #92]	@ 0x5c
 8001fc4:	6dfb      	ldr	r3, [r7, #92]	@ 0x5c
 8001fc6:	fa93 f3a3 	rbit	r3, r3
 8001fca:	65bb      	str	r3, [r7, #88]	@ 0x58
 8001fcc:	6dbb      	ldr	r3, [r7, #88]	@ 0x58
 8001fce:	663b      	str	r3, [r7, #96]	@ 0x60
 8001fd0:	6e3b      	ldr	r3, [r7, #96]	@ 0x60
 8001fd2:	2b00      	cmp	r3, #0
 8001fd4:	d101      	bne.n	8001fda <HAL_ADC_ConfigChannel+0x49a>
 8001fd6:	2320      	movs	r3, #32
 8001fd8:	e003      	b.n	8001fe2 <HAL_ADC_ConfigChannel+0x4a2>
 8001fda:	6e3b      	ldr	r3, [r7, #96]	@ 0x60
 8001fdc:	fab3 f383 	clz	r3, r3
 8001fe0:	b2db      	uxtb	r3, r3
 8001fe2:	3301      	adds	r3, #1
 8001fe4:	f003 031f 	and.w	r3, r3, #31
 8001fe8:	2b09      	cmp	r3, #9
 8001fea:	bf94      	ite	ls
 8001fec:	2301      	movls	r3, #1
 8001fee:	2300      	movhi	r3, #0
 8001ff0:	b2db      	uxtb	r3, r3
 8001ff2:	2b00      	cmp	r3, #0
 8001ff4:	d079      	beq.n	80020ea <HAL_ADC_ConfigChannel+0x5aa>
 8001ff6:	683b      	ldr	r3, [r7, #0]
 8001ff8:	681b      	ldr	r3, [r3, #0]
 8001ffa:	f3c3 0312 	ubfx	r3, r3, #0, #19
 8001ffe:	2b00      	cmp	r3, #0
 8002000:	d107      	bne.n	8002012 <HAL_ADC_ConfigChannel+0x4d2>
 8002002:	683b      	ldr	r3, [r7, #0]
 8002004:	681b      	ldr	r3, [r3, #0]
 8002006:	0e9b      	lsrs	r3, r3, #26
 8002008:	3301      	adds	r3, #1
 800200a:	069b      	lsls	r3, r3, #26
 800200c:	f003 42f8 	and.w	r2, r3, #2080374784	@ 0x7c000000
 8002010:	e015      	b.n	800203e <HAL_ADC_ConfigChannel+0x4fe>
 8002012:	683b      	ldr	r3, [r7, #0]
 8002014:	681b      	ldr	r3, [r3, #0]
 8002016:	653b      	str	r3, [r7, #80]	@ 0x50
 8002018:	6d3b      	ldr	r3, [r7, #80]	@ 0x50
 800201a:	fa93 f3a3 	rbit	r3, r3
 800201e:	64fb      	str	r3, [r7, #76]	@ 0x4c
 8002020:	6cfb      	ldr	r3, [r7, #76]	@ 0x4c
 8002022:	657b      	str	r3, [r7, #84]	@ 0x54
 8002024:	6d7b      	ldr	r3, [r7, #84]	@ 0x54
 8002026:	2b00      	cmp	r3, #0
 8002028:	d101      	bne.n	800202e <HAL_ADC_ConfigChannel+0x4ee>
 800202a:	2320      	movs	r3, #32
 800202c:	e003      	b.n	8002036 <HAL_ADC_ConfigChannel+0x4f6>
 800202e:	6d7b      	ldr	r3, [r7, #84]	@ 0x54
 8002030:	fab3 f383 	clz	r3, r3
 8002034:	b2db      	uxtb	r3, r3
 8002036:	3301      	adds	r3, #1
 8002038:	069b      	lsls	r3, r3, #26
 800203a:	f003 42f8 	and.w	r2, r3, #2080374784	@ 0x7c000000
 800203e:	683b      	ldr	r3, [r7, #0]
 8002040:	681b      	ldr	r3, [r3, #0]
 8002042:	f3c3 0312 	ubfx	r3, r3, #0, #19
 8002046:	2b00      	cmp	r3, #0
 8002048:	d109      	bne.n	800205e <HAL_ADC_ConfigChannel+0x51e>
 800204a:	683b      	ldr	r3, [r7, #0]
 800204c:	681b      	ldr	r3, [r3, #0]
 800204e:	0e9b      	lsrs	r3, r3, #26
 8002050:	3301      	adds	r3, #1
 8002052:	f003 031f 	and.w	r3, r3, #31
 8002056:	2101      	movs	r1, #1
 8002058:	fa01 f303 	lsl.w	r3, r1, r3
 800205c:	e017      	b.n	800208e <HAL_ADC_ConfigChannel+0x54e>
 800205e:	683b      	ldr	r3, [r7, #0]
 8002060:	681b      	ldr	r3, [r3, #0]
 8002062:	647b      	str	r3, [r7, #68]	@ 0x44
 8002064:	6c7b      	ldr	r3, [r7, #68]	@ 0x44
 8002066:	fa93 f3a3 	rbit	r3, r3
 800206a:	643b      	str	r3, [r7, #64]	@ 0x40
 800206c:	6c3b      	ldr	r3, [r7, #64]	@ 0x40
 800206e:	64bb      	str	r3, [r7, #72]	@ 0x48
 8002070:	6cbb      	ldr	r3, [r7, #72]	@ 0x48
 8002072:	2b00      	cmp	r3, #0
 8002074:	d101      	bne.n	800207a <HAL_ADC_ConfigChannel+0x53a>
 8002076:	2320      	movs	r3, #32
 8002078:	e003      	b.n	8002082 <HAL_ADC_ConfigChannel+0x542>
 800207a:	6cbb      	ldr	r3, [r7, #72]	@ 0x48
 800207c:	fab3 f383 	clz	r3, r3
 8002080:	b2db      	uxtb	r3, r3
 8002082:	3301      	adds	r3, #1
 8002084:	f003 031f 	and.w	r3, r3, #31
 8002088:	2101      	movs	r1, #1
 800208a:	fa01 f303 	lsl.w	r3, r1, r3
 800208e:	ea42 0103 	orr.w	r1, r2, r3
 8002092:	683b      	ldr	r3, [r7, #0]
 8002094:	681b      	ldr	r3, [r3, #0]
 8002096:	f3c3 0312 	ubfx	r3, r3, #0, #19
 800209a:	2b00      	cmp	r3, #0
 800209c:	d10a      	bne.n	80020b4 <HAL_ADC_ConfigChannel+0x574>
 800209e:	683b      	ldr	r3, [r7, #0]
 80020a0:	681b      	ldr	r3, [r3, #0]
 80020a2:	0e9b      	lsrs	r3, r3, #26
 80020a4:	3301      	adds	r3, #1
 80020a6:	f003 021f 	and.w	r2, r3, #31
 80020aa:	4613      	mov	r3, r2
 80020ac:	005b      	lsls	r3, r3, #1
 80020ae:	4413      	add	r3, r2
 80020b0:	051b      	lsls	r3, r3, #20
 80020b2:	e018      	b.n	80020e6 <HAL_ADC_ConfigChannel+0x5a6>
 80020b4:	683b      	ldr	r3, [r7, #0]
 80020b6:	681b      	ldr	r3, [r3, #0]
 80020b8:	63bb      	str	r3, [r7, #56]	@ 0x38
 80020ba:	6bbb      	ldr	r3, [r7, #56]	@ 0x38
 80020bc:	fa93 f3a3 	rbit	r3, r3
 80020c0:	637b      	str	r3, [r7, #52]	@ 0x34
 80020c2:	6b7b      	ldr	r3, [r7, #52]	@ 0x34
 80020c4:	63fb      	str	r3, [r7, #60]	@ 0x3c
 80020c6:	6bfb      	ldr	r3, [r7, #60]	@ 0x3c
 80020c8:	2b00      	cmp	r3, #0
 80020ca:	d101      	bne.n	80020d0 <HAL_ADC_ConfigChannel+0x590>
 80020cc:	2320      	movs	r3, #32
 80020ce:	e003      	b.n	80020d8 <HAL_ADC_ConfigChannel+0x598>
 80020d0:	6bfb      	ldr	r3, [r7, #60]	@ 0x3c
 80020d2:	fab3 f383 	clz	r3, r3
 80020d6:	b2db      	uxtb	r3, r3
 80020d8:	3301      	adds	r3, #1
 80020da:	f003 021f 	and.w	r2, r3, #31
 80020de:	4613      	mov	r3, r2
 80020e0:	005b      	lsls	r3, r3, #1
 80020e2:	4413      	add	r3, r2
 80020e4:	051b      	lsls	r3, r3, #20
 80020e6:	430b      	orrs	r3, r1
 80020e8:	e081      	b.n	80021ee <HAL_ADC_ConfigChannel+0x6ae>
 80020ea:	683b      	ldr	r3, [r7, #0]
 80020ec:	681b      	ldr	r3, [r3, #0]
 80020ee:	f3c3 0312 	ubfx	r3, r3, #0, #19
 80020f2:	2b00      	cmp	r3, #0
 80020f4:	d107      	bne.n	8002106 <HAL_ADC_ConfigChannel+0x5c6>
 80020f6:	683b      	ldr	r3, [r7, #0]
 80020f8:	681b      	ldr	r3, [r3, #0]
 80020fa:	0e9b      	lsrs	r3, r3, #26
 80020fc:	3301      	adds	r3, #1
 80020fe:	069b      	lsls	r3, r3, #26
 8002100:	f003 42f8 	and.w	r2, r3, #2080374784	@ 0x7c000000
 8002104:	e015      	b.n	8002132 <HAL_ADC_ConfigChannel+0x5f2>
 8002106:	683b      	ldr	r3, [r7, #0]
 8002108:	681b      	ldr	r3, [r3, #0]
 800210a:	62fb      	str	r3, [r7, #44]	@ 0x2c
 800210c:	6afb      	ldr	r3, [r7, #44]	@ 0x2c
 800210e:	fa93 f3a3 	rbit	r3, r3
 8002112:	62bb      	str	r3, [r7, #40]	@ 0x28
 8002114:	6abb      	ldr	r3, [r7, #40]	@ 0x28
 8002116:	633b      	str	r3, [r7, #48]	@ 0x30
 8002118:	6b3b      	ldr	r3, [r7, #48]	@ 0x30
 800211a:	2b00      	cmp	r3, #0
 800211c:	d101      	bne.n	8002122 <HAL_ADC_ConfigChannel+0x5e2>
 800211e:	2320      	movs	r3, #32
 8002120:	e003      	b.n	800212a <HAL_ADC_ConfigChannel+0x5ea>
 8002122:	6b3b      	ldr	r3, [r7, #48]	@ 0x30
 8002124:	fab3 f383 	clz	r3, r3
 8002128:	b2db      	uxtb	r3, r3
 800212a:	3301      	adds	r3, #1
 800212c:	069b      	lsls	r3, r3, #26
 800212e:	f003 42f8 	and.w	r2, r3, #2080374784	@ 0x7c000000
 8002132:	683b      	ldr	r3, [r7, #0]
 8002134:	681b      	ldr	r3, [r3, #0]
 8002136:	f3c3 0312 	ubfx	r3, r3, #0, #19
 800213a:	2b00      	cmp	r3, #0
 800213c:	d109      	bne.n	8002152 <HAL_ADC_ConfigChannel+0x612>
 800213e:	683b      	ldr	r3, [r7, #0]
 8002140:	681b      	ldr	r3, [r3, #0]
 8002142:	0e9b      	lsrs	r3, r3, #26
 8002144:	3301      	adds	r3, #1
 8002146:	f003 031f 	and.w	r3, r3, #31
 800214a:	2101      	movs	r1, #1
 800214c:	fa01 f303 	lsl.w	r3, r1, r3
 8002150:	e017      	b.n	8002182 <HAL_ADC_ConfigChannel+0x642>
 8002152:	683b      	ldr	r3, [r7, #0]
 8002154:	681b      	ldr	r3, [r3, #0]
 8002156:	623b      	str	r3, [r7, #32]
 8002158:	6a3b      	ldr	r3, [r7, #32]
 800215a:	fa93 f3a3 	rbit	r3, r3
 800215e:	61fb      	str	r3, [r7, #28]
 8002160:	69fb      	ldr	r3, [r7, #28]
 8002162:	627b      	str	r3, [r7, #36]	@ 0x24
 8002164:	6a7b      	ldr	r3, [r7, #36]	@ 0x24
 8002166:	2b00      	cmp	r3, #0
 8002168:	d101      	bne.n	800216e <HAL_ADC_ConfigChannel+0x62e>
 800216a:	2320      	movs	r3, #32
 800216c:	e003      	b.n	8002176 <HAL_ADC_ConfigChannel+0x636>
 800216e:	6a7b      	ldr	r3, [r7, #36]	@ 0x24
 8002170:	fab3 f383 	clz	r3, r3
 8002174:	b2db      	uxtb	r3, r3
 8002176:	3301      	adds	r3, #1
 8002178:	f003 031f 	and.w	r3, r3, #31
 800217c:	2101      	movs	r1, #1
 800217e:	fa01 f303 	lsl.w	r3, r1, r3
 8002182:	ea42 0103 	orr.w	r1, r2, r3
 8002186:	683b      	ldr	r3, [r7, #0]
 8002188:	681b      	ldr	r3, [r3, #0]
 800218a:	f3c3 0312 	ubfx	r3, r3, #0, #19
 800218e:	2b00      	cmp	r3, #0
 8002190:	d10d      	bne.n	80021ae <HAL_ADC_ConfigChannel+0x66e>
 8002192:	683b      	ldr	r3, [r7, #0]
 8002194:	681b      	ldr	r3, [r3, #0]
 8002196:	0e9b      	lsrs	r3, r3, #26
 8002198:	3301      	adds	r3, #1
 800219a:	f003 021f 	and.w	r2, r3, #31
 800219e:	4613      	mov	r3, r2
 80021a0:	005b      	lsls	r3, r3, #1
 80021a2:	4413      	add	r3, r2
 80021a4:	3b1e      	subs	r3, #30
 80021a6:	051b      	lsls	r3, r3, #20
 80021a8:	f043 7300 	orr.w	r3, r3, #33554432	@ 0x2000000
 80021ac:	e01e      	b.n	80021ec <HAL_ADC_ConfigChannel+0x6ac>
 80021ae:	683b      	ldr	r3, [r7, #0]
 80021b0:	681b      	ldr	r3, [r3, #0]
 80021b2:	617b      	str	r3, [r7, #20]
 80021b4:	697b      	ldr	r3, [r7, #20]
 80021b6:	fa93 f3a3 	rbit	r3, r3
 80021ba:	613b      	str	r3, [r7, #16]
 80021bc:	693b      	ldr	r3, [r7, #16]
 80021be:	61bb      	str	r3, [r7, #24]
 80021c0:	69bb      	ldr	r3, [r7, #24]
 80021c2:	2b00      	cmp	r3, #0
 80021c4:	d104      	bne.n	80021d0 <HAL_ADC_ConfigChannel+0x690>
 80021c6:	2320      	movs	r3, #32
 80021c8:	e006      	b.n	80021d8 <HAL_ADC_ConfigChannel+0x698>
 80021ca:	bf00      	nop
 80021cc:	407f0000 	.word	0x407f0000
 80021d0:	69bb      	ldr	r3, [r7, #24]
 80021d2:	fab3 f383 	clz	r3, r3
 80021d6:	b2db      	uxtb	r3, r3
 80021d8:	3301      	adds	r3, #1
 80021da:	f003 021f 	and.w	r2, r3, #31
 80021de:	4613      	mov	r3, r2
 80021e0:	005b      	lsls	r3, r3, #1
 80021e2:	4413      	add	r3, r2
 80021e4:	3b1e      	subs	r3, #30
 80021e6:	051b      	lsls	r3, r3, #20
 80021e8:	f043 7300 	orr.w	r3, r3, #33554432	@ 0x2000000
 80021ec:	430b      	orrs	r3, r1
 80021ee:	683a      	ldr	r2, [r7, #0]
 80021f0:	6892      	ldr	r2, [r2, #8]
 80021f2:	4619      	mov	r1, r3
 80021f4:	f7ff f83d 	bl	8001272 <LL_ADC_SetChannelSamplingTime>
 80021f8:	683b      	ldr	r3, [r7, #0]
 80021fa:	681a      	ldr	r2, [r3, #0]
 80021fc:	4b3f      	ldr	r3, [pc, #252]	@ (80022fc <HAL_ADC_ConfigChannel+0x7bc>)
 80021fe:	4013      	ands	r3, r2
 8002200:	2b00      	cmp	r3, #0
 8002202:	d071      	beq.n	80022e8 <HAL_ADC_ConfigChannel+0x7a8>
 8002204:	483e      	ldr	r0, [pc, #248]	@ (8002300 <HAL_ADC_ConfigChannel+0x7c0>)
 8002206:	f7fe ff49 	bl	800109c <LL_ADC_GetCommonPathInternalCh>
 800220a:	f8c7 00c4 	str.w	r0, [r7, #196]	@ 0xc4
 800220e:	683b      	ldr	r3, [r7, #0]
 8002210:	681b      	ldr	r3, [r3, #0]
 8002212:	4a3c      	ldr	r2, [pc, #240]	@ (8002304 <HAL_ADC_ConfigChannel+0x7c4>)
 8002214:	4293      	cmp	r3, r2
 8002216:	d004      	beq.n	8002222 <HAL_ADC_ConfigChannel+0x6e2>
 8002218:	683b      	ldr	r3, [r7, #0]
 800221a:	681b      	ldr	r3, [r3, #0]
 800221c:	4a3a      	ldr	r2, [pc, #232]	@ (8002308 <HAL_ADC_ConfigChannel+0x7c8>)
 800221e:	4293      	cmp	r3, r2
 8002220:	d127      	bne.n	8002272 <HAL_ADC_ConfigChannel+0x732>
 8002222:	f8d7 30c4 	ldr.w	r3, [r7, #196]	@ 0xc4
 8002226:	f403 0300 	and.w	r3, r3, #8388608	@ 0x800000
 800222a:	2b00      	cmp	r3, #0
 800222c:	d121      	bne.n	8002272 <HAL_ADC_ConfigChannel+0x732>
 800222e:	687b      	ldr	r3, [r7, #4]
 8002230:	681b      	ldr	r3, [r3, #0]
 8002232:	f1b3 4fa0 	cmp.w	r3, #1342177280	@ 0x50000000
 8002236:	d157      	bne.n	80022e8 <HAL_ADC_ConfigChannel+0x7a8>
 8002238:	f8d7 30c4 	ldr.w	r3, [r7, #196]	@ 0xc4
 800223c:	f443 0300 	orr.w	r3, r3, #8388608	@ 0x800000
 8002240:	4619      	mov	r1, r3
 8002242:	482f      	ldr	r0, [pc, #188]	@ (8002300 <HAL_ADC_ConfigChannel+0x7c0>)
 8002244:	f7fe ff17 	bl	8001076 <LL_ADC_SetCommonPathInternalCh>
 8002248:	4b30      	ldr	r3, [pc, #192]	@ (800230c <HAL_ADC_ConfigChannel+0x7cc>)
 800224a:	681b      	ldr	r3, [r3, #0]
 800224c:	099b      	lsrs	r3, r3, #6
 800224e:	4a30      	ldr	r2, [pc, #192]	@ (8002310 <HAL_ADC_ConfigChannel+0x7d0>)
 8002250:	fba2 2303 	umull	r2, r3, r2, r3
 8002254:	099b      	lsrs	r3, r3, #6
 8002256:	1c5a      	adds	r2, r3, #1
 8002258:	4613      	mov	r3, r2
 800225a:	005b      	lsls	r3, r3, #1
 800225c:	4413      	add	r3, r2
 800225e:	009b      	lsls	r3, r3, #2
 8002260:	60fb      	str	r3, [r7, #12]
 8002262:	e002      	b.n	800226a <HAL_ADC_ConfigChannel+0x72a>
 8002264:	68fb      	ldr	r3, [r7, #12]
 8002266:	3b01      	subs	r3, #1
 8002268:	60fb      	str	r3, [r7, #12]
 800226a:	68fb      	ldr	r3, [r7, #12]
 800226c:	2b00      	cmp	r3, #0
 800226e:	d1f9      	bne.n	8002264 <HAL_ADC_ConfigChannel+0x724>
 8002270:	e03a      	b.n	80022e8 <HAL_ADC_ConfigChannel+0x7a8>
 8002272:	683b      	ldr	r3, [r7, #0]
 8002274:	681b      	ldr	r3, [r3, #0]
 8002276:	4a27      	ldr	r2, [pc, #156]	@ (8002314 <HAL_ADC_ConfigChannel+0x7d4>)
 8002278:	4293      	cmp	r3, r2
 800227a:	d113      	bne.n	80022a4 <HAL_ADC_ConfigChannel+0x764>
 800227c:	f8d7 30c4 	ldr.w	r3, [r7, #196]	@ 0xc4
 8002280:	f003 7380 	and.w	r3, r3, #16777216	@ 0x1000000
 8002284:	2b00      	cmp	r3, #0
 8002286:	d10d      	bne.n	80022a4 <HAL_ADC_ConfigChannel+0x764>
 8002288:	687b      	ldr	r3, [r7, #4]
 800228a:	681b      	ldr	r3, [r3, #0]
 800228c:	4a22      	ldr	r2, [pc, #136]	@ (8002318 <HAL_ADC_ConfigChannel+0x7d8>)
 800228e:	4293      	cmp	r3, r2
 8002290:	d02a      	beq.n	80022e8 <HAL_ADC_ConfigChannel+0x7a8>
 8002292:	f8d7 30c4 	ldr.w	r3, [r7, #196]	@ 0xc4
 8002296:	f043 7380 	orr.w	r3, r3, #16777216	@ 0x1000000
 800229a:	4619      	mov	r1, r3
 800229c:	4818      	ldr	r0, [pc, #96]	@ (8002300 <HAL_ADC_ConfigChannel+0x7c0>)
 800229e:	f7fe feea 	bl	8001076 <LL_ADC_SetCommonPathInternalCh>
 80022a2:	e021      	b.n	80022e8 <HAL_ADC_ConfigChannel+0x7a8>
 80022a4:	683b      	ldr	r3, [r7, #0]
 80022a6:	681b      	ldr	r3, [r3, #0]
 80022a8:	4a1c      	ldr	r2, [pc, #112]	@ (800231c <HAL_ADC_ConfigChannel+0x7dc>)
 80022aa:	4293      	cmp	r3, r2
 80022ac:	d11c      	bne.n	80022e8 <HAL_ADC_ConfigChannel+0x7a8>
 80022ae:	f8d7 30c4 	ldr.w	r3, [r7, #196]	@ 0xc4
 80022b2:	f403 0380 	and.w	r3, r3, #4194304	@ 0x400000
 80022b6:	2b00      	cmp	r3, #0
 80022b8:	d116      	bne.n	80022e8 <HAL_ADC_ConfigChannel+0x7a8>
 80022ba:	687b      	ldr	r3, [r7, #4]
 80022bc:	681b      	ldr	r3, [r3, #0]
 80022be:	4a16      	ldr	r2, [pc, #88]	@ (8002318 <HAL_ADC_ConfigChannel+0x7d8>)
 80022c0:	4293      	cmp	r3, r2
 80022c2:	d011      	beq.n	80022e8 <HAL_ADC_ConfigChannel+0x7a8>
 80022c4:	f8d7 30c4 	ldr.w	r3, [r7, #196]	@ 0xc4
 80022c8:	f443 0380 	orr.w	r3, r3, #4194304	@ 0x400000
 80022cc:	4619      	mov	r1, r3
 80022ce:	480c      	ldr	r0, [pc, #48]	@ (8002300 <HAL_ADC_ConfigChannel+0x7c0>)
 80022d0:	f7fe fed1 	bl	8001076 <LL_ADC_SetCommonPathInternalCh>
 80022d4:	e008      	b.n	80022e8 <HAL_ADC_ConfigChannel+0x7a8>
 80022d6:	687b      	ldr	r3, [r7, #4]
 80022d8:	6ddb      	ldr	r3, [r3, #92]	@ 0x5c
 80022da:	f043 0220 	orr.w	r2, r3, #32
 80022de:	687b      	ldr	r3, [r7, #4]
 80022e0:	65da      	str	r2, [r3, #92]	@ 0x5c
 80022e2:	2301      	movs	r3, #1
 80022e4:	f887 30d7 	strb.w	r3, [r7, #215]	@ 0xd7
 80022e8:	687b      	ldr	r3, [r7, #4]
 80022ea:	2200      	movs	r2, #0
 80022ec:	f883 2058 	strb.w	r2, [r3, #88]	@ 0x58
 80022f0:	f897 30d7 	ldrb.w	r3, [r7, #215]	@ 0xd7
 80022f4:	4618      	mov	r0, r3
 80022f6:	37d8      	adds	r7, #216	@ 0xd8
 80022f8:	46bd      	mov	sp, r7
 80022fa:	bd80      	pop	{r7, pc}
 80022fc:	80080000 	.word	0x80080000
 8002300:	50000300 	.word	0x50000300
 8002304:	c3210000 	.word	0xc3210000
 8002308:	90c00010 	.word	0x90c00010
 800230c:	20000000 	.word	0x20000000
 8002310:	053e2d63 	.word	0x053e2d63
 8002314:	c7520000 	.word	0xc7520000
 8002318:	50000100 	.word	0x50000100
 800231c:	cb840000 	.word	0xcb840000

08002320 <ADC_Enable>:
 8002320:	b580      	push	{r7, lr}
 8002322:	b084      	sub	sp, #16
 8002324:	af00      	add	r7, sp, #0
 8002326:	6078      	str	r0, [r7, #4]
 8002328:	2300      	movs	r3, #0
 800232a:	60bb      	str	r3, [r7, #8]
 800232c:	687b      	ldr	r3, [r7, #4]
 800232e:	681b      	ldr	r3, [r3, #0]
 8002330:	4618      	mov	r0, r3
 8002332:	f7ff f87f 	bl	8001434 <LL_ADC_IsEnabled>
 8002336:	4603      	mov	r3, r0
 8002338:	2b00      	cmp	r3, #0
 800233a:	d169      	bne.n	8002410 <ADC_Enable+0xf0>
 800233c:	687b      	ldr	r3, [r7, #4]
 800233e:	681b      	ldr	r3, [r3, #0]
 8002340:	689a      	ldr	r2, [r3, #8]
 8002342:	4b36      	ldr	r3, [pc, #216]	@ (800241c <ADC_Enable+0xfc>)
 8002344:	4013      	ands	r3, r2
 8002346:	2b00      	cmp	r3, #0
 8002348:	d00d      	beq.n	8002366 <ADC_Enable+0x46>
 800234a:	687b      	ldr	r3, [r7, #4]
 800234c:	6ddb      	ldr	r3, [r3, #92]	@ 0x5c
 800234e:	f043 0210 	orr.w	r2, r3, #16
 8002352:	687b      	ldr	r3, [r7, #4]
 8002354:	65da      	str	r2, [r3, #92]	@ 0x5c
 8002356:	687b      	ldr	r3, [r7, #4]
 8002358:	6e1b      	ldr	r3, [r3, #96]	@ 0x60
 800235a:	f043 0201 	orr.w	r2, r3, #1
 800235e:	687b      	ldr	r3, [r7, #4]
 8002360:	661a      	str	r2, [r3, #96]	@ 0x60
 8002362:	2301      	movs	r3, #1
 8002364:	e055      	b.n	8002412 <ADC_Enable+0xf2>
 8002366:	687b      	ldr	r3, [r7, #4]
 8002368:	681b      	ldr	r3, [r3, #0]
 800236a:	4618      	mov	r0, r3
 800236c:	f7ff f83a 	bl	80013e4 <LL_ADC_Enable>
 8002370:	482b      	ldr	r0, [pc, #172]	@ (8002420 <ADC_Enable+0x100>)
 8002372:	f7fe fe93 	bl	800109c <LL_ADC_GetCommonPathInternalCh>
 8002376:	4603      	mov	r3, r0
 8002378:	f403 0300 	and.w	r3, r3, #8388608	@ 0x800000
 800237c:	2b00      	cmp	r3, #0
 800237e:	d013      	beq.n	80023a8 <ADC_Enable+0x88>
 8002380:	4b28      	ldr	r3, [pc, #160]	@ (8002424 <ADC_Enable+0x104>)
 8002382:	681b      	ldr	r3, [r3, #0]
 8002384:	099b      	lsrs	r3, r3, #6
 8002386:	4a28      	ldr	r2, [pc, #160]	@ (8002428 <ADC_Enable+0x108>)
 8002388:	fba2 2303 	umull	r2, r3, r2, r3
 800238c:	099b      	lsrs	r3, r3, #6
 800238e:	1c5a      	adds	r2, r3, #1
 8002390:	4613      	mov	r3, r2
 8002392:	005b      	lsls	r3, r3, #1
 8002394:	4413      	add	r3, r2
 8002396:	009b      	lsls	r3, r3, #2
 8002398:	60bb      	str	r3, [r7, #8]
 800239a:	e002      	b.n	80023a2 <ADC_Enable+0x82>
 800239c:	68bb      	ldr	r3, [r7, #8]
 800239e:	3b01      	subs	r3, #1
 80023a0:	60bb      	str	r3, [r7, #8]
 80023a2:	68bb      	ldr	r3, [r7, #8]
 80023a4:	2b00      	cmp	r3, #0
 80023a6:	d1f9      	bne.n	800239c <ADC_Enable+0x7c>
 80023a8:	f7fe fe24 	bl	8000ff4 <HAL_GetTick>
 80023ac:	60f8      	str	r0, [r7, #12]
 80023ae:	e028      	b.n	8002402 <ADC_Enable+0xe2>
 80023b0:	687b      	ldr	r3, [r7, #4]
 80023b2:	681b      	ldr	r3, [r3, #0]
 80023b4:	4618      	mov	r0, r3
 80023b6:	f7ff f83d 	bl	8001434 <LL_ADC_IsEnabled>
 80023ba:	4603      	mov	r3, r0
 80023bc:	2b00      	cmp	r3, #0
 80023be:	d104      	bne.n	80023ca <ADC_Enable+0xaa>
 80023c0:	687b      	ldr	r3, [r7, #4]
 80023c2:	681b      	ldr	r3, [r3, #0]
 80023c4:	4618      	mov	r0, r3
 80023c6:	f7ff f80d 	bl	80013e4 <LL_ADC_Enable>
 80023ca:	f7fe fe13 	bl	8000ff4 <HAL_GetTick>
 80023ce:	4602      	mov	r2, r0
 80023d0:	68fb      	ldr	r3, [r7, #12]
 80023d2:	1ad3      	subs	r3, r2, r3
 80023d4:	2b02      	cmp	r3, #2
 80023d6:	d914      	bls.n	8002402 <ADC_Enable+0xe2>
 80023d8:	687b      	ldr	r3, [r7, #4]
 80023da:	681b      	ldr	r3, [r3, #0]
 80023dc:	681b      	ldr	r3, [r3, #0]
 80023de:	f003 0301 	and.w	r3, r3, #1
 80023e2:	2b01      	cmp	r3, #1
 80023e4:	d00d      	beq.n	8002402 <ADC_Enable+0xe2>
 80023e6:	687b      	ldr	r3, [r7, #4]
 80023e8:	6ddb      	ldr	r3, [r3, #92]	@ 0x5c
 80023ea:	f043 0210 	orr.w	r2, r3, #16
 80023ee:	687b      	ldr	r3, [r7, #4]
 80023f0:	65da      	str	r2, [r3, #92]	@ 0x5c
 80023f2:	687b      	ldr	r3, [r7, #4]
 80023f4:	6e1b      	ldr	r3, [r3, #96]	@ 0x60
 80023f6:	f043 0201 	orr.w	r2, r3, #1
 80023fa:	687b      	ldr	r3, [r7, #4]
 80023fc:	661a      	str	r2, [r3, #96]	@ 0x60
 80023fe:	2301      	movs	r3, #1
 8002400:	e007      	b.n	8002412 <ADC_Enable+0xf2>
 8002402:	687b      	ldr	r3, [r7, #4]
 8002404:	681b      	ldr	r3, [r3, #0]
 8002406:	681b      	ldr	r3, [r3, #0]
 8002408:	f003 0301 	and.w	r3, r3, #1
 800240c:	2b01      	cmp	r3, #1
 800240e:	d1cf      	bne.n	80023b0 <ADC_Enable+0x90>
 8002410:	2300      	movs	r3, #0
 8002412:	4618      	mov	r0, r3
 8002414:	3710      	adds	r7, #16
 8002416:	46bd      	mov	sp, r7
 8002418:	bd80      	pop	{r7, pc}
 800241a:	bf00      	nop
 800241c:	8000003f 	.word	0x8000003f
 8002420:	50000300 	.word	0x50000300
 8002424:	20000000 	.word	0x20000000
 8002428:	053e2d63 	.word	0x053e2d63

0800242c <ADC_Disable>:
 800242c:	b580      	push	{r7, lr}
 800242e:	b084      	sub	sp, #16
 8002430:	af00      	add	r7, sp, #0
 8002432:	6078      	str	r0, [r7, #4]
 8002434:	687b      	ldr	r3, [r7, #4]
 8002436:	681b      	ldr	r3, [r3, #0]
 8002438:	4618      	mov	r0, r3
 800243a:	f7ff f80e 	bl	800145a <LL_ADC_IsDisableOngoing>
 800243e:	60f8      	str	r0, [r7, #12]
 8002440:	687b      	ldr	r3, [r7, #4]
 8002442:	681b      	ldr	r3, [r3, #0]
 8002444:	4618      	mov	r0, r3
 8002446:	f7fe fff5 	bl	8001434 <LL_ADC_IsEnabled>
 800244a:	4603      	mov	r3, r0
 800244c:	2b00      	cmp	r3, #0
 800244e:	d047      	beq.n	80024e0 <ADC_Disable+0xb4>
 8002450:	68fb      	ldr	r3, [r7, #12]
 8002452:	2b00      	cmp	r3, #0
 8002454:	d144      	bne.n	80024e0 <ADC_Disable+0xb4>
 8002456:	687b      	ldr	r3, [r7, #4]
 8002458:	681b      	ldr	r3, [r3, #0]
 800245a:	689b      	ldr	r3, [r3, #8]
 800245c:	f003 030d 	and.w	r3, r3, #13
 8002460:	2b01      	cmp	r3, #1
 8002462:	d10c      	bne.n	800247e <ADC_Disable+0x52>
 8002464:	687b      	ldr	r3, [r7, #4]
 8002466:	681b      	ldr	r3, [r3, #0]
 8002468:	4618      	mov	r0, r3
 800246a:	f7fe ffcf 	bl	800140c <LL_ADC_Disable>
 800246e:	687b      	ldr	r3, [r7, #4]
 8002470:	681b      	ldr	r3, [r3, #0]
 8002472:	2203      	movs	r2, #3
 8002474:	601a      	str	r2, [r3, #0]
 8002476:	f7fe fdbd 	bl	8000ff4 <HAL_GetTick>
 800247a:	60b8      	str	r0, [r7, #8]
 800247c:	e029      	b.n	80024d2 <ADC_Disable+0xa6>
 800247e:	687b      	ldr	r3, [r7, #4]
 8002480:	6ddb      	ldr	r3, [r3, #92]	@ 0x5c
 8002482:	f043 0210 	orr.w	r2, r3, #16
 8002486:	687b      	ldr	r3, [r7, #4]
 8002488:	65da      	str	r2, [r3, #92]	@ 0x5c
 800248a:	687b      	ldr	r3, [r7, #4]
 800248c:	6e1b      	ldr	r3, [r3, #96]	@ 0x60
 800248e:	f043 0201 	orr.w	r2, r3, #1
 8002492:	687b      	ldr	r3, [r7, #4]
 8002494:	661a      	str	r2, [r3, #96]	@ 0x60
 8002496:	2301      	movs	r3, #1
 8002498:	e023      	b.n	80024e2 <ADC_Disable+0xb6>
 800249a:	f7fe fdab 	bl	8000ff4 <HAL_GetTick>
 800249e:	4602      	mov	r2, r0
 80024a0:	68bb      	ldr	r3, [r7, #8]
 80024a2:	1ad3      	subs	r3, r2, r3
 80024a4:	2b02      	cmp	r3, #2
 80024a6:	d914      	bls.n	80024d2 <ADC_Disable+0xa6>
 80024a8:	687b      	ldr	r3, [r7, #4]
 80024aa:	681b      	ldr	r3, [r3, #0]
 80024ac:	689b      	ldr	r3, [r3, #8]
 80024ae:	f003 0301 	and.w	r3, r3, #1
 80024b2:	2b00      	cmp	r3, #0
 80024b4:	d00d      	beq.n	80024d2 <ADC_Disable+0xa6>
 80024b6:	687b      	ldr	r3, [r7, #4]
 80024b8:	6ddb      	ldr	r3, [r3, #92]	@ 0x5c
 80024ba:	f043 0210 	orr.w	r2, r3, #16
 80024be:	687b      	ldr	r3, [r7, #4]
 80024c0:	65da      	str	r2, [r3, #92]	@ 0x5c
 80024c2:	687b      	ldr	r3, [r7, #4]
 80024c4:	6e1b      	ldr	r3, [r3, #96]	@ 0x60
 80024c6:	f043 0201 	orr.w	r2, r3, #1
 80024ca:	687b      	ldr	r3, [r7, #4]
 80024cc:	661a      	str	r2, [r3, #96]	@ 0x60
 80024ce:	2301      	movs	r3, #1
 80024d0:	e007      	b.n	80024e2 <ADC_Disable+0xb6>
 80024d2:	687b      	ldr	r3, [r7, #4]
 80024d4:	681b      	ldr	r3, [r3, #0]
 80024d6:	689b      	ldr	r3, [r3, #8]
 80024d8:	f003 0301 	and.w	r3, r3, #1
 80024dc:	2b00      	cmp	r3, #0
 80024de:	d1dc      	bne.n	800249a <ADC_Disable+0x6e>
 80024e0:	2300      	movs	r3, #0
 80024e2:	4618      	mov	r0, r3
 80024e4:	3710      	adds	r7, #16
 80024e6:	46bd      	mov	sp, r7
 80024e8:	bd80      	pop	{r7, pc}

080024ea <LL_ADC_IsEnabled>:
 80024ea:	b480      	push	{r7}
 80024ec:	b083      	sub	sp, #12
 80024ee:	af00      	add	r7, sp, #0
 80024f0:	6078      	str	r0, [r7, #4]
 80024f2:	687b      	ldr	r3, [r7, #4]
 80024f4:	689b      	ldr	r3, [r3, #8]
 80024f6:	f003 0301 	and.w	r3, r3, #1
 80024fa:	2b01      	cmp	r3, #1
 80024fc:	d101      	bne.n	8002502 <LL_ADC_IsEnabled+0x18>
 80024fe:	2301      	movs	r3, #1
 8002500:	e000      	b.n	8002504 <LL_ADC_IsEnabled+0x1a>
 8002502:	2300      	movs	r3, #0
 8002504:	4618      	mov	r0, r3
 8002506:	370c      	adds	r7, #12
 8002508:	46bd      	mov	sp, r7
 800250a:	f85d 7b04 	ldr.w	r7, [sp], #4
 800250e:	4770      	bx	lr

08002510 <LL_ADC_StartCalibration>:
 8002510:	b480      	push	{r7}
 8002512:	b083      	sub	sp, #12
 8002514:	af00      	add	r7, sp, #0
 8002516:	6078      	str	r0, [r7, #4]
 8002518:	6039      	str	r1, [r7, #0]
 800251a:	687b      	ldr	r3, [r7, #4]
 800251c:	689b      	ldr	r3, [r3, #8]
 800251e:	f023 4340 	bic.w	r3, r3, #3221225472	@ 0xc0000000
 8002522:	f023 033f 	bic.w	r3, r3, #63	@ 0x3f
 8002526:	683a      	ldr	r2, [r7, #0]
 8002528:	f002 4280 	and.w	r2, r2, #1073741824	@ 0x40000000
 800252c:	4313      	orrs	r3, r2
 800252e:	f043 4200 	orr.w	r2, r3, #2147483648	@ 0x80000000
 8002532:	687b      	ldr	r3, [r7, #4]
 8002534:	609a      	str	r2, [r3, #8]
 8002536:	bf00      	nop
 8002538:	370c      	adds	r7, #12
 800253a:	46bd      	mov	sp, r7
 800253c:	f85d 7b04 	ldr.w	r7, [sp], #4
 8002540:	4770      	bx	lr

08002542 <LL_ADC_IsCalibrationOnGoing>:
 8002542:	b480      	push	{r7}
 8002544:	b083      	sub	sp, #12
 8002546:	af00      	add	r7, sp, #0
 8002548:	6078      	str	r0, [r7, #4]
 800254a:	687b      	ldr	r3, [r7, #4]
 800254c:	689b      	ldr	r3, [r3, #8]
 800254e:	f003 4300 	and.w	r3, r3, #2147483648	@ 0x80000000
 8002552:	f1b3 4f00 	cmp.w	r3, #2147483648	@ 0x80000000
 8002556:	d101      	bne.n	800255c <LL_ADC_IsCalibrationOnGoing+0x1a>
 8002558:	2301      	movs	r3, #1
 800255a:	e000      	b.n	800255e <LL_ADC_IsCalibrationOnGoing+0x1c>
 800255c:	2300      	movs	r3, #0
 800255e:	4618      	mov	r0, r3
 8002560:	370c      	adds	r7, #12
 8002562:	46bd      	mov	sp, r7
 8002564:	f85d 7b04 	ldr.w	r7, [sp], #4
 8002568:	4770      	bx	lr

0800256a <LL_ADC_REG_IsConversionOngoing>:
 800256a:	b480      	push	{r7}
 800256c:	b083      	sub	sp, #12
 800256e:	af00      	add	r7, sp, #0
 8002570:	6078      	str	r0, [r7, #4]
 8002572:	687b      	ldr	r3, [r7, #4]
 8002574:	689b      	ldr	r3, [r3, #8]
 8002576:	f003 0304 	and.w	r3, r3, #4
 800257a:	2b04      	cmp	r3, #4
 800257c:	d101      	bne.n	8002582 <LL_ADC_REG_IsConversionOngoing+0x18>
 800257e:	2301      	movs	r3, #1
 8002580:	e000      	b.n	8002584 <LL_ADC_REG_IsConversionOngoing+0x1a>
 8002582:	2300      	movs	r3, #0
 8002584:	4618      	mov	r0, r3
 8002586:	370c      	adds	r7, #12
 8002588:	46bd      	mov	sp, r7
 800258a:	f85d 7b04 	ldr.w	r7, [sp], #4
 800258e:	4770      	bx	lr

08002590 <HAL_ADCEx_Calibration_Start>:
 8002590:	b580      	push	{r7, lr}
 8002592:	b084      	sub	sp, #16
 8002594:	af00      	add	r7, sp, #0
 8002596:	6078      	str	r0, [r7, #4]
 8002598:	6039      	str	r1, [r7, #0]
 800259a:	2300      	movs	r3, #0
 800259c:	60bb      	str	r3, [r7, #8]
 800259e:	687b      	ldr	r3, [r7, #4]
 80025a0:	f893 3058 	ldrb.w	r3, [r3, #88]	@ 0x58
 80025a4:	2b01      	cmp	r3, #1
 80025a6:	d101      	bne.n	80025ac <HAL_ADCEx_Calibration_Start+0x1c>
 80025a8:	2302      	movs	r3, #2
 80025aa:	e04d      	b.n	8002648 <HAL_ADCEx_Calibration_Start+0xb8>
 80025ac:	687b      	ldr	r3, [r7, #4]
 80025ae:	2201      	movs	r2, #1
 80025b0:	f883 2058 	strb.w	r2, [r3, #88]	@ 0x58
 80025b4:	6878      	ldr	r0, [r7, #4]
 80025b6:	f7ff ff39 	bl	800242c <ADC_Disable>
 80025ba:	4603      	mov	r3, r0
 80025bc:	73fb      	strb	r3, [r7, #15]
 80025be:	7bfb      	ldrb	r3, [r7, #15]
 80025c0:	2b00      	cmp	r3, #0
 80025c2:	d136      	bne.n	8002632 <HAL_ADCEx_Calibration_Start+0xa2>
 80025c4:	687b      	ldr	r3, [r7, #4]
 80025c6:	6ddb      	ldr	r3, [r3, #92]	@ 0x5c
 80025c8:	f423 5388 	bic.w	r3, r3, #4352	@ 0x1100
 80025cc:	f023 0302 	bic.w	r3, r3, #2
 80025d0:	f043 0202 	orr.w	r2, r3, #2
 80025d4:	687b      	ldr	r3, [r7, #4]
 80025d6:	65da      	str	r2, [r3, #92]	@ 0x5c
 80025d8:	687b      	ldr	r3, [r7, #4]
 80025da:	681b      	ldr	r3, [r3, #0]
 80025dc:	6839      	ldr	r1, [r7, #0]
 80025de:	4618      	mov	r0, r3
 80025e0:	f7ff ff96 	bl	8002510 <LL_ADC_StartCalibration>
 80025e4:	e014      	b.n	8002610 <HAL_ADCEx_Calibration_Start+0x80>
 80025e6:	68bb      	ldr	r3, [r7, #8]
 80025e8:	3301      	adds	r3, #1
 80025ea:	60bb      	str	r3, [r7, #8]
 80025ec:	68bb      	ldr	r3, [r7, #8]
 80025ee:	4a18      	ldr	r2, [pc, #96]	@ (8002650 <HAL_ADCEx_Calibration_Start+0xc0>)
 80025f0:	4293      	cmp	r3, r2
 80025f2:	d90d      	bls.n	8002610 <HAL_ADCEx_Calibration_Start+0x80>
 80025f4:	687b      	ldr	r3, [r7, #4]
 80025f6:	6ddb      	ldr	r3, [r3, #92]	@ 0x5c
 80025f8:	f023 0312 	bic.w	r3, r3, #18
 80025fc:	f043 0210 	orr.w	r2, r3, #16
 8002600:	687b      	ldr	r3, [r7, #4]
 8002602:	65da      	str	r2, [r3, #92]	@ 0x5c
 8002604:	687b      	ldr	r3, [r7, #4]
 8002606:	2200      	movs	r2, #0
 8002608:	f883 2058 	strb.w	r2, [r3, #88]	@ 0x58
 800260c:	2301      	movs	r3, #1
 800260e:	e01b      	b.n	8002648 <HAL_ADCEx_Calibration_Start+0xb8>
 8002610:	687b      	ldr	r3, [r7, #4]
 8002612:	681b      	ldr	r3, [r3, #0]
 8002614:	4618      	mov	r0, r3
 8002616:	f7ff ff94 	bl	8002542 <LL_ADC_IsCalibrationOnGoing>
 800261a:	4603      	mov	r3, r0
 800261c:	2b00      	cmp	r3, #0
 800261e:	d1e2      	bne.n	80025e6 <HAL_ADCEx_Calibration_Start+0x56>
 8002620:	687b      	ldr	r3, [r7, #4]
 8002622:	6ddb      	ldr	r3, [r3, #92]	@ 0x5c
 8002624:	f023 0303 	bic.w	r3, r3, #3
 8002628:	f043 0201 	orr.w	r2, r3, #1
 800262c:	687b      	ldr	r3, [r7, #4]
 800262e:	65da      	str	r2, [r3, #92]	@ 0x5c
 8002630:	e005      	b.n	800263e <HAL_ADCEx_Calibration_Start+0xae>
 8002632:	687b      	ldr	r3, [r7, #4]
 8002634:	6ddb      	ldr	r3, [r3, #92]	@ 0x5c
 8002636:	f043 0210 	orr.w	r2, r3, #16
 800263a:	687b      	ldr	r3, [r7, #4]
 800263c:	65da      	str	r2, [r3, #92]	@ 0x5c
 800263e:	687b      	ldr	r3, [r7, #4]
 8002640:	2200      	movs	r2, #0
 8002642:	f883 2058 	strb.w	r2, [r3, #88]	@ 0x58
 8002646:	7bfb      	ldrb	r3, [r7, #15]
 8002648:	4618      	mov	r0, r3
 800264a:	3710      	adds	r7, #16
 800264c:	46bd      	mov	sp, r7
 800264e:	bd80      	pop	{r7, pc}
 8002650:	0004de01 	.word	0x0004de01

08002654 <HAL_ADCEx_MultiModeConfigChannel>:
 8002654:	b590      	push	{r4, r7, lr}
 8002656:	b0a1      	sub	sp, #132	@ 0x84
 8002658:	af00      	add	r7, sp, #0
 800265a:	6078      	str	r0, [r7, #4]
 800265c:	6039      	str	r1, [r7, #0]
 800265e:	2300      	movs	r3, #0
 8002660:	f887 307f 	strb.w	r3, [r7, #127]	@ 0x7f
 8002664:	687b      	ldr	r3, [r7, #4]
 8002666:	f893 3058 	ldrb.w	r3, [r3, #88]	@ 0x58
 800266a:	2b01      	cmp	r3, #1
 800266c:	d101      	bne.n	8002672 <HAL_ADCEx_MultiModeConfigChannel+0x1e>
 800266e:	2302      	movs	r3, #2
 8002670:	e08b      	b.n	800278a <HAL_ADCEx_MultiModeConfigChannel+0x136>
 8002672:	687b      	ldr	r3, [r7, #4]
 8002674:	2201      	movs	r2, #1
 8002676:	f883 2058 	strb.w	r2, [r3, #88]	@ 0x58
 800267a:	2300      	movs	r3, #0
 800267c:	667b      	str	r3, [r7, #100]	@ 0x64
 800267e:	2300      	movs	r3, #0
 8002680:	66bb      	str	r3, [r7, #104]	@ 0x68
 8002682:	687b      	ldr	r3, [r7, #4]
 8002684:	681b      	ldr	r3, [r3, #0]
 8002686:	f1b3 4fa0 	cmp.w	r3, #1342177280	@ 0x50000000
 800268a:	d102      	bne.n	8002692 <HAL_ADCEx_MultiModeConfigChannel+0x3e>
 800268c:	4b41      	ldr	r3, [pc, #260]	@ (8002794 <HAL_ADCEx_MultiModeConfigChannel+0x140>)
 800268e:	60bb      	str	r3, [r7, #8]
 8002690:	e001      	b.n	8002696 <HAL_ADCEx_MultiModeConfigChannel+0x42>
 8002692:	2300      	movs	r3, #0
 8002694:	60bb      	str	r3, [r7, #8]
 8002696:	68bb      	ldr	r3, [r7, #8]
 8002698:	2b00      	cmp	r3, #0
 800269a:	d10b      	bne.n	80026b4 <HAL_ADCEx_MultiModeConfigChannel+0x60>
 800269c:	687b      	ldr	r3, [r7, #4]
 800269e:	6ddb      	ldr	r3, [r3, #92]	@ 0x5c
 80026a0:	f043 0220 	orr.w	r2, r3, #32
 80026a4:	687b      	ldr	r3, [r7, #4]
 80026a6:	65da      	str	r2, [r3, #92]	@ 0x5c
 80026a8:	687b      	ldr	r3, [r7, #4]
 80026aa:	2200      	movs	r2, #0
 80026ac:	f883 2058 	strb.w	r2, [r3, #88]	@ 0x58
 80026b0:	2301      	movs	r3, #1
 80026b2:	e06a      	b.n	800278a <HAL_ADCEx_MultiModeConfigChannel+0x136>
 80026b4:	68bb      	ldr	r3, [r7, #8]
 80026b6:	4618      	mov	r0, r3
 80026b8:	f7ff ff57 	bl	800256a <LL_ADC_REG_IsConversionOngoing>
 80026bc:	67b8      	str	r0, [r7, #120]	@ 0x78
 80026be:	687b      	ldr	r3, [r7, #4]
 80026c0:	681b      	ldr	r3, [r3, #0]
 80026c2:	4618      	mov	r0, r3
 80026c4:	f7ff ff51 	bl	800256a <LL_ADC_REG_IsConversionOngoing>
 80026c8:	4603      	mov	r3, r0
 80026ca:	2b00      	cmp	r3, #0
 80026cc:	d14c      	bne.n	8002768 <HAL_ADCEx_MultiModeConfigChannel+0x114>
 80026ce:	6fbb      	ldr	r3, [r7, #120]	@ 0x78
 80026d0:	2b00      	cmp	r3, #0
 80026d2:	d149      	bne.n	8002768 <HAL_ADCEx_MultiModeConfigChannel+0x114>
 80026d4:	4b30      	ldr	r3, [pc, #192]	@ (8002798 <HAL_ADCEx_MultiModeConfigChannel+0x144>)
 80026d6:	677b      	str	r3, [r7, #116]	@ 0x74
 80026d8:	683b      	ldr	r3, [r7, #0]
 80026da:	681b      	ldr	r3, [r3, #0]
 80026dc:	2b00      	cmp	r3, #0
 80026de:	d028      	beq.n	8002732 <HAL_ADCEx_MultiModeConfigChannel+0xde>
 80026e0:	6f7b      	ldr	r3, [r7, #116]	@ 0x74
 80026e2:	689b      	ldr	r3, [r3, #8]
 80026e4:	f423 4260 	bic.w	r2, r3, #57344	@ 0xe000
 80026e8:	683b      	ldr	r3, [r7, #0]
 80026ea:	6859      	ldr	r1, [r3, #4]
 80026ec:	687b      	ldr	r3, [r7, #4]
 80026ee:	f893 3038 	ldrb.w	r3, [r3, #56]	@ 0x38
 80026f2:	035b      	lsls	r3, r3, #13
 80026f4:	430b      	orrs	r3, r1
 80026f6:	431a      	orrs	r2, r3
 80026f8:	6f7b      	ldr	r3, [r7, #116]	@ 0x74
 80026fa:	609a      	str	r2, [r3, #8]
 80026fc:	f04f 40a0 	mov.w	r0, #1342177280	@ 0x50000000
 8002700:	f7ff fef3 	bl	80024ea <LL_ADC_IsEnabled>
 8002704:	4604      	mov	r4, r0
 8002706:	4823      	ldr	r0, [pc, #140]	@ (8002794 <HAL_ADCEx_MultiModeConfigChannel+0x140>)
 8002708:	f7ff feef 	bl	80024ea <LL_ADC_IsEnabled>
 800270c:	4603      	mov	r3, r0
 800270e:	4323      	orrs	r3, r4
 8002710:	2b00      	cmp	r3, #0
 8002712:	d133      	bne.n	800277c <HAL_ADCEx_MultiModeConfigChannel+0x128>
 8002714:	6f7b      	ldr	r3, [r7, #116]	@ 0x74
 8002716:	689b      	ldr	r3, [r3, #8]
 8002718:	f423 6371 	bic.w	r3, r3, #3856	@ 0xf10
 800271c:	f023 030f 	bic.w	r3, r3, #15
 8002720:	683a      	ldr	r2, [r7, #0]
 8002722:	6811      	ldr	r1, [r2, #0]
 8002724:	683a      	ldr	r2, [r7, #0]
 8002726:	6892      	ldr	r2, [r2, #8]
 8002728:	430a      	orrs	r2, r1
 800272a:	431a      	orrs	r2, r3
 800272c:	6f7b      	ldr	r3, [r7, #116]	@ 0x74
 800272e:	609a      	str	r2, [r3, #8]
 8002730:	e024      	b.n	800277c <HAL_ADCEx_MultiModeConfigChannel+0x128>
 8002732:	6f7b      	ldr	r3, [r7, #116]	@ 0x74
 8002734:	689b      	ldr	r3, [r3, #8]
 8002736:	f423 4260 	bic.w	r2, r3, #57344	@ 0xe000
 800273a:	6f7b      	ldr	r3, [r7, #116]	@ 0x74
 800273c:	609a      	str	r2, [r3, #8]
 800273e:	f04f 40a0 	mov.w	r0, #1342177280	@ 0x50000000
 8002742:	f7ff fed2 	bl	80024ea <LL_ADC_IsEnabled>
 8002746:	4604      	mov	r4, r0
 8002748:	4812      	ldr	r0, [pc, #72]	@ (8002794 <HAL_ADCEx_MultiModeConfigChannel+0x140>)
 800274a:	f7ff fece 	bl	80024ea <LL_ADC_IsEnabled>
 800274e:	4603      	mov	r3, r0
 8002750:	4323      	orrs	r3, r4
 8002752:	2b00      	cmp	r3, #0
 8002754:	d112      	bne.n	800277c <HAL_ADCEx_MultiModeConfigChannel+0x128>
 8002756:	6f7b      	ldr	r3, [r7, #116]	@ 0x74
 8002758:	689b      	ldr	r3, [r3, #8]
 800275a:	f423 6371 	bic.w	r3, r3, #3856	@ 0xf10
 800275e:	f023 030f 	bic.w	r3, r3, #15
 8002762:	6f7a      	ldr	r2, [r7, #116]	@ 0x74
 8002764:	6093      	str	r3, [r2, #8]
 8002766:	e009      	b.n	800277c <HAL_ADCEx_MultiModeConfigChannel+0x128>
 8002768:	687b      	ldr	r3, [r7, #4]
 800276a:	6ddb      	ldr	r3, [r3, #92]	@ 0x5c
 800276c:	f043 0220 	orr.w	r2, r3, #32
 8002770:	687b      	ldr	r3, [r7, #4]
 8002772:	65da      	str	r2, [r3, #92]	@ 0x5c
 8002774:	2301      	movs	r3, #1
 8002776:	f887 307f 	strb.w	r3, [r7, #127]	@ 0x7f
 800277a:	e000      	b.n	800277e <HAL_ADCEx_MultiModeConfigChannel+0x12a>
 800277c:	bf00      	nop
 800277e:	687b      	ldr	r3, [r7, #4]
 8002780:	2200      	movs	r2, #0
 8002782:	f883 2058 	strb.w	r2, [r3, #88]	@ 0x58
 8002786:	f897 307f 	ldrb.w	r3, [r7, #127]	@ 0x7f
 800278a:	4618      	mov	r0, r3
 800278c:	3784      	adds	r7, #132	@ 0x84
 800278e:	46bd      	mov	sp, r7
 8002790:	bd90      	pop	{r4, r7, pc}
 8002792:	bf00      	nop
 8002794:	50000100 	.word	0x50000100
 8002798:	50000300 	.word	0x50000300

0800279c <__NVIC_SetPriorityGrouping>:
 800279c:	b480      	push	{r7}
 800279e:	b085      	sub	sp, #20
 80027a0:	af00      	add	r7, sp, #0
 80027a2:	6078      	str	r0, [r7, #4]
 80027a4:	687b      	ldr	r3, [r7, #4]
 80027a6:	f003 0307 	and.w	r3, r3, #7
 80027aa:	60fb      	str	r3, [r7, #12]
 80027ac:	4b0c      	ldr	r3, [pc, #48]	@ (80027e0 <__NVIC_SetPriorityGrouping+0x44>)
 80027ae:	68db      	ldr	r3, [r3, #12]
 80027b0:	60bb      	str	r3, [r7, #8]
 80027b2:	68ba      	ldr	r2, [r7, #8]
 80027b4:	f64f 03ff 	movw	r3, #63743	@ 0xf8ff
 80027b8:	4013      	ands	r3, r2
 80027ba:	60bb      	str	r3, [r7, #8]
 80027bc:	68fb      	ldr	r3, [r7, #12]
 80027be:	021a      	lsls	r2, r3, #8
 80027c0:	68bb      	ldr	r3, [r7, #8]
 80027c2:	4313      	orrs	r3, r2
 80027c4:	f043 63bf 	orr.w	r3, r3, #100139008	@ 0x5f80000
 80027c8:	f443 3300 	orr.w	r3, r3, #131072	@ 0x20000
 80027cc:	60bb      	str	r3, [r7, #8]
 80027ce:	4a04      	ldr	r2, [pc, #16]	@ (80027e0 <__NVIC_SetPriorityGrouping+0x44>)
 80027d0:	68bb      	ldr	r3, [r7, #8]
 80027d2:	60d3      	str	r3, [r2, #12]
 80027d4:	bf00      	nop
 80027d6:	3714      	adds	r7, #20
 80027d8:	46bd      	mov	sp, r7
 80027da:	f85d 7b04 	ldr.w	r7, [sp], #4
 80027de:	4770      	bx	lr
 80027e0:	e000ed00 	.word	0xe000ed00

080027e4 <__NVIC_GetPriorityGrouping>:
 80027e4:	b480      	push	{r7}
 80027e6:	af00      	add	r7, sp, #0
 80027e8:	4b04      	ldr	r3, [pc, #16]	@ (80027fc <__NVIC_GetPriorityGrouping+0x18>)
 80027ea:	68db      	ldr	r3, [r3, #12]
 80027ec:	0a1b      	lsrs	r3, r3, #8
 80027ee:	f003 0307 	and.w	r3, r3, #7
 80027f2:	4618      	mov	r0, r3
 80027f4:	46bd      	mov	sp, r7
 80027f6:	f85d 7b04 	ldr.w	r7, [sp], #4
 80027fa:	4770      	bx	lr
 80027fc:	e000ed00 	.word	0xe000ed00

08002800 <__NVIC_EnableIRQ>:
 8002800:	b480      	push	{r7}
 8002802:	b083      	sub	sp, #12
 8002804:	af00      	add	r7, sp, #0
 8002806:	4603      	mov	r3, r0
 8002808:	71fb      	strb	r3, [r7, #7]
 800280a:	f997 3007 	ldrsb.w	r3, [r7, #7]
 800280e:	2b00      	cmp	r3, #0
 8002810:	db0b      	blt.n	800282a <__NVIC_EnableIRQ+0x2a>
 8002812:	79fb      	ldrb	r3, [r7, #7]
 8002814:	f003 021f 	and.w	r2, r3, #31
 8002818:	4907      	ldr	r1, [pc, #28]	@ (8002838 <__NVIC_EnableIRQ+0x38>)
 800281a:	f997 3007 	ldrsb.w	r3, [r7, #7]
 800281e:	095b      	lsrs	r3, r3, #5
 8002820:	2001      	movs	r0, #1
 8002822:	fa00 f202 	lsl.w	r2, r0, r2
 8002826:	f841 2023 	str.w	r2, [r1, r3, lsl #2]
 800282a:	bf00      	nop
 800282c:	370c      	adds	r7, #12
 800282e:	46bd      	mov	sp, r7
 8002830:	f85d 7b04 	ldr.w	r7, [sp], #4
 8002834:	4770      	bx	lr
 8002836:	bf00      	nop
 8002838:	e000e100 	.word	0xe000e100

0800283c <__NVIC_SetPriority>:
 800283c:	b480      	push	{r7}
 800283e:	b083      	sub	sp, #12
 8002840:	af00      	add	r7, sp, #0
 8002842:	4603      	mov	r3, r0
 8002844:	6039      	str	r1, [r7, #0]
 8002846:	71fb      	strb	r3, [r7, #7]
 8002848:	f997 3007 	ldrsb.w	r3, [r7, #7]
 800284c:	2b00      	cmp	r3, #0
 800284e:	db0a      	blt.n	8002866 <__NVIC_SetPriority+0x2a>
 8002850:	683b      	ldr	r3, [r7, #0]
 8002852:	b2da      	uxtb	r2, r3
 8002854:	490c      	ldr	r1, [pc, #48]	@ (8002888 <__NVIC_SetPriority+0x4c>)
 8002856:	f997 3007 	ldrsb.w	r3, [r7, #7]
 800285a:	0112      	lsls	r2, r2, #4
 800285c:	b2d2      	uxtb	r2, r2
 800285e:	440b      	add	r3, r1
 8002860:	f883 2300 	strb.w	r2, [r3, #768]	@ 0x300
 8002864:	e00a      	b.n	800287c <__NVIC_SetPriority+0x40>
 8002866:	683b      	ldr	r3, [r7, #0]
 8002868:	b2da      	uxtb	r2, r3
 800286a:	4908      	ldr	r1, [pc, #32]	@ (800288c <__NVIC_SetPriority+0x50>)
 800286c:	79fb      	ldrb	r3, [r7, #7]
 800286e:	f003 030f 	and.w	r3, r3, #15
 8002872:	3b04      	subs	r3, #4
 8002874:	0112      	lsls	r2, r2, #4
 8002876:	b2d2      	uxtb	r2, r2
 8002878:	440b      	add	r3, r1
 800287a:	761a      	strb	r2, [r3, #24]
 800287c:	bf00      	nop
 800287e:	370c      	adds	r7, #12
 8002880:	46bd      	mov	sp, r7
 8002882:	f85d 7b04 	ldr.w	r7, [sp], #4
 8002886:	4770      	bx	lr
 8002888:	e000e100 	.word	0xe000e100
 800288c:	e000ed00 	.word	0xe000ed00

08002890 <NVIC_EncodePriority>:
 8002890:	b480      	push	{r7}
 8002892:	b089      	sub	sp, #36	@ 0x24
 8002894:	af00      	add	r7, sp, #0
 8002896:	60f8      	str	r0, [r7, #12]
 8002898:	60b9      	str	r1, [r7, #8]
 800289a:	607a      	str	r2, [r7, #4]
 800289c:	68fb      	ldr	r3, [r7, #12]
 800289e:	f003 0307 	and.w	r3, r3, #7
 80028a2:	61fb      	str	r3, [r7, #28]
 80028a4:	69fb      	ldr	r3, [r7, #28]
 80028a6:	f1c3 0307 	rsb	r3, r3, #7
 80028aa:	2b04      	cmp	r3, #4
 80028ac:	bf28      	it	cs
 80028ae:	2304      	movcs	r3, #4
 80028b0:	61bb      	str	r3, [r7, #24]
 80028b2:	69fb      	ldr	r3, [r7, #28]
 80028b4:	3304      	adds	r3, #4
 80028b6:	2b06      	cmp	r3, #6
 80028b8:	d902      	bls.n	80028c0 <NVIC_EncodePriority+0x30>
 80028ba:	69fb      	ldr	r3, [r7, #28]
 80028bc:	3b03      	subs	r3, #3
 80028be:	e000      	b.n	80028c2 <NVIC_EncodePriority+0x32>
 80028c0:	2300      	movs	r3, #0
 80028c2:	617b      	str	r3, [r7, #20]
 80028c4:	f04f 32ff 	mov.w	r2, #4294967295	@ 0xffffffff
 80028c8:	69bb      	ldr	r3, [r7, #24]
 80028ca:	fa02 f303 	lsl.w	r3, r2, r3
 80028ce:	43da      	mvns	r2, r3
 80028d0:	68bb      	ldr	r3, [r7, #8]
 80028d2:	401a      	ands	r2, r3
 80028d4:	697b      	ldr	r3, [r7, #20]
 80028d6:	409a      	lsls	r2, r3
 80028d8:	f04f 31ff 	mov.w	r1, #4294967295	@ 0xffffffff
 80028dc:	697b      	ldr	r3, [r7, #20]
 80028de:	fa01 f303 	lsl.w	r3, r1, r3
 80028e2:	43d9      	mvns	r1, r3
 80028e4:	687b      	ldr	r3, [r7, #4]
 80028e6:	400b      	ands	r3, r1
 80028e8:	4313      	orrs	r3, r2
 80028ea:	4618      	mov	r0, r3
 80028ec:	3724      	adds	r7, #36	@ 0x24
 80028ee:	46bd      	mov	sp, r7
 80028f0:	f85d 7b04 	ldr.w	r7, [sp], #4
 80028f4:	4770      	bx	lr
	...

080028f8 <SysTick_Config>:
 80028f8:	b580      	push	{r7, lr}
 80028fa:	b082      	sub	sp, #8
 80028fc:	af00      	add	r7, sp, #0
 80028fe:	6078      	str	r0, [r7, #4]
 8002900:	687b      	ldr	r3, [r7, #4]
 8002902:	3b01      	subs	r3, #1
 8002904:	f1b3 7f80 	cmp.w	r3, #16777216	@ 0x1000000
 8002908:	d301      	bcc.n	800290e <SysTick_Config+0x16>
 800290a:	2301      	movs	r3, #1
 800290c:	e00f      	b.n	800292e <SysTick_Config+0x36>
 800290e:	4a0a      	ldr	r2, [pc, #40]	@ (8002938 <SysTick_Config+0x40>)
 8002910:	687b      	ldr	r3, [r7, #4]
 8002912:	3b01      	subs	r3, #1
 8002914:	6053      	str	r3, [r2, #4]
 8002916:	210f      	movs	r1, #15
 8002918:	f04f 30ff 	mov.w	r0, #4294967295	@ 0xffffffff
 800291c:	f7ff ff8e 	bl	800283c <__NVIC_SetPriority>
 8002920:	4b05      	ldr	r3, [pc, #20]	@ (8002938 <SysTick_Config+0x40>)
 8002922:	2200      	movs	r2, #0
 8002924:	609a      	str	r2, [r3, #8]
 8002926:	4b04      	ldr	r3, [pc, #16]	@ (8002938 <SysTick_Config+0x40>)
 8002928:	2207      	movs	r2, #7
 800292a:	601a      	str	r2, [r3, #0]
 800292c:	2300      	movs	r3, #0
 800292e:	4618      	mov	r0, r3
 8002930:	3708      	adds	r7, #8
 8002932:	46bd      	mov	sp, r7
 8002934:	bd80      	pop	{r7, pc}
 8002936:	bf00      	nop
 8002938:	e000e010 	.word	0xe000e010

0800293c <HAL_NVIC_SetPriorityGrouping>:
 800293c:	b580      	push	{r7, lr}
 800293e:	b082      	sub	sp, #8
 8002940:	af00      	add	r7, sp, #0
 8002942:	6078      	str	r0, [r7, #4]
 8002944:	6878      	ldr	r0, [r7, #4]
 8002946:	f7ff ff29 	bl	800279c <__NVIC_SetPriorityGrouping>
 800294a:	bf00      	nop
 800294c:	3708      	adds	r7, #8
 800294e:	46bd      	mov	sp, r7
 8002950:	bd80      	pop	{r7, pc}

08002952 <HAL_NVIC_SetPriority>:
 8002952:	b580      	push	{r7, lr}
 8002954:	b086      	sub	sp, #24
 8002956:	af00      	add	r7, sp, #0
 8002958:	4603      	mov	r3, r0
 800295a:	60b9      	str	r1, [r7, #8]
 800295c:	607a      	str	r2, [r7, #4]
 800295e:	73fb      	strb	r3, [r7, #15]
 8002960:	f7ff ff40 	bl	80027e4 <__NVIC_GetPriorityGrouping>
 8002964:	6178      	str	r0, [r7, #20]
 8002966:	687a      	ldr	r2, [r7, #4]
 8002968:	68b9      	ldr	r1, [r7, #8]
 800296a:	6978      	ldr	r0, [r7, #20]
 800296c:	f7ff ff90 	bl	8002890 <NVIC_EncodePriority>
 8002970:	4602      	mov	r2, r0
 8002972:	f997 300f 	ldrsb.w	r3, [r7, #15]
 8002976:	4611      	mov	r1, r2
 8002978:	4618      	mov	r0, r3
 800297a:	f7ff ff5f 	bl	800283c <__NVIC_SetPriority>
 800297e:	bf00      	nop
 8002980:	3718      	adds	r7, #24
 8002982:	46bd      	mov	sp, r7
 8002984:	bd80      	pop	{r7, pc}

08002986 <HAL_NVIC_EnableIRQ>:
 8002986:	b580      	push	{r7, lr}
 8002988:	b082      	sub	sp, #8
 800298a:	af00      	add	r7, sp, #0
 800298c:	4603      	mov	r3, r0
 800298e:	71fb      	strb	r3, [r7, #7]
 8002990:	f997 3007 	ldrsb.w	r3, [r7, #7]
 8002994:	4618      	mov	r0, r3
 8002996:	f7ff ff33 	bl	8002800 <__NVIC_EnableIRQ>
 800299a:	bf00      	nop
 800299c:	3708      	adds	r7, #8
 800299e:	46bd      	mov	sp, r7
 80029a0:	bd80      	pop	{r7, pc}

080029a2 <HAL_SYSTICK_Config>:
 80029a2:	b580      	push	{r7, lr}
 80029a4:	b082      	sub	sp, #8
 80029a6:	af00      	add	r7, sp, #0
 80029a8:	6078      	str	r0, [r7, #4]
 80029aa:	6878      	ldr	r0, [r7, #4]
 80029ac:	f7ff ffa4 	bl	80028f8 <SysTick_Config>
 80029b0:	4603      	mov	r3, r0
 80029b2:	4618      	mov	r0, r3
 80029b4:	3708      	adds	r7, #8
 80029b6:	46bd      	mov	sp, r7
 80029b8:	bd80      	pop	{r7, pc}
	...

080029bc <HAL_GPIO_Init>:
 80029bc:	b480      	push	{r7}
 80029be:	b087      	sub	sp, #28
 80029c0:	af00      	add	r7, sp, #0
 80029c2:	6078      	str	r0, [r7, #4]
 80029c4:	6039      	str	r1, [r7, #0]
 80029c6:	2300      	movs	r3, #0
 80029c8:	617b      	str	r3, [r7, #20]
 80029ca:	e15a      	b.n	8002c82 <HAL_GPIO_Init+0x2c6>
 80029cc:	683b      	ldr	r3, [r7, #0]
 80029ce:	681a      	ldr	r2, [r3, #0]
 80029d0:	2101      	movs	r1, #1
 80029d2:	697b      	ldr	r3, [r7, #20]
 80029d4:	fa01 f303 	lsl.w	r3, r1, r3
 80029d8:	4013      	ands	r3, r2
 80029da:	60fb      	str	r3, [r7, #12]
 80029dc:	68fb      	ldr	r3, [r7, #12]
 80029de:	2b00      	cmp	r3, #0
 80029e0:	f000 814c 	beq.w	8002c7c <HAL_GPIO_Init+0x2c0>
 80029e4:	683b      	ldr	r3, [r7, #0]
 80029e6:	685b      	ldr	r3, [r3, #4]
 80029e8:	f003 0303 	and.w	r3, r3, #3
 80029ec:	2b01      	cmp	r3, #1
 80029ee:	d005      	beq.n	80029fc <HAL_GPIO_Init+0x40>
 80029f0:	683b      	ldr	r3, [r7, #0]
 80029f2:	685b      	ldr	r3, [r3, #4]
 80029f4:	f003 0303 	and.w	r3, r3, #3
 80029f8:	2b02      	cmp	r3, #2
 80029fa:	d130      	bne.n	8002a5e <HAL_GPIO_Init+0xa2>
 80029fc:	687b      	ldr	r3, [r7, #4]
 80029fe:	689b      	ldr	r3, [r3, #8]
 8002a00:	613b      	str	r3, [r7, #16]
 8002a02:	697b      	ldr	r3, [r7, #20]
 8002a04:	005b      	lsls	r3, r3, #1
 8002a06:	2203      	movs	r2, #3
 8002a08:	fa02 f303 	lsl.w	r3, r2, r3
 8002a0c:	43db      	mvns	r3, r3
 8002a0e:	693a      	ldr	r2, [r7, #16]
 8002a10:	4013      	ands	r3, r2
 8002a12:	613b      	str	r3, [r7, #16]
 8002a14:	683b      	ldr	r3, [r7, #0]
 8002a16:	68da      	ldr	r2, [r3, #12]
 8002a18:	697b      	ldr	r3, [r7, #20]
 8002a1a:	005b      	lsls	r3, r3, #1
 8002a1c:	fa02 f303 	lsl.w	r3, r2, r3
 8002a20:	693a      	ldr	r2, [r7, #16]
 8002a22:	4313      	orrs	r3, r2
 8002a24:	613b      	str	r3, [r7, #16]
 8002a26:	687b      	ldr	r3, [r7, #4]
 8002a28:	693a      	ldr	r2, [r7, #16]
 8002a2a:	609a      	str	r2, [r3, #8]
 8002a2c:	687b      	ldr	r3, [r7, #4]
 8002a2e:	685b      	ldr	r3, [r3, #4]
 8002a30:	613b      	str	r3, [r7, #16]
 8002a32:	2201      	movs	r2, #1
 8002a34:	697b      	ldr	r3, [r7, #20]
 8002a36:	fa02 f303 	lsl.w	r3, r2, r3
 8002a3a:	43db      	mvns	r3, r3
 8002a3c:	693a      	ldr	r2, [r7, #16]
 8002a3e:	4013      	ands	r3, r2
 8002a40:	613b      	str	r3, [r7, #16]
 8002a42:	683b      	ldr	r3, [r7, #0]
 8002a44:	685b      	ldr	r3, [r3, #4]
 8002a46:	091b      	lsrs	r3, r3, #4
 8002a48:	f003 0201 	and.w	r2, r3, #1
 8002a4c:	697b      	ldr	r3, [r7, #20]
 8002a4e:	fa02 f303 	lsl.w	r3, r2, r3
 8002a52:	693a      	ldr	r2, [r7, #16]
 8002a54:	4313      	orrs	r3, r2
 8002a56:	613b      	str	r3, [r7, #16]
 8002a58:	687b      	ldr	r3, [r7, #4]
 8002a5a:	693a      	ldr	r2, [r7, #16]
 8002a5c:	605a      	str	r2, [r3, #4]
 8002a5e:	683b      	ldr	r3, [r7, #0]
 8002a60:	685b      	ldr	r3, [r3, #4]
 8002a62:	f003 0303 	and.w	r3, r3, #3
 8002a66:	2b03      	cmp	r3, #3
 8002a68:	d017      	beq.n	8002a9a <HAL_GPIO_Init+0xde>
 8002a6a:	687b      	ldr	r3, [r7, #4]
 8002a6c:	68db      	ldr	r3, [r3, #12]
 8002a6e:	613b      	str	r3, [r7, #16]
 8002a70:	697b      	ldr	r3, [r7, #20]
 8002a72:	005b      	lsls	r3, r3, #1
 8002a74:	2203      	movs	r2, #3
 8002a76:	fa02 f303 	lsl.w	r3, r2, r3
 8002a7a:	43db      	mvns	r3, r3
 8002a7c:	693a      	ldr	r2, [r7, #16]
 8002a7e:	4013      	ands	r3, r2
 8002a80:	613b      	str	r3, [r7, #16]
 8002a82:	683b      	ldr	r3, [r7, #0]
 8002a84:	689a      	ldr	r2, [r3, #8]
 8002a86:	697b      	ldr	r3, [r7, #20]
 8002a88:	005b      	lsls	r3, r3, #1
 8002a8a:	fa02 f303 	lsl.w	r3, r2, r3
 8002a8e:	693a      	ldr	r2, [r7, #16]
 8002a90:	4313      	orrs	r3, r2
 8002a92:	613b      	str	r3, [r7, #16]
 8002a94:	687b      	ldr	r3, [r7, #4]
 8002a96:	693a      	ldr	r2, [r7, #16]
 8002a98:	60da      	str	r2, [r3, #12]
 8002a9a:	683b      	ldr	r3, [r7, #0]
 8002a9c:	685b      	ldr	r3, [r3, #4]
 8002a9e:	f003 0303 	and.w	r3, r3, #3
 8002aa2:	2b02      	cmp	r3, #2
 8002aa4:	d123      	bne.n	8002aee <HAL_GPIO_Init+0x132>
 8002aa6:	697b      	ldr	r3, [r7, #20]
 8002aa8:	08da      	lsrs	r2, r3, #3
 8002aaa:	687b      	ldr	r3, [r7, #4]
 8002aac:	3208      	adds	r2, #8
 8002aae:	f853 3022 	ldr.w	r3, [r3, r2, lsl #2]
 8002ab2:	613b      	str	r3, [r7, #16]
 8002ab4:	697b      	ldr	r3, [r7, #20]
 8002ab6:	f003 0307 	and.w	r3, r3, #7
 8002aba:	009b      	lsls	r3, r3, #2
 8002abc:	220f      	movs	r2, #15
 8002abe:	fa02 f303 	lsl.w	r3, r2, r3
 8002ac2:	43db      	mvns	r3, r3
 8002ac4:	693a      	ldr	r2, [r7, #16]
 8002ac6:	4013      	ands	r3, r2
 8002ac8:	613b      	str	r3, [r7, #16]
 8002aca:	683b      	ldr	r3, [r7, #0]
 8002acc:	691a      	ldr	r2, [r3, #16]
 8002ace:	697b      	ldr	r3, [r7, #20]
 8002ad0:	f003 0307 	and.w	r3, r3, #7
 8002ad4:	009b      	lsls	r3, r3, #2
 8002ad6:	fa02 f303 	lsl.w	r3, r2, r3
 8002ada:	693a      	ldr	r2, [r7, #16]
 8002adc:	4313      	orrs	r3, r2
 8002ade:	613b      	str	r3, [r7, #16]
 8002ae0:	697b      	ldr	r3, [r7, #20]
 8002ae2:	08da      	lsrs	r2, r3, #3
 8002ae4:	687b      	ldr	r3, [r7, #4]
 8002ae6:	3208      	adds	r2, #8
 8002ae8:	6939      	ldr	r1, [r7, #16]
 8002aea:	f843 1022 	str.w	r1, [r3, r2, lsl #2]
 8002aee:	687b      	ldr	r3, [r7, #4]
 8002af0:	681b      	ldr	r3, [r3, #0]
 8002af2:	613b      	str	r3, [r7, #16]
 8002af4:	697b      	ldr	r3, [r7, #20]
 8002af6:	005b      	lsls	r3, r3, #1
 8002af8:	2203      	movs	r2, #3
 8002afa:	fa02 f303 	lsl.w	r3, r2, r3
 8002afe:	43db      	mvns	r3, r3
 8002b00:	693a      	ldr	r2, [r7, #16]
 8002b02:	4013      	ands	r3, r2
 8002b04:	613b      	str	r3, [r7, #16]
 8002b06:	683b      	ldr	r3, [r7, #0]
 8002b08:	685b      	ldr	r3, [r3, #4]
 8002b0a:	f003 0203 	and.w	r2, r3, #3
 8002b0e:	697b      	ldr	r3, [r7, #20]
 8002b10:	005b      	lsls	r3, r3, #1
 8002b12:	fa02 f303 	lsl.w	r3, r2, r3
 8002b16:	693a      	ldr	r2, [r7, #16]
 8002b18:	4313      	orrs	r3, r2
 8002b1a:	613b      	str	r3, [r7, #16]
 8002b1c:	687b      	ldr	r3, [r7, #4]
 8002b1e:	693a      	ldr	r2, [r7, #16]
 8002b20:	601a      	str	r2, [r3, #0]
 8002b22:	683b      	ldr	r3, [r7, #0]
 8002b24:	685b      	ldr	r3, [r3, #4]
 8002b26:	f403 3340 	and.w	r3, r3, #196608	@ 0x30000
 8002b2a:	2b00      	cmp	r3, #0
 8002b2c:	f000 80a6 	beq.w	8002c7c <HAL_GPIO_Init+0x2c0>
 8002b30:	4b5b      	ldr	r3, [pc, #364]	@ (8002ca0 <HAL_GPIO_Init+0x2e4>)
 8002b32:	6e1b      	ldr	r3, [r3, #96]	@ 0x60
 8002b34:	4a5a      	ldr	r2, [pc, #360]	@ (8002ca0 <HAL_GPIO_Init+0x2e4>)
 8002b36:	f043 0301 	orr.w	r3, r3, #1
 8002b3a:	6613      	str	r3, [r2, #96]	@ 0x60
 8002b3c:	4b58      	ldr	r3, [pc, #352]	@ (8002ca0 <HAL_GPIO_Init+0x2e4>)
 8002b3e:	6e1b      	ldr	r3, [r3, #96]	@ 0x60
 8002b40:	f003 0301 	and.w	r3, r3, #1
 8002b44:	60bb      	str	r3, [r7, #8]
 8002b46:	68bb      	ldr	r3, [r7, #8]
 8002b48:	4a56      	ldr	r2, [pc, #344]	@ (8002ca4 <HAL_GPIO_Init+0x2e8>)
 8002b4a:	697b      	ldr	r3, [r7, #20]
 8002b4c:	089b      	lsrs	r3, r3, #2
 8002b4e:	3302      	adds	r3, #2
 8002b50:	f852 3023 	ldr.w	r3, [r2, r3, lsl #2]
 8002b54:	613b      	str	r3, [r7, #16]
 8002b56:	697b      	ldr	r3, [r7, #20]
 8002b58:	f003 0303 	and.w	r3, r3, #3
 8002b5c:	009b      	lsls	r3, r3, #2
 8002b5e:	220f      	movs	r2, #15
 8002b60:	fa02 f303 	lsl.w	r3, r2, r3
 8002b64:	43db      	mvns	r3, r3
 8002b66:	693a      	ldr	r2, [r7, #16]
 8002b68:	4013      	ands	r3, r2
 8002b6a:	613b      	str	r3, [r7, #16]
 8002b6c:	687b      	ldr	r3, [r7, #4]
 8002b6e:	f1b3 4f90 	cmp.w	r3, #1207959552	@ 0x48000000
 8002b72:	d01f      	beq.n	8002bb4 <HAL_GPIO_Init+0x1f8>
 8002b74:	687b      	ldr	r3, [r7, #4]
 8002b76:	4a4c      	ldr	r2, [pc, #304]	@ (8002ca8 <HAL_GPIO_Init+0x2ec>)
 8002b78:	4293      	cmp	r3, r2
 8002b7a:	d019      	beq.n	8002bb0 <HAL_GPIO_Init+0x1f4>
 8002b7c:	687b      	ldr	r3, [r7, #4]
 8002b7e:	4a4b      	ldr	r2, [pc, #300]	@ (8002cac <HAL_GPIO_Init+0x2f0>)
 8002b80:	4293      	cmp	r3, r2
 8002b82:	d013      	beq.n	8002bac <HAL_GPIO_Init+0x1f0>
 8002b84:	687b      	ldr	r3, [r7, #4]
 8002b86:	4a4a      	ldr	r2, [pc, #296]	@ (8002cb0 <HAL_GPIO_Init+0x2f4>)
 8002b88:	4293      	cmp	r3, r2
 8002b8a:	d00d      	beq.n	8002ba8 <HAL_GPIO_Init+0x1ec>
 8002b8c:	687b      	ldr	r3, [r7, #4]
 8002b8e:	4a49      	ldr	r2, [pc, #292]	@ (8002cb4 <HAL_GPIO_Init+0x2f8>)
 8002b90:	4293      	cmp	r3, r2
 8002b92:	d007      	beq.n	8002ba4 <HAL_GPIO_Init+0x1e8>
 8002b94:	687b      	ldr	r3, [r7, #4]
 8002b96:	4a48      	ldr	r2, [pc, #288]	@ (8002cb8 <HAL_GPIO_Init+0x2fc>)
 8002b98:	4293      	cmp	r3, r2
 8002b9a:	d101      	bne.n	8002ba0 <HAL_GPIO_Init+0x1e4>
 8002b9c:	2305      	movs	r3, #5
 8002b9e:	e00a      	b.n	8002bb6 <HAL_GPIO_Init+0x1fa>
 8002ba0:	2306      	movs	r3, #6
 8002ba2:	e008      	b.n	8002bb6 <HAL_GPIO_Init+0x1fa>
 8002ba4:	2304      	movs	r3, #4
 8002ba6:	e006      	b.n	8002bb6 <HAL_GPIO_Init+0x1fa>
 8002ba8:	2303      	movs	r3, #3
 8002baa:	e004      	b.n	8002bb6 <HAL_GPIO_Init+0x1fa>
 8002bac:	2302      	movs	r3, #2
 8002bae:	e002      	b.n	8002bb6 <HAL_GPIO_Init+0x1fa>
 8002bb0:	2301      	movs	r3, #1
 8002bb2:	e000      	b.n	8002bb6 <HAL_GPIO_Init+0x1fa>
 8002bb4:	2300      	movs	r3, #0
 8002bb6:	697a      	ldr	r2, [r7, #20]
 8002bb8:	f002 0203 	and.w	r2, r2, #3
 8002bbc:	0092      	lsls	r2, r2, #2
 8002bbe:	4093      	lsls	r3, r2
 8002bc0:	693a      	ldr	r2, [r7, #16]
 8002bc2:	4313      	orrs	r3, r2
 8002bc4:	613b      	str	r3, [r7, #16]
 8002bc6:	4937      	ldr	r1, [pc, #220]	@ (8002ca4 <HAL_GPIO_Init+0x2e8>)
 8002bc8:	697b      	ldr	r3, [r7, #20]
 8002bca:	089b      	lsrs	r3, r3, #2
 8002bcc:	3302      	adds	r3, #2
 8002bce:	693a      	ldr	r2, [r7, #16]
 8002bd0:	f841 2023 	str.w	r2, [r1, r3, lsl #2]
 8002bd4:	4b39      	ldr	r3, [pc, #228]	@ (8002cbc <HAL_GPIO_Init+0x300>)
 8002bd6:	689b      	ldr	r3, [r3, #8]
 8002bd8:	613b      	str	r3, [r7, #16]
 8002bda:	68fb      	ldr	r3, [r7, #12]
 8002bdc:	43db      	mvns	r3, r3
 8002bde:	693a      	ldr	r2, [r7, #16]
 8002be0:	4013      	ands	r3, r2
 8002be2:	613b      	str	r3, [r7, #16]
 8002be4:	683b      	ldr	r3, [r7, #0]
 8002be6:	685b      	ldr	r3, [r3, #4]
 8002be8:	f403 1380 	and.w	r3, r3, #1048576	@ 0x100000
 8002bec:	2b00      	cmp	r3, #0
 8002bee:	d003      	beq.n	8002bf8 <HAL_GPIO_Init+0x23c>
 8002bf0:	693a      	ldr	r2, [r7, #16]
 8002bf2:	68fb      	ldr	r3, [r7, #12]
 8002bf4:	4313      	orrs	r3, r2
 8002bf6:	613b      	str	r3, [r7, #16]
 8002bf8:	4a30      	ldr	r2, [pc, #192]	@ (8002cbc <HAL_GPIO_Init+0x300>)
 8002bfa:	693b      	ldr	r3, [r7, #16]
 8002bfc:	6093      	str	r3, [r2, #8]
 8002bfe:	4b2f      	ldr	r3, [pc, #188]	@ (8002cbc <HAL_GPIO_Init+0x300>)
 8002c00:	68db      	ldr	r3, [r3, #12]
 8002c02:	613b      	str	r3, [r7, #16]
 8002c04:	68fb      	ldr	r3, [r7, #12]
 8002c06:	43db      	mvns	r3, r3
 8002c08:	693a      	ldr	r2, [r7, #16]
 8002c0a:	4013      	ands	r3, r2
 8002c0c:	613b      	str	r3, [r7, #16]
 8002c0e:	683b      	ldr	r3, [r7, #0]
 8002c10:	685b      	ldr	r3, [r3, #4]
 8002c12:	f403 1300 	and.w	r3, r3, #2097152	@ 0x200000
 8002c16:	2b00      	cmp	r3, #0
 8002c18:	d003      	beq.n	8002c22 <HAL_GPIO_Init+0x266>
 8002c1a:	693a      	ldr	r2, [r7, #16]
 8002c1c:	68fb      	ldr	r3, [r7, #12]
 8002c1e:	4313      	orrs	r3, r2
 8002c20:	613b      	str	r3, [r7, #16]
 8002c22:	4a26      	ldr	r2, [pc, #152]	@ (8002cbc <HAL_GPIO_Init+0x300>)
 8002c24:	693b      	ldr	r3, [r7, #16]
 8002c26:	60d3      	str	r3, [r2, #12]
 8002c28:	4b24      	ldr	r3, [pc, #144]	@ (8002cbc <HAL_GPIO_Init+0x300>)
 8002c2a:	685b      	ldr	r3, [r3, #4]
 8002c2c:	613b      	str	r3, [r7, #16]
 8002c2e:	68fb      	ldr	r3, [r7, #12]
 8002c30:	43db      	mvns	r3, r3
 8002c32:	693a      	ldr	r2, [r7, #16]
 8002c34:	4013      	ands	r3, r2
 8002c36:	613b      	str	r3, [r7, #16]
 8002c38:	683b      	ldr	r3, [r7, #0]
 8002c3a:	685b      	ldr	r3, [r3, #4]
 8002c3c:	f403 3300 	and.w	r3, r3, #131072	@ 0x20000
 8002c40:	2b00      	cmp	r3, #0
 8002c42:	d003      	beq.n	8002c4c <HAL_GPIO_Init+0x290>
 8002c44:	693a      	ldr	r2, [r7, #16]
 8002c46:	68fb      	ldr	r3, [r7, #12]
 8002c48:	4313      	orrs	r3, r2
 8002c4a:	613b      	str	r3, [r7, #16]
 8002c4c:	4a1b      	ldr	r2, [pc, #108]	@ (8002cbc <HAL_GPIO_Init+0x300>)
 8002c4e:	693b      	ldr	r3, [r7, #16]
 8002c50:	6053      	str	r3, [r2, #4]
 8002c52:	4b1a      	ldr	r3, [pc, #104]	@ (8002cbc <HAL_GPIO_Init+0x300>)
 8002c54:	681b      	ldr	r3, [r3, #0]
 8002c56:	613b      	str	r3, [r7, #16]
 8002c58:	68fb      	ldr	r3, [r7, #12]
 8002c5a:	43db      	mvns	r3, r3
 8002c5c:	693a      	ldr	r2, [r7, #16]
 8002c5e:	4013      	ands	r3, r2
 8002c60:	613b      	str	r3, [r7, #16]
 8002c62:	683b      	ldr	r3, [r7, #0]
 8002c64:	685b      	ldr	r3, [r3, #4]
 8002c66:	f403 3380 	and.w	r3, r3, #65536	@ 0x10000
 8002c6a:	2b00      	cmp	r3, #0
 8002c6c:	d003      	beq.n	8002c76 <HAL_GPIO_Init+0x2ba>
 8002c6e:	693a      	ldr	r2, [r7, #16]
 8002c70:	68fb      	ldr	r3, [r7, #12]
 8002c72:	4313      	orrs	r3, r2
 8002c74:	613b      	str	r3, [r7, #16]
 8002c76:	4a11      	ldr	r2, [pc, #68]	@ (8002cbc <HAL_GPIO_Init+0x300>)
 8002c78:	693b      	ldr	r3, [r7, #16]
 8002c7a:	6013      	str	r3, [r2, #0]
 8002c7c:	697b      	ldr	r3, [r7, #20]
 8002c7e:	3301      	adds	r3, #1
 8002c80:	617b      	str	r3, [r7, #20]
 8002c82:	683b      	ldr	r3, [r7, #0]
 8002c84:	681a      	ldr	r2, [r3, #0]
 8002c86:	697b      	ldr	r3, [r7, #20]
 8002c88:	fa22 f303 	lsr.w	r3, r2, r3
 8002c8c:	2b00      	cmp	r3, #0
 8002c8e:	f47f ae9d 	bne.w	80029cc <HAL_GPIO_Init+0x10>
 8002c92:	bf00      	nop
 8002c94:	bf00      	nop
 8002c96:	371c      	adds	r7, #28
 8002c98:	46bd      	mov	sp, r7
 8002c9a:	f85d 7b04 	ldr.w	r7, [sp], #4
 8002c9e:	4770      	bx	lr
 8002ca0:	40021000 	.word	0x40021000
 8002ca4:	40010000 	.word	0x40010000
 8002ca8:	48000400 	.word	0x48000400
 8002cac:	48000800 	.word	0x48000800
 8002cb0:	48000c00 	.word	0x48000c00
 8002cb4:	48001000 	.word	0x48001000
 8002cb8:	48001400 	.word	0x48001400
 8002cbc:	40010400 	.word	0x40010400

08002cc0 <HAL_PWREx_ControlVoltageScaling>:
 8002cc0:	b480      	push	{r7}
 8002cc2:	b085      	sub	sp, #20
 8002cc4:	af00      	add	r7, sp, #0
 8002cc6:	6078      	str	r0, [r7, #4]
 8002cc8:	687b      	ldr	r3, [r7, #4]
 8002cca:	2b00      	cmp	r3, #0
 8002ccc:	d141      	bne.n	8002d52 <HAL_PWREx_ControlVoltageScaling+0x92>
 8002cce:	4b4b      	ldr	r3, [pc, #300]	@ (8002dfc <HAL_PWREx_ControlVoltageScaling+0x13c>)
 8002cd0:	681b      	ldr	r3, [r3, #0]
 8002cd2:	f403 63c0 	and.w	r3, r3, #1536	@ 0x600
 8002cd6:	f5b3 6f80 	cmp.w	r3, #1024	@ 0x400
 8002cda:	d131      	bne.n	8002d40 <HAL_PWREx_ControlVoltageScaling+0x80>
 8002cdc:	4b47      	ldr	r3, [pc, #284]	@ (8002dfc <HAL_PWREx_ControlVoltageScaling+0x13c>)
 8002cde:	f8d3 3080 	ldr.w	r3, [r3, #128]	@ 0x80
 8002ce2:	4a46      	ldr	r2, [pc, #280]	@ (8002dfc <HAL_PWREx_ControlVoltageScaling+0x13c>)
 8002ce4:	f423 7380 	bic.w	r3, r3, #256	@ 0x100
 8002ce8:	f8c2 3080 	str.w	r3, [r2, #128]	@ 0x80
 8002cec:	4b43      	ldr	r3, [pc, #268]	@ (8002dfc <HAL_PWREx_ControlVoltageScaling+0x13c>)
 8002cee:	681b      	ldr	r3, [r3, #0]
 8002cf0:	f423 63c0 	bic.w	r3, r3, #1536	@ 0x600
 8002cf4:	4a41      	ldr	r2, [pc, #260]	@ (8002dfc <HAL_PWREx_ControlVoltageScaling+0x13c>)
 8002cf6:	f443 7300 	orr.w	r3, r3, #512	@ 0x200
 8002cfa:	6013      	str	r3, [r2, #0]
 8002cfc:	4b40      	ldr	r3, [pc, #256]	@ (8002e00 <HAL_PWREx_ControlVoltageScaling+0x140>)
 8002cfe:	681b      	ldr	r3, [r3, #0]
 8002d00:	2232      	movs	r2, #50	@ 0x32
 8002d02:	fb02 f303 	mul.w	r3, r2, r3
 8002d06:	4a3f      	ldr	r2, [pc, #252]	@ (8002e04 <HAL_PWREx_ControlVoltageScaling+0x144>)
 8002d08:	fba2 2303 	umull	r2, r3, r2, r3
 8002d0c:	0c9b      	lsrs	r3, r3, #18
 8002d0e:	3301      	adds	r3, #1
 8002d10:	60fb      	str	r3, [r7, #12]
 8002d12:	e002      	b.n	8002d1a <HAL_PWREx_ControlVoltageScaling+0x5a>
 8002d14:	68fb      	ldr	r3, [r7, #12]
 8002d16:	3b01      	subs	r3, #1
 8002d18:	60fb      	str	r3, [r7, #12]
 8002d1a:	4b38      	ldr	r3, [pc, #224]	@ (8002dfc <HAL_PWREx_ControlVoltageScaling+0x13c>)
 8002d1c:	695b      	ldr	r3, [r3, #20]
 8002d1e:	f403 6380 	and.w	r3, r3, #1024	@ 0x400
 8002d22:	f5b3 6f80 	cmp.w	r3, #1024	@ 0x400
 8002d26:	d102      	bne.n	8002d2e <HAL_PWREx_ControlVoltageScaling+0x6e>
 8002d28:	68fb      	ldr	r3, [r7, #12]
 8002d2a:	2b00      	cmp	r3, #0
 8002d2c:	d1f2      	bne.n	8002d14 <HAL_PWREx_ControlVoltageScaling+0x54>
 8002d2e:	4b33      	ldr	r3, [pc, #204]	@ (8002dfc <HAL_PWREx_ControlVoltageScaling+0x13c>)
 8002d30:	695b      	ldr	r3, [r3, #20]
 8002d32:	f403 6380 	and.w	r3, r3, #1024	@ 0x400
 8002d36:	f5b3 6f80 	cmp.w	r3, #1024	@ 0x400
 8002d3a:	d158      	bne.n	8002dee <HAL_PWREx_ControlVoltageScaling+0x12e>
 8002d3c:	2303      	movs	r3, #3
 8002d3e:	e057      	b.n	8002df0 <HAL_PWREx_ControlVoltageScaling+0x130>
 8002d40:	4b2e      	ldr	r3, [pc, #184]	@ (8002dfc <HAL_PWREx_ControlVoltageScaling+0x13c>)
 8002d42:	f8d3 3080 	ldr.w	r3, [r3, #128]	@ 0x80
 8002d46:	4a2d      	ldr	r2, [pc, #180]	@ (8002dfc <HAL_PWREx_ControlVoltageScaling+0x13c>)
 8002d48:	f423 7380 	bic.w	r3, r3, #256	@ 0x100
 8002d4c:	f8c2 3080 	str.w	r3, [r2, #128]	@ 0x80
 8002d50:	e04d      	b.n	8002dee <HAL_PWREx_ControlVoltageScaling+0x12e>
 8002d52:	687b      	ldr	r3, [r7, #4]
 8002d54:	f5b3 7f00 	cmp.w	r3, #512	@ 0x200
 8002d58:	d141      	bne.n	8002dde <HAL_PWREx_ControlVoltageScaling+0x11e>
 8002d5a:	4b28      	ldr	r3, [pc, #160]	@ (8002dfc <HAL_PWREx_ControlVoltageScaling+0x13c>)
 8002d5c:	681b      	ldr	r3, [r3, #0]
 8002d5e:	f403 63c0 	and.w	r3, r3, #1536	@ 0x600
 8002d62:	f5b3 6f80 	cmp.w	r3, #1024	@ 0x400
 8002d66:	d131      	bne.n	8002dcc <HAL_PWREx_ControlVoltageScaling+0x10c>
 8002d68:	4b24      	ldr	r3, [pc, #144]	@ (8002dfc <HAL_PWREx_ControlVoltageScaling+0x13c>)
 8002d6a:	f8d3 3080 	ldr.w	r3, [r3, #128]	@ 0x80
 8002d6e:	4a23      	ldr	r2, [pc, #140]	@ (8002dfc <HAL_PWREx_ControlVoltageScaling+0x13c>)
 8002d70:	f443 7380 	orr.w	r3, r3, #256	@ 0x100
 8002d74:	f8c2 3080 	str.w	r3, [r2, #128]	@ 0x80
 8002d78:	4b20      	ldr	r3, [pc, #128]	@ (8002dfc <HAL_PWREx_ControlVoltageScaling+0x13c>)
 8002d7a:	681b      	ldr	r3, [r3, #0]
 8002d7c:	f423 63c0 	bic.w	r3, r3, #1536	@ 0x600
 8002d80:	4a1e      	ldr	r2, [pc, #120]	@ (8002dfc <HAL_PWREx_ControlVoltageScaling+0x13c>)
 8002d82:	f443 7300 	orr.w	r3, r3, #512	@ 0x200
 8002d86:	6013      	str	r3, [r2, #0]
 8002d88:	4b1d      	ldr	r3, [pc, #116]	@ (8002e00 <HAL_PWREx_ControlVoltageScaling+0x140>)
 8002d8a:	681b      	ldr	r3, [r3, #0]
 8002d8c:	2232      	movs	r2, #50	@ 0x32
 8002d8e:	fb02 f303 	mul.w	r3, r2, r3
 8002d92:	4a1c      	ldr	r2, [pc, #112]	@ (8002e04 <HAL_PWREx_ControlVoltageScaling+0x144>)
 8002d94:	fba2 2303 	umull	r2, r3, r2, r3
 8002d98:	0c9b      	lsrs	r3, r3, #18
 8002d9a:	3301      	adds	r3, #1
 8002d9c:	60fb      	str	r3, [r7, #12]
 8002d9e:	e002      	b.n	8002da6 <HAL_PWREx_ControlVoltageScaling+0xe6>
 8002da0:	68fb      	ldr	r3, [r7, #12]
 8002da2:	3b01      	subs	r3, #1
 8002da4:	60fb      	str	r3, [r7, #12]
 8002da6:	4b15      	ldr	r3, [pc, #84]	@ (8002dfc <HAL_PWREx_ControlVoltageScaling+0x13c>)
 8002da8:	695b      	ldr	r3, [r3, #20]
 8002daa:	f403 6380 	and.w	r3, r3, #1024	@ 0x400
 8002dae:	f5b3 6f80 	cmp.w	r3, #1024	@ 0x400
 8002db2:	d102      	bne.n	8002dba <HAL_PWREx_ControlVoltageScaling+0xfa>
 8002db4:	68fb      	ldr	r3, [r7, #12]
 8002db6:	2b00      	cmp	r3, #0
 8002db8:	d1f2      	bne.n	8002da0 <HAL_PWREx_ControlVoltageScaling+0xe0>
 8002dba:	4b10      	ldr	r3, [pc, #64]	@ (8002dfc <HAL_PWREx_ControlVoltageScaling+0x13c>)
 8002dbc:	695b      	ldr	r3, [r3, #20]
 8002dbe:	f403 6380 	and.w	r3, r3, #1024	@ 0x400
 8002dc2:	f5b3 6f80 	cmp.w	r3, #1024	@ 0x400
 8002dc6:	d112      	bne.n	8002dee <HAL_PWREx_ControlVoltageScaling+0x12e>
 8002dc8:	2303      	movs	r3, #3
 8002dca:	e011      	b.n	8002df0 <HAL_PWREx_ControlVoltageScaling+0x130>
 8002dcc:	4b0b      	ldr	r3, [pc, #44]	@ (8002dfc <HAL_PWREx_ControlVoltageScaling+0x13c>)
 8002dce:	f8d3 3080 	ldr.w	r3, [r3, #128]	@ 0x80
 8002dd2:	4a0a      	ldr	r2, [pc, #40]	@ (8002dfc <HAL_PWREx_ControlVoltageScaling+0x13c>)
 8002dd4:	f443 7380 	orr.w	r3, r3, #256	@ 0x100
 8002dd8:	f8c2 3080 	str.w	r3, [r2, #128]	@ 0x80
 8002ddc:	e007      	b.n	8002dee <HAL_PWREx_ControlVoltageScaling+0x12e>
 8002dde:	4b07      	ldr	r3, [pc, #28]	@ (8002dfc <HAL_PWREx_ControlVoltageScaling+0x13c>)
 8002de0:	681b      	ldr	r3, [r3, #0]
 8002de2:	f423 63c0 	bic.w	r3, r3, #1536	@ 0x600
 8002de6:	4a05      	ldr	r2, [pc, #20]	@ (8002dfc <HAL_PWREx_ControlVoltageScaling+0x13c>)
 8002de8:	f443 6380 	orr.w	r3, r3, #1024	@ 0x400
 8002dec:	6013      	str	r3, [r2, #0]
 8002dee:	2300      	movs	r3, #0
 8002df0:	4618      	mov	r0, r3
 8002df2:	3714      	adds	r7, #20
 8002df4:	46bd      	mov	sp, r7
 8002df6:	f85d 7b04 	ldr.w	r7, [sp], #4
 8002dfa:	4770      	bx	lr
 8002dfc:	40007000 	.word	0x40007000
 8002e00:	20000000 	.word	0x20000000
 8002e04:	431bde83 	.word	0x431bde83

08002e08 <HAL_PWREx_DisableUCPDDeadBattery>:
 8002e08:	b480      	push	{r7}
 8002e0a:	af00      	add	r7, sp, #0
 8002e0c:	4b05      	ldr	r3, [pc, #20]	@ (8002e24 <HAL_PWREx_DisableUCPDDeadBattery+0x1c>)
 8002e0e:	689b      	ldr	r3, [r3, #8]
 8002e10:	4a04      	ldr	r2, [pc, #16]	@ (8002e24 <HAL_PWREx_DisableUCPDDeadBattery+0x1c>)
 8002e12:	f443 4380 	orr.w	r3, r3, #16384	@ 0x4000
 8002e16:	6093      	str	r3, [r2, #8]
 8002e18:	bf00      	nop
 8002e1a:	46bd      	mov	sp, r7
 8002e1c:	f85d 7b04 	ldr.w	r7, [sp], #4
 8002e20:	4770      	bx	lr
 8002e22:	bf00      	nop
 8002e24:	40007000 	.word	0x40007000

08002e28 <HAL_RCC_OscConfig>:
 8002e28:	b580      	push	{r7, lr}
 8002e2a:	b088      	sub	sp, #32
 8002e2c:	af00      	add	r7, sp, #0
 8002e2e:	6078      	str	r0, [r7, #4]
 8002e30:	687b      	ldr	r3, [r7, #4]
 8002e32:	2b00      	cmp	r3, #0
 8002e34:	d101      	bne.n	8002e3a <HAL_RCC_OscConfig+0x12>
 8002e36:	2301      	movs	r3, #1
 8002e38:	e2fe      	b.n	8003438 <HAL_RCC_OscConfig+0x610>
 8002e3a:	687b      	ldr	r3, [r7, #4]
 8002e3c:	681b      	ldr	r3, [r3, #0]
 8002e3e:	f003 0301 	and.w	r3, r3, #1
 8002e42:	2b00      	cmp	r3, #0
 8002e44:	d075      	beq.n	8002f32 <HAL_RCC_OscConfig+0x10a>
 8002e46:	4b97      	ldr	r3, [pc, #604]	@ (80030a4 <HAL_RCC_OscConfig+0x27c>)
 8002e48:	689b      	ldr	r3, [r3, #8]
 8002e4a:	f003 030c 	and.w	r3, r3, #12
 8002e4e:	61bb      	str	r3, [r7, #24]
 8002e50:	4b94      	ldr	r3, [pc, #592]	@ (80030a4 <HAL_RCC_OscConfig+0x27c>)
 8002e52:	68db      	ldr	r3, [r3, #12]
 8002e54:	f003 0303 	and.w	r3, r3, #3
 8002e58:	617b      	str	r3, [r7, #20]
 8002e5a:	69bb      	ldr	r3, [r7, #24]
 8002e5c:	2b0c      	cmp	r3, #12
 8002e5e:	d102      	bne.n	8002e66 <HAL_RCC_OscConfig+0x3e>
 8002e60:	697b      	ldr	r3, [r7, #20]
 8002e62:	2b03      	cmp	r3, #3
 8002e64:	d002      	beq.n	8002e6c <HAL_RCC_OscConfig+0x44>
 8002e66:	69bb      	ldr	r3, [r7, #24]
 8002e68:	2b08      	cmp	r3, #8
 8002e6a:	d10b      	bne.n	8002e84 <HAL_RCC_OscConfig+0x5c>
 8002e6c:	4b8d      	ldr	r3, [pc, #564]	@ (80030a4 <HAL_RCC_OscConfig+0x27c>)
 8002e6e:	681b      	ldr	r3, [r3, #0]
 8002e70:	f403 3300 	and.w	r3, r3, #131072	@ 0x20000
 8002e74:	2b00      	cmp	r3, #0
 8002e76:	d05b      	beq.n	8002f30 <HAL_RCC_OscConfig+0x108>
 8002e78:	687b      	ldr	r3, [r7, #4]
 8002e7a:	685b      	ldr	r3, [r3, #4]
 8002e7c:	2b00      	cmp	r3, #0
 8002e7e:	d157      	bne.n	8002f30 <HAL_RCC_OscConfig+0x108>
 8002e80:	2301      	movs	r3, #1
 8002e82:	e2d9      	b.n	8003438 <HAL_RCC_OscConfig+0x610>
 8002e84:	687b      	ldr	r3, [r7, #4]
 8002e86:	685b      	ldr	r3, [r3, #4]
 8002e88:	f5b3 3f80 	cmp.w	r3, #65536	@ 0x10000
 8002e8c:	d106      	bne.n	8002e9c <HAL_RCC_OscConfig+0x74>
 8002e8e:	4b85      	ldr	r3, [pc, #532]	@ (80030a4 <HAL_RCC_OscConfig+0x27c>)
 8002e90:	681b      	ldr	r3, [r3, #0]
 8002e92:	4a84      	ldr	r2, [pc, #528]	@ (80030a4 <HAL_RCC_OscConfig+0x27c>)
 8002e94:	f443 3380 	orr.w	r3, r3, #65536	@ 0x10000
 8002e98:	6013      	str	r3, [r2, #0]
 8002e9a:	e01d      	b.n	8002ed8 <HAL_RCC_OscConfig+0xb0>
 8002e9c:	687b      	ldr	r3, [r7, #4]
 8002e9e:	685b      	ldr	r3, [r3, #4]
 8002ea0:	f5b3 2fa0 	cmp.w	r3, #327680	@ 0x50000
 8002ea4:	d10c      	bne.n	8002ec0 <HAL_RCC_OscConfig+0x98>
 8002ea6:	4b7f      	ldr	r3, [pc, #508]	@ (80030a4 <HAL_RCC_OscConfig+0x27c>)
 8002ea8:	681b      	ldr	r3, [r3, #0]
 8002eaa:	4a7e      	ldr	r2, [pc, #504]	@ (80030a4 <HAL_RCC_OscConfig+0x27c>)
 8002eac:	f443 2380 	orr.w	r3, r3, #262144	@ 0x40000
 8002eb0:	6013      	str	r3, [r2, #0]
 8002eb2:	4b7c      	ldr	r3, [pc, #496]	@ (80030a4 <HAL_RCC_OscConfig+0x27c>)
 8002eb4:	681b      	ldr	r3, [r3, #0]
 8002eb6:	4a7b      	ldr	r2, [pc, #492]	@ (80030a4 <HAL_RCC_OscConfig+0x27c>)
 8002eb8:	f443 3380 	orr.w	r3, r3, #65536	@ 0x10000
 8002ebc:	6013      	str	r3, [r2, #0]
 8002ebe:	e00b      	b.n	8002ed8 <HAL_RCC_OscConfig+0xb0>
 8002ec0:	4b78      	ldr	r3, [pc, #480]	@ (80030a4 <HAL_RCC_OscConfig+0x27c>)
 8002ec2:	681b      	ldr	r3, [r3, #0]
 8002ec4:	4a77      	ldr	r2, [pc, #476]	@ (80030a4 <HAL_RCC_OscConfig+0x27c>)
 8002ec6:	f423 3380 	bic.w	r3, r3, #65536	@ 0x10000
 8002eca:	6013      	str	r3, [r2, #0]
 8002ecc:	4b75      	ldr	r3, [pc, #468]	@ (80030a4 <HAL_RCC_OscConfig+0x27c>)
 8002ece:	681b      	ldr	r3, [r3, #0]
 8002ed0:	4a74      	ldr	r2, [pc, #464]	@ (80030a4 <HAL_RCC_OscConfig+0x27c>)
 8002ed2:	f423 2380 	bic.w	r3, r3, #262144	@ 0x40000
 8002ed6:	6013      	str	r3, [r2, #0]
 8002ed8:	687b      	ldr	r3, [r7, #4]
 8002eda:	685b      	ldr	r3, [r3, #4]
 8002edc:	2b00      	cmp	r3, #0
 8002ede:	d013      	beq.n	8002f08 <HAL_RCC_OscConfig+0xe0>
 8002ee0:	f7fe f888 	bl	8000ff4 <HAL_GetTick>
 8002ee4:	6138      	str	r0, [r7, #16]
 8002ee6:	e008      	b.n	8002efa <HAL_RCC_OscConfig+0xd2>
 8002ee8:	f7fe f884 	bl	8000ff4 <HAL_GetTick>
 8002eec:	4602      	mov	r2, r0
 8002eee:	693b      	ldr	r3, [r7, #16]
 8002ef0:	1ad3      	subs	r3, r2, r3
 8002ef2:	2b64      	cmp	r3, #100	@ 0x64
 8002ef4:	d901      	bls.n	8002efa <HAL_RCC_OscConfig+0xd2>
 8002ef6:	2303      	movs	r3, #3
 8002ef8:	e29e      	b.n	8003438 <HAL_RCC_OscConfig+0x610>
 8002efa:	4b6a      	ldr	r3, [pc, #424]	@ (80030a4 <HAL_RCC_OscConfig+0x27c>)
 8002efc:	681b      	ldr	r3, [r3, #0]
 8002efe:	f403 3300 	and.w	r3, r3, #131072	@ 0x20000
 8002f02:	2b00      	cmp	r3, #0
 8002f04:	d0f0      	beq.n	8002ee8 <HAL_RCC_OscConfig+0xc0>
 8002f06:	e014      	b.n	8002f32 <HAL_RCC_OscConfig+0x10a>
 8002f08:	f7fe f874 	bl	8000ff4 <HAL_GetTick>
 8002f0c:	6138      	str	r0, [r7, #16]
 8002f0e:	e008      	b.n	8002f22 <HAL_RCC_OscConfig+0xfa>
 8002f10:	f7fe f870 	bl	8000ff4 <HAL_GetTick>
 8002f14:	4602      	mov	r2, r0
 8002f16:	693b      	ldr	r3, [r7, #16]
 8002f18:	1ad3      	subs	r3, r2, r3
 8002f1a:	2b64      	cmp	r3, #100	@ 0x64
 8002f1c:	d901      	bls.n	8002f22 <HAL_RCC_OscConfig+0xfa>
 8002f1e:	2303      	movs	r3, #3
 8002f20:	e28a      	b.n	8003438 <HAL_RCC_OscConfig+0x610>
 8002f22:	4b60      	ldr	r3, [pc, #384]	@ (80030a4 <HAL_RCC_OscConfig+0x27c>)
 8002f24:	681b      	ldr	r3, [r3, #0]
 8002f26:	f403 3300 	and.w	r3, r3, #131072	@ 0x20000
 8002f2a:	2b00      	cmp	r3, #0
 8002f2c:	d1f0      	bne.n	8002f10 <HAL_RCC_OscConfig+0xe8>
 8002f2e:	e000      	b.n	8002f32 <HAL_RCC_OscConfig+0x10a>
 8002f30:	bf00      	nop
 8002f32:	687b      	ldr	r3, [r7, #4]
 8002f34:	681b      	ldr	r3, [r3, #0]
 8002f36:	f003 0302 	and.w	r3, r3, #2
 8002f3a:	2b00      	cmp	r3, #0
 8002f3c:	d075      	beq.n	800302a <HAL_RCC_OscConfig+0x202>
 8002f3e:	4b59      	ldr	r3, [pc, #356]	@ (80030a4 <HAL_RCC_OscConfig+0x27c>)
 8002f40:	689b      	ldr	r3, [r3, #8]
 8002f42:	f003 030c 	and.w	r3, r3, #12
 8002f46:	61bb      	str	r3, [r7, #24]
 8002f48:	4b56      	ldr	r3, [pc, #344]	@ (80030a4 <HAL_RCC_OscConfig+0x27c>)
 8002f4a:	68db      	ldr	r3, [r3, #12]
 8002f4c:	f003 0303 	and.w	r3, r3, #3
 8002f50:	617b      	str	r3, [r7, #20]
 8002f52:	69bb      	ldr	r3, [r7, #24]
 8002f54:	2b0c      	cmp	r3, #12
 8002f56:	d102      	bne.n	8002f5e <HAL_RCC_OscConfig+0x136>
 8002f58:	697b      	ldr	r3, [r7, #20]
 8002f5a:	2b02      	cmp	r3, #2
 8002f5c:	d002      	beq.n	8002f64 <HAL_RCC_OscConfig+0x13c>
 8002f5e:	69bb      	ldr	r3, [r7, #24]
 8002f60:	2b04      	cmp	r3, #4
 8002f62:	d11f      	bne.n	8002fa4 <HAL_RCC_OscConfig+0x17c>
 8002f64:	4b4f      	ldr	r3, [pc, #316]	@ (80030a4 <HAL_RCC_OscConfig+0x27c>)
 8002f66:	681b      	ldr	r3, [r3, #0]
 8002f68:	f403 6380 	and.w	r3, r3, #1024	@ 0x400
 8002f6c:	2b00      	cmp	r3, #0
 8002f6e:	d005      	beq.n	8002f7c <HAL_RCC_OscConfig+0x154>
 8002f70:	687b      	ldr	r3, [r7, #4]
 8002f72:	68db      	ldr	r3, [r3, #12]
 8002f74:	2b00      	cmp	r3, #0
 8002f76:	d101      	bne.n	8002f7c <HAL_RCC_OscConfig+0x154>
 8002f78:	2301      	movs	r3, #1
 8002f7a:	e25d      	b.n	8003438 <HAL_RCC_OscConfig+0x610>
 8002f7c:	4b49      	ldr	r3, [pc, #292]	@ (80030a4 <HAL_RCC_OscConfig+0x27c>)
 8002f7e:	685b      	ldr	r3, [r3, #4]
 8002f80:	f023 42fe 	bic.w	r2, r3, #2130706432	@ 0x7f000000
 8002f84:	687b      	ldr	r3, [r7, #4]
 8002f86:	691b      	ldr	r3, [r3, #16]
 8002f88:	061b      	lsls	r3, r3, #24
 8002f8a:	4946      	ldr	r1, [pc, #280]	@ (80030a4 <HAL_RCC_OscConfig+0x27c>)
 8002f8c:	4313      	orrs	r3, r2
 8002f8e:	604b      	str	r3, [r1, #4]
 8002f90:	4b45      	ldr	r3, [pc, #276]	@ (80030a8 <HAL_RCC_OscConfig+0x280>)
 8002f92:	681b      	ldr	r3, [r3, #0]
 8002f94:	4618      	mov	r0, r3
 8002f96:	f7fd ffe1 	bl	8000f5c <HAL_InitTick>
 8002f9a:	4603      	mov	r3, r0
 8002f9c:	2b00      	cmp	r3, #0
 8002f9e:	d043      	beq.n	8003028 <HAL_RCC_OscConfig+0x200>
 8002fa0:	2301      	movs	r3, #1
 8002fa2:	e249      	b.n	8003438 <HAL_RCC_OscConfig+0x610>
 8002fa4:	687b      	ldr	r3, [r7, #4]
 8002fa6:	68db      	ldr	r3, [r3, #12]
 8002fa8:	2b00      	cmp	r3, #0
 8002faa:	d023      	beq.n	8002ff4 <HAL_RCC_OscConfig+0x1cc>
 8002fac:	4b3d      	ldr	r3, [pc, #244]	@ (80030a4 <HAL_RCC_OscConfig+0x27c>)
 8002fae:	681b      	ldr	r3, [r3, #0]
 8002fb0:	4a3c      	ldr	r2, [pc, #240]	@ (80030a4 <HAL_RCC_OscConfig+0x27c>)
 8002fb2:	f443 7380 	orr.w	r3, r3, #256	@ 0x100
 8002fb6:	6013      	str	r3, [r2, #0]
 8002fb8:	f7fe f81c 	bl	8000ff4 <HAL_GetTick>
 8002fbc:	6138      	str	r0, [r7, #16]
 8002fbe:	e008      	b.n	8002fd2 <HAL_RCC_OscConfig+0x1aa>
 8002fc0:	f7fe f818 	bl	8000ff4 <HAL_GetTick>
 8002fc4:	4602      	mov	r2, r0
 8002fc6:	693b      	ldr	r3, [r7, #16]
 8002fc8:	1ad3      	subs	r3, r2, r3
 8002fca:	2b02      	cmp	r3, #2
 8002fcc:	d901      	bls.n	8002fd2 <HAL_RCC_OscConfig+0x1aa>
 8002fce:	2303      	movs	r3, #3
 8002fd0:	e232      	b.n	8003438 <HAL_RCC_OscConfig+0x610>
 8002fd2:	4b34      	ldr	r3, [pc, #208]	@ (80030a4 <HAL_RCC_OscConfig+0x27c>)
 8002fd4:	681b      	ldr	r3, [r3, #0]
 8002fd6:	f403 6380 	and.w	r3, r3, #1024	@ 0x400
 8002fda:	2b00      	cmp	r3, #0
 8002fdc:	d0f0      	beq.n	8002fc0 <HAL_RCC_OscConfig+0x198>
 8002fde:	4b31      	ldr	r3, [pc, #196]	@ (80030a4 <HAL_RCC_OscConfig+0x27c>)
 8002fe0:	685b      	ldr	r3, [r3, #4]
 8002fe2:	f023 42fe 	bic.w	r2, r3, #2130706432	@ 0x7f000000
 8002fe6:	687b      	ldr	r3, [r7, #4]
 8002fe8:	691b      	ldr	r3, [r3, #16]
 8002fea:	061b      	lsls	r3, r3, #24
 8002fec:	492d      	ldr	r1, [pc, #180]	@ (80030a4 <HAL_RCC_OscConfig+0x27c>)
 8002fee:	4313      	orrs	r3, r2
 8002ff0:	604b      	str	r3, [r1, #4]
 8002ff2:	e01a      	b.n	800302a <HAL_RCC_OscConfig+0x202>
 8002ff4:	4b2b      	ldr	r3, [pc, #172]	@ (80030a4 <HAL_RCC_OscConfig+0x27c>)
 8002ff6:	681b      	ldr	r3, [r3, #0]
 8002ff8:	4a2a      	ldr	r2, [pc, #168]	@ (80030a4 <HAL_RCC_OscConfig+0x27c>)
 8002ffa:	f423 7380 	bic.w	r3, r3, #256	@ 0x100
 8002ffe:	6013      	str	r3, [r2, #0]
 8003000:	f7fd fff8 	bl	8000ff4 <HAL_GetTick>
 8003004:	6138      	str	r0, [r7, #16]
 8003006:	e008      	b.n	800301a <HAL_RCC_OscConfig+0x1f2>
 8003008:	f7fd fff4 	bl	8000ff4 <HAL_GetTick>
 800300c:	4602      	mov	r2, r0
 800300e:	693b      	ldr	r3, [r7, #16]
 8003010:	1ad3      	subs	r3, r2, r3
 8003012:	2b02      	cmp	r3, #2
 8003014:	d901      	bls.n	800301a <HAL_RCC_OscConfig+0x1f2>
 8003016:	2303      	movs	r3, #3
 8003018:	e20e      	b.n	8003438 <HAL_RCC_OscConfig+0x610>
 800301a:	4b22      	ldr	r3, [pc, #136]	@ (80030a4 <HAL_RCC_OscConfig+0x27c>)
 800301c:	681b      	ldr	r3, [r3, #0]
 800301e:	f403 6380 	and.w	r3, r3, #1024	@ 0x400
 8003022:	2b00      	cmp	r3, #0
 8003024:	d1f0      	bne.n	8003008 <HAL_RCC_OscConfig+0x1e0>
 8003026:	e000      	b.n	800302a <HAL_RCC_OscConfig+0x202>
 8003028:	bf00      	nop
 800302a:	687b      	ldr	r3, [r7, #4]
 800302c:	681b      	ldr	r3, [r3, #0]
 800302e:	f003 0308 	and.w	r3, r3, #8
 8003032:	2b00      	cmp	r3, #0
 8003034:	d041      	beq.n	80030ba <HAL_RCC_OscConfig+0x292>
 8003036:	687b      	ldr	r3, [r7, #4]
 8003038:	695b      	ldr	r3, [r3, #20]
 800303a:	2b00      	cmp	r3, #0
 800303c:	d01c      	beq.n	8003078 <HAL_RCC_OscConfig+0x250>
 800303e:	4b19      	ldr	r3, [pc, #100]	@ (80030a4 <HAL_RCC_OscConfig+0x27c>)
 8003040:	f8d3 3094 	ldr.w	r3, [r3, #148]	@ 0x94
 8003044:	4a17      	ldr	r2, [pc, #92]	@ (80030a4 <HAL_RCC_OscConfig+0x27c>)
 8003046:	f043 0301 	orr.w	r3, r3, #1
 800304a:	f8c2 3094 	str.w	r3, [r2, #148]	@ 0x94
 800304e:	f7fd ffd1 	bl	8000ff4 <HAL_GetTick>
 8003052:	6138      	str	r0, [r7, #16]
 8003054:	e008      	b.n	8003068 <HAL_RCC_OscConfig+0x240>
 8003056:	f7fd ffcd 	bl	8000ff4 <HAL_GetTick>
 800305a:	4602      	mov	r2, r0
 800305c:	693b      	ldr	r3, [r7, #16]
 800305e:	1ad3      	subs	r3, r2, r3
 8003060:	2b02      	cmp	r3, #2
 8003062:	d901      	bls.n	8003068 <HAL_RCC_OscConfig+0x240>
 8003064:	2303      	movs	r3, #3
 8003066:	e1e7      	b.n	8003438 <HAL_RCC_OscConfig+0x610>
 8003068:	4b0e      	ldr	r3, [pc, #56]	@ (80030a4 <HAL_RCC_OscConfig+0x27c>)
 800306a:	f8d3 3094 	ldr.w	r3, [r3, #148]	@ 0x94
 800306e:	f003 0302 	and.w	r3, r3, #2
 8003072:	2b00      	cmp	r3, #0
 8003074:	d0ef      	beq.n	8003056 <HAL_RCC_OscConfig+0x22e>
 8003076:	e020      	b.n	80030ba <HAL_RCC_OscConfig+0x292>
 8003078:	4b0a      	ldr	r3, [pc, #40]	@ (80030a4 <HAL_RCC_OscConfig+0x27c>)
 800307a:	f8d3 3094 	ldr.w	r3, [r3, #148]	@ 0x94
 800307e:	4a09      	ldr	r2, [pc, #36]	@ (80030a4 <HAL_RCC_OscConfig+0x27c>)
 8003080:	f023 0301 	bic.w	r3, r3, #1
 8003084:	f8c2 3094 	str.w	r3, [r2, #148]	@ 0x94
 8003088:	f7fd ffb4 	bl	8000ff4 <HAL_GetTick>
 800308c:	6138      	str	r0, [r7, #16]
 800308e:	e00d      	b.n	80030ac <HAL_RCC_OscConfig+0x284>
 8003090:	f7fd ffb0 	bl	8000ff4 <HAL_GetTick>
 8003094:	4602      	mov	r2, r0
 8003096:	693b      	ldr	r3, [r7, #16]
 8003098:	1ad3      	subs	r3, r2, r3
 800309a:	2b02      	cmp	r3, #2
 800309c:	d906      	bls.n	80030ac <HAL_RCC_OscConfig+0x284>
 800309e:	2303      	movs	r3, #3
 80030a0:	e1ca      	b.n	8003438 <HAL_RCC_OscConfig+0x610>
 80030a2:	bf00      	nop
 80030a4:	40021000 	.word	0x40021000
 80030a8:	20000004 	.word	0x20000004
 80030ac:	4b8c      	ldr	r3, [pc, #560]	@ (80032e0 <HAL_RCC_OscConfig+0x4b8>)
 80030ae:	f8d3 3094 	ldr.w	r3, [r3, #148]	@ 0x94
 80030b2:	f003 0302 	and.w	r3, r3, #2
 80030b6:	2b00      	cmp	r3, #0
 80030b8:	d1ea      	bne.n	8003090 <HAL_RCC_OscConfig+0x268>
 80030ba:	687b      	ldr	r3, [r7, #4]
 80030bc:	681b      	ldr	r3, [r3, #0]
 80030be:	f003 0304 	and.w	r3, r3, #4
 80030c2:	2b00      	cmp	r3, #0
 80030c4:	f000 80a6 	beq.w	8003214 <HAL_RCC_OscConfig+0x3ec>
 80030c8:	2300      	movs	r3, #0
 80030ca:	77fb      	strb	r3, [r7, #31]
 80030cc:	4b84      	ldr	r3, [pc, #528]	@ (80032e0 <HAL_RCC_OscConfig+0x4b8>)
 80030ce:	6d9b      	ldr	r3, [r3, #88]	@ 0x58
 80030d0:	f003 5380 	and.w	r3, r3, #268435456	@ 0x10000000
 80030d4:	2b00      	cmp	r3, #0
 80030d6:	d101      	bne.n	80030dc <HAL_RCC_OscConfig+0x2b4>
 80030d8:	2301      	movs	r3, #1
 80030da:	e000      	b.n	80030de <HAL_RCC_OscConfig+0x2b6>
 80030dc:	2300      	movs	r3, #0
 80030de:	2b00      	cmp	r3, #0
 80030e0:	d00d      	beq.n	80030fe <HAL_RCC_OscConfig+0x2d6>
 80030e2:	4b7f      	ldr	r3, [pc, #508]	@ (80032e0 <HAL_RCC_OscConfig+0x4b8>)
 80030e4:	6d9b      	ldr	r3, [r3, #88]	@ 0x58
 80030e6:	4a7e      	ldr	r2, [pc, #504]	@ (80032e0 <HAL_RCC_OscConfig+0x4b8>)
 80030e8:	f043 5380 	orr.w	r3, r3, #268435456	@ 0x10000000
 80030ec:	6593      	str	r3, [r2, #88]	@ 0x58
 80030ee:	4b7c      	ldr	r3, [pc, #496]	@ (80032e0 <HAL_RCC_OscConfig+0x4b8>)
 80030f0:	6d9b      	ldr	r3, [r3, #88]	@ 0x58
 80030f2:	f003 5380 	and.w	r3, r3, #268435456	@ 0x10000000
 80030f6:	60fb      	str	r3, [r7, #12]
 80030f8:	68fb      	ldr	r3, [r7, #12]
 80030fa:	2301      	movs	r3, #1
 80030fc:	77fb      	strb	r3, [r7, #31]
 80030fe:	4b79      	ldr	r3, [pc, #484]	@ (80032e4 <HAL_RCC_OscConfig+0x4bc>)
 8003100:	681b      	ldr	r3, [r3, #0]
 8003102:	f403 7380 	and.w	r3, r3, #256	@ 0x100
 8003106:	2b00      	cmp	r3, #0
 8003108:	d118      	bne.n	800313c <HAL_RCC_OscConfig+0x314>
 800310a:	4b76      	ldr	r3, [pc, #472]	@ (80032e4 <HAL_RCC_OscConfig+0x4bc>)
 800310c:	681b      	ldr	r3, [r3, #0]
 800310e:	4a75      	ldr	r2, [pc, #468]	@ (80032e4 <HAL_RCC_OscConfig+0x4bc>)
 8003110:	f443 7380 	orr.w	r3, r3, #256	@ 0x100
 8003114:	6013      	str	r3, [r2, #0]
 8003116:	f7fd ff6d 	bl	8000ff4 <HAL_GetTick>
 800311a:	6138      	str	r0, [r7, #16]
 800311c:	e008      	b.n	8003130 <HAL_RCC_OscConfig+0x308>
 800311e:	f7fd ff69 	bl	8000ff4 <HAL_GetTick>
 8003122:	4602      	mov	r2, r0
 8003124:	693b      	ldr	r3, [r7, #16]
 8003126:	1ad3      	subs	r3, r2, r3
 8003128:	2b02      	cmp	r3, #2
 800312a:	d901      	bls.n	8003130 <HAL_RCC_OscConfig+0x308>
 800312c:	2303      	movs	r3, #3
 800312e:	e183      	b.n	8003438 <HAL_RCC_OscConfig+0x610>
 8003130:	4b6c      	ldr	r3, [pc, #432]	@ (80032e4 <HAL_RCC_OscConfig+0x4bc>)
 8003132:	681b      	ldr	r3, [r3, #0]
 8003134:	f403 7380 	and.w	r3, r3, #256	@ 0x100
 8003138:	2b00      	cmp	r3, #0
 800313a:	d0f0      	beq.n	800311e <HAL_RCC_OscConfig+0x2f6>
 800313c:	687b      	ldr	r3, [r7, #4]
 800313e:	689b      	ldr	r3, [r3, #8]
 8003140:	2b01      	cmp	r3, #1
 8003142:	d108      	bne.n	8003156 <HAL_RCC_OscConfig+0x32e>
 8003144:	4b66      	ldr	r3, [pc, #408]	@ (80032e0 <HAL_RCC_OscConfig+0x4b8>)
 8003146:	f8d3 3090 	ldr.w	r3, [r3, #144]	@ 0x90
 800314a:	4a65      	ldr	r2, [pc, #404]	@ (80032e0 <HAL_RCC_OscConfig+0x4b8>)
 800314c:	f043 0301 	orr.w	r3, r3, #1
 8003150:	f8c2 3090 	str.w	r3, [r2, #144]	@ 0x90
 8003154:	e024      	b.n	80031a0 <HAL_RCC_OscConfig+0x378>
 8003156:	687b      	ldr	r3, [r7, #4]
 8003158:	689b      	ldr	r3, [r3, #8]
 800315a:	2b05      	cmp	r3, #5
 800315c:	d110      	bne.n	8003180 <HAL_RCC_OscConfig+0x358>
 800315e:	4b60      	ldr	r3, [pc, #384]	@ (80032e0 <HAL_RCC_OscConfig+0x4b8>)
 8003160:	f8d3 3090 	ldr.w	r3, [r3, #144]	@ 0x90
 8003164:	4a5e      	ldr	r2, [pc, #376]	@ (80032e0 <HAL_RCC_OscConfig+0x4b8>)
 8003166:	f043 0304 	orr.w	r3, r3, #4
 800316a:	f8c2 3090 	str.w	r3, [r2, #144]	@ 0x90
 800316e:	4b5c      	ldr	r3, [pc, #368]	@ (80032e0 <HAL_RCC_OscConfig+0x4b8>)
 8003170:	f8d3 3090 	ldr.w	r3, [r3, #144]	@ 0x90
 8003174:	4a5a      	ldr	r2, [pc, #360]	@ (80032e0 <HAL_RCC_OscConfig+0x4b8>)
 8003176:	f043 0301 	orr.w	r3, r3, #1
 800317a:	f8c2 3090 	str.w	r3, [r2, #144]	@ 0x90
 800317e:	e00f      	b.n	80031a0 <HAL_RCC_OscConfig+0x378>
 8003180:	4b57      	ldr	r3, [pc, #348]	@ (80032e0 <HAL_RCC_OscConfig+0x4b8>)
 8003182:	f8d3 3090 	ldr.w	r3, [r3, #144]	@ 0x90
 8003186:	4a56      	ldr	r2, [pc, #344]	@ (80032e0 <HAL_RCC_OscConfig+0x4b8>)
 8003188:	f023 0301 	bic.w	r3, r3, #1
 800318c:	f8c2 3090 	str.w	r3, [r2, #144]	@ 0x90
 8003190:	4b53      	ldr	r3, [pc, #332]	@ (80032e0 <HAL_RCC_OscConfig+0x4b8>)
 8003192:	f8d3 3090 	ldr.w	r3, [r3, #144]	@ 0x90
 8003196:	4a52      	ldr	r2, [pc, #328]	@ (80032e0 <HAL_RCC_OscConfig+0x4b8>)
 8003198:	f023 0304 	bic.w	r3, r3, #4
 800319c:	f8c2 3090 	str.w	r3, [r2, #144]	@ 0x90
 80031a0:	687b      	ldr	r3, [r7, #4]
 80031a2:	689b      	ldr	r3, [r3, #8]
 80031a4:	2b00      	cmp	r3, #0
 80031a6:	d016      	beq.n	80031d6 <HAL_RCC_OscConfig+0x3ae>
 80031a8:	f7fd ff24 	bl	8000ff4 <HAL_GetTick>
 80031ac:	6138      	str	r0, [r7, #16]
 80031ae:	e00a      	b.n	80031c6 <HAL_RCC_OscConfig+0x39e>
 80031b0:	f7fd ff20 	bl	8000ff4 <HAL_GetTick>
 80031b4:	4602      	mov	r2, r0
 80031b6:	693b      	ldr	r3, [r7, #16]
 80031b8:	1ad3      	subs	r3, r2, r3
 80031ba:	f241 3288 	movw	r2, #5000	@ 0x1388
 80031be:	4293      	cmp	r3, r2
 80031c0:	d901      	bls.n	80031c6 <HAL_RCC_OscConfig+0x39e>
 80031c2:	2303      	movs	r3, #3
 80031c4:	e138      	b.n	8003438 <HAL_RCC_OscConfig+0x610>
 80031c6:	4b46      	ldr	r3, [pc, #280]	@ (80032e0 <HAL_RCC_OscConfig+0x4b8>)
 80031c8:	f8d3 3090 	ldr.w	r3, [r3, #144]	@ 0x90
 80031cc:	f003 0302 	and.w	r3, r3, #2
 80031d0:	2b00      	cmp	r3, #0
 80031d2:	d0ed      	beq.n	80031b0 <HAL_RCC_OscConfig+0x388>
 80031d4:	e015      	b.n	8003202 <HAL_RCC_OscConfig+0x3da>
 80031d6:	f7fd ff0d 	bl	8000ff4 <HAL_GetTick>
 80031da:	6138      	str	r0, [r7, #16]
 80031dc:	e00a      	b.n	80031f4 <HAL_RCC_OscConfig+0x3cc>
 80031de:	f7fd ff09 	bl	8000ff4 <HAL_GetTick>
 80031e2:	4602      	mov	r2, r0
 80031e4:	693b      	ldr	r3, [r7, #16]
 80031e6:	1ad3      	subs	r3, r2, r3
 80031e8:	f241 3288 	movw	r2, #5000	@ 0x1388
 80031ec:	4293      	cmp	r3, r2
 80031ee:	d901      	bls.n	80031f4 <HAL_RCC_OscConfig+0x3cc>
 80031f0:	2303      	movs	r3, #3
 80031f2:	e121      	b.n	8003438 <HAL_RCC_OscConfig+0x610>
 80031f4:	4b3a      	ldr	r3, [pc, #232]	@ (80032e0 <HAL_RCC_OscConfig+0x4b8>)
 80031f6:	f8d3 3090 	ldr.w	r3, [r3, #144]	@ 0x90
 80031fa:	f003 0302 	and.w	r3, r3, #2
 80031fe:	2b00      	cmp	r3, #0
 8003200:	d1ed      	bne.n	80031de <HAL_RCC_OscConfig+0x3b6>
 8003202:	7ffb      	ldrb	r3, [r7, #31]
 8003204:	2b01      	cmp	r3, #1
 8003206:	d105      	bne.n	8003214 <HAL_RCC_OscConfig+0x3ec>
 8003208:	4b35      	ldr	r3, [pc, #212]	@ (80032e0 <HAL_RCC_OscConfig+0x4b8>)
 800320a:	6d9b      	ldr	r3, [r3, #88]	@ 0x58
 800320c:	4a34      	ldr	r2, [pc, #208]	@ (80032e0 <HAL_RCC_OscConfig+0x4b8>)
 800320e:	f023 5380 	bic.w	r3, r3, #268435456	@ 0x10000000
 8003212:	6593      	str	r3, [r2, #88]	@ 0x58
 8003214:	687b      	ldr	r3, [r7, #4]
 8003216:	681b      	ldr	r3, [r3, #0]
 8003218:	f003 0320 	and.w	r3, r3, #32
 800321c:	2b00      	cmp	r3, #0
 800321e:	d03c      	beq.n	800329a <HAL_RCC_OscConfig+0x472>
 8003220:	687b      	ldr	r3, [r7, #4]
 8003222:	699b      	ldr	r3, [r3, #24]
 8003224:	2b00      	cmp	r3, #0
 8003226:	d01c      	beq.n	8003262 <HAL_RCC_OscConfig+0x43a>
 8003228:	4b2d      	ldr	r3, [pc, #180]	@ (80032e0 <HAL_RCC_OscConfig+0x4b8>)
 800322a:	f8d3 3098 	ldr.w	r3, [r3, #152]	@ 0x98
 800322e:	4a2c      	ldr	r2, [pc, #176]	@ (80032e0 <HAL_RCC_OscConfig+0x4b8>)
 8003230:	f043 0301 	orr.w	r3, r3, #1
 8003234:	f8c2 3098 	str.w	r3, [r2, #152]	@ 0x98
 8003238:	f7fd fedc 	bl	8000ff4 <HAL_GetTick>
 800323c:	6138      	str	r0, [r7, #16]
 800323e:	e008      	b.n	8003252 <HAL_RCC_OscConfig+0x42a>
 8003240:	f7fd fed8 	bl	8000ff4 <HAL_GetTick>
 8003244:	4602      	mov	r2, r0
 8003246:	693b      	ldr	r3, [r7, #16]
 8003248:	1ad3      	subs	r3, r2, r3
 800324a:	2b02      	cmp	r3, #2
 800324c:	d901      	bls.n	8003252 <HAL_RCC_OscConfig+0x42a>
 800324e:	2303      	movs	r3, #3
 8003250:	e0f2      	b.n	8003438 <HAL_RCC_OscConfig+0x610>
 8003252:	4b23      	ldr	r3, [pc, #140]	@ (80032e0 <HAL_RCC_OscConfig+0x4b8>)
 8003254:	f8d3 3098 	ldr.w	r3, [r3, #152]	@ 0x98
 8003258:	f003 0302 	and.w	r3, r3, #2
 800325c:	2b00      	cmp	r3, #0
 800325e:	d0ef      	beq.n	8003240 <HAL_RCC_OscConfig+0x418>
 8003260:	e01b      	b.n	800329a <HAL_RCC_OscConfig+0x472>
 8003262:	4b1f      	ldr	r3, [pc, #124]	@ (80032e0 <HAL_RCC_OscConfig+0x4b8>)
 8003264:	f8d3 3098 	ldr.w	r3, [r3, #152]	@ 0x98
 8003268:	4a1d      	ldr	r2, [pc, #116]	@ (80032e0 <HAL_RCC_OscConfig+0x4b8>)
 800326a:	f023 0301 	bic.w	r3, r3, #1
 800326e:	f8c2 3098 	str.w	r3, [r2, #152]	@ 0x98
 8003272:	f7fd febf 	bl	8000ff4 <HAL_GetTick>
 8003276:	6138      	str	r0, [r7, #16]
 8003278:	e008      	b.n	800328c <HAL_RCC_OscConfig+0x464>
 800327a:	f7fd febb 	bl	8000ff4 <HAL_GetTick>
 800327e:	4602      	mov	r2, r0
 8003280:	693b      	ldr	r3, [r7, #16]
 8003282:	1ad3      	subs	r3, r2, r3
 8003284:	2b02      	cmp	r3, #2
 8003286:	d901      	bls.n	800328c <HAL_RCC_OscConfig+0x464>
 8003288:	2303      	movs	r3, #3
 800328a:	e0d5      	b.n	8003438 <HAL_RCC_OscConfig+0x610>
 800328c:	4b14      	ldr	r3, [pc, #80]	@ (80032e0 <HAL_RCC_OscConfig+0x4b8>)
 800328e:	f8d3 3098 	ldr.w	r3, [r3, #152]	@ 0x98
 8003292:	f003 0302 	and.w	r3, r3, #2
 8003296:	2b00      	cmp	r3, #0
 8003298:	d1ef      	bne.n	800327a <HAL_RCC_OscConfig+0x452>
 800329a:	687b      	ldr	r3, [r7, #4]
 800329c:	69db      	ldr	r3, [r3, #28]
 800329e:	2b00      	cmp	r3, #0
 80032a0:	f000 80c9 	beq.w	8003436 <HAL_RCC_OscConfig+0x60e>
 80032a4:	4b0e      	ldr	r3, [pc, #56]	@ (80032e0 <HAL_RCC_OscConfig+0x4b8>)
 80032a6:	689b      	ldr	r3, [r3, #8]
 80032a8:	f003 030c 	and.w	r3, r3, #12
 80032ac:	2b0c      	cmp	r3, #12
 80032ae:	f000 8083 	beq.w	80033b8 <HAL_RCC_OscConfig+0x590>
 80032b2:	687b      	ldr	r3, [r7, #4]
 80032b4:	69db      	ldr	r3, [r3, #28]
 80032b6:	2b02      	cmp	r3, #2
 80032b8:	d15e      	bne.n	8003378 <HAL_RCC_OscConfig+0x550>
 80032ba:	4b09      	ldr	r3, [pc, #36]	@ (80032e0 <HAL_RCC_OscConfig+0x4b8>)
 80032bc:	681b      	ldr	r3, [r3, #0]
 80032be:	4a08      	ldr	r2, [pc, #32]	@ (80032e0 <HAL_RCC_OscConfig+0x4b8>)
 80032c0:	f023 7380 	bic.w	r3, r3, #16777216	@ 0x1000000
 80032c4:	6013      	str	r3, [r2, #0]
 80032c6:	f7fd fe95 	bl	8000ff4 <HAL_GetTick>
 80032ca:	6138      	str	r0, [r7, #16]
 80032cc:	e00c      	b.n	80032e8 <HAL_RCC_OscConfig+0x4c0>
 80032ce:	f7fd fe91 	bl	8000ff4 <HAL_GetTick>
 80032d2:	4602      	mov	r2, r0
 80032d4:	693b      	ldr	r3, [r7, #16]
 80032d6:	1ad3      	subs	r3, r2, r3
 80032d8:	2b02      	cmp	r3, #2
 80032da:	d905      	bls.n	80032e8 <HAL_RCC_OscConfig+0x4c0>
 80032dc:	2303      	movs	r3, #3
 80032de:	e0ab      	b.n	8003438 <HAL_RCC_OscConfig+0x610>
 80032e0:	40021000 	.word	0x40021000
 80032e4:	40007000 	.word	0x40007000
 80032e8:	4b55      	ldr	r3, [pc, #340]	@ (8003440 <HAL_RCC_OscConfig+0x618>)
 80032ea:	681b      	ldr	r3, [r3, #0]
 80032ec:	f003 7300 	and.w	r3, r3, #33554432	@ 0x2000000
 80032f0:	2b00      	cmp	r3, #0
 80032f2:	d1ec      	bne.n	80032ce <HAL_RCC_OscConfig+0x4a6>
 80032f4:	4b52      	ldr	r3, [pc, #328]	@ (8003440 <HAL_RCC_OscConfig+0x618>)
 80032f6:	68da      	ldr	r2, [r3, #12]
 80032f8:	4b52      	ldr	r3, [pc, #328]	@ (8003444 <HAL_RCC_OscConfig+0x61c>)
 80032fa:	4013      	ands	r3, r2
 80032fc:	687a      	ldr	r2, [r7, #4]
 80032fe:	6a11      	ldr	r1, [r2, #32]
 8003300:	687a      	ldr	r2, [r7, #4]
 8003302:	6a52      	ldr	r2, [r2, #36]	@ 0x24
 8003304:	3a01      	subs	r2, #1
 8003306:	0112      	lsls	r2, r2, #4
 8003308:	4311      	orrs	r1, r2
 800330a:	687a      	ldr	r2, [r7, #4]
 800330c:	6a92      	ldr	r2, [r2, #40]	@ 0x28
 800330e:	0212      	lsls	r2, r2, #8
 8003310:	4311      	orrs	r1, r2
 8003312:	687a      	ldr	r2, [r7, #4]
 8003314:	6b12      	ldr	r2, [r2, #48]	@ 0x30
 8003316:	0852      	lsrs	r2, r2, #1
 8003318:	3a01      	subs	r2, #1
 800331a:	0552      	lsls	r2, r2, #21
 800331c:	4311      	orrs	r1, r2
 800331e:	687a      	ldr	r2, [r7, #4]
 8003320:	6b52      	ldr	r2, [r2, #52]	@ 0x34
 8003322:	0852      	lsrs	r2, r2, #1
 8003324:	3a01      	subs	r2, #1
 8003326:	0652      	lsls	r2, r2, #25
 8003328:	4311      	orrs	r1, r2
 800332a:	687a      	ldr	r2, [r7, #4]
 800332c:	6ad2      	ldr	r2, [r2, #44]	@ 0x2c
 800332e:	06d2      	lsls	r2, r2, #27
 8003330:	430a      	orrs	r2, r1
 8003332:	4943      	ldr	r1, [pc, #268]	@ (8003440 <HAL_RCC_OscConfig+0x618>)
 8003334:	4313      	orrs	r3, r2
 8003336:	60cb      	str	r3, [r1, #12]
 8003338:	4b41      	ldr	r3, [pc, #260]	@ (8003440 <HAL_RCC_OscConfig+0x618>)
 800333a:	681b      	ldr	r3, [r3, #0]
 800333c:	4a40      	ldr	r2, [pc, #256]	@ (8003440 <HAL_RCC_OscConfig+0x618>)
 800333e:	f043 7380 	orr.w	r3, r3, #16777216	@ 0x1000000
 8003342:	6013      	str	r3, [r2, #0]
 8003344:	4b3e      	ldr	r3, [pc, #248]	@ (8003440 <HAL_RCC_OscConfig+0x618>)
 8003346:	68db      	ldr	r3, [r3, #12]
 8003348:	4a3d      	ldr	r2, [pc, #244]	@ (8003440 <HAL_RCC_OscConfig+0x618>)
 800334a:	f043 7380 	orr.w	r3, r3, #16777216	@ 0x1000000
 800334e:	60d3      	str	r3, [r2, #12]
 8003350:	f7fd fe50 	bl	8000ff4 <HAL_GetTick>
 8003354:	6138      	str	r0, [r7, #16]
 8003356:	e008      	b.n	800336a <HAL_RCC_OscConfig+0x542>
 8003358:	f7fd fe4c 	bl	8000ff4 <HAL_GetTick>
 800335c:	4602      	mov	r2, r0
 800335e:	693b      	ldr	r3, [r7, #16]
 8003360:	1ad3      	subs	r3, r2, r3
 8003362:	2b02      	cmp	r3, #2
 8003364:	d901      	bls.n	800336a <HAL_RCC_OscConfig+0x542>
 8003366:	2303      	movs	r3, #3
 8003368:	e066      	b.n	8003438 <HAL_RCC_OscConfig+0x610>
 800336a:	4b35      	ldr	r3, [pc, #212]	@ (8003440 <HAL_RCC_OscConfig+0x618>)
 800336c:	681b      	ldr	r3, [r3, #0]
 800336e:	f003 7300 	and.w	r3, r3, #33554432	@ 0x2000000
 8003372:	2b00      	cmp	r3, #0
 8003374:	d0f0      	beq.n	8003358 <HAL_RCC_OscConfig+0x530>
 8003376:	e05e      	b.n	8003436 <HAL_RCC_OscConfig+0x60e>
 8003378:	4b31      	ldr	r3, [pc, #196]	@ (8003440 <HAL_RCC_OscConfig+0x618>)
 800337a:	681b      	ldr	r3, [r3, #0]
 800337c:	4a30      	ldr	r2, [pc, #192]	@ (8003440 <HAL_RCC_OscConfig+0x618>)
 800337e:	f023 7380 	bic.w	r3, r3, #16777216	@ 0x1000000
 8003382:	6013      	str	r3, [r2, #0]
 8003384:	f7fd fe36 	bl	8000ff4 <HAL_GetTick>
 8003388:	6138      	str	r0, [r7, #16]
 800338a:	e008      	b.n	800339e <HAL_RCC_OscConfig+0x576>
 800338c:	f7fd fe32 	bl	8000ff4 <HAL_GetTick>
 8003390:	4602      	mov	r2, r0
 8003392:	693b      	ldr	r3, [r7, #16]
 8003394:	1ad3      	subs	r3, r2, r3
 8003396:	2b02      	cmp	r3, #2
 8003398:	d901      	bls.n	800339e <HAL_RCC_OscConfig+0x576>
 800339a:	2303      	movs	r3, #3
 800339c:	e04c      	b.n	8003438 <HAL_RCC_OscConfig+0x610>
 800339e:	4b28      	ldr	r3, [pc, #160]	@ (8003440 <HAL_RCC_OscConfig+0x618>)
 80033a0:	681b      	ldr	r3, [r3, #0]
 80033a2:	f003 7300 	and.w	r3, r3, #33554432	@ 0x2000000
 80033a6:	2b00      	cmp	r3, #0
 80033a8:	d1f0      	bne.n	800338c <HAL_RCC_OscConfig+0x564>
 80033aa:	4b25      	ldr	r3, [pc, #148]	@ (8003440 <HAL_RCC_OscConfig+0x618>)
 80033ac:	68da      	ldr	r2, [r3, #12]
 80033ae:	4924      	ldr	r1, [pc, #144]	@ (8003440 <HAL_RCC_OscConfig+0x618>)
 80033b0:	4b25      	ldr	r3, [pc, #148]	@ (8003448 <HAL_RCC_OscConfig+0x620>)
 80033b2:	4013      	ands	r3, r2
 80033b4:	60cb      	str	r3, [r1, #12]
 80033b6:	e03e      	b.n	8003436 <HAL_RCC_OscConfig+0x60e>
 80033b8:	687b      	ldr	r3, [r7, #4]
 80033ba:	69db      	ldr	r3, [r3, #28]
 80033bc:	2b01      	cmp	r3, #1
 80033be:	d101      	bne.n	80033c4 <HAL_RCC_OscConfig+0x59c>
 80033c0:	2301      	movs	r3, #1
 80033c2:	e039      	b.n	8003438 <HAL_RCC_OscConfig+0x610>
 80033c4:	4b1e      	ldr	r3, [pc, #120]	@ (8003440 <HAL_RCC_OscConfig+0x618>)
 80033c6:	68db      	ldr	r3, [r3, #12]
 80033c8:	617b      	str	r3, [r7, #20]
 80033ca:	697b      	ldr	r3, [r7, #20]
 80033cc:	f003 0203 	and.w	r2, r3, #3
 80033d0:	687b      	ldr	r3, [r7, #4]
 80033d2:	6a1b      	ldr	r3, [r3, #32]
 80033d4:	429a      	cmp	r2, r3
 80033d6:	d12c      	bne.n	8003432 <HAL_RCC_OscConfig+0x60a>
 80033d8:	697b      	ldr	r3, [r7, #20]
 80033da:	f003 02f0 	and.w	r2, r3, #240	@ 0xf0
 80033de:	687b      	ldr	r3, [r7, #4]
 80033e0:	6a5b      	ldr	r3, [r3, #36]	@ 0x24
 80033e2:	3b01      	subs	r3, #1
 80033e4:	011b      	lsls	r3, r3, #4
 80033e6:	429a      	cmp	r2, r3
 80033e8:	d123      	bne.n	8003432 <HAL_RCC_OscConfig+0x60a>
 80033ea:	697b      	ldr	r3, [r7, #20]
 80033ec:	f403 42fe 	and.w	r2, r3, #32512	@ 0x7f00
 80033f0:	687b      	ldr	r3, [r7, #4]
 80033f2:	6a9b      	ldr	r3, [r3, #40]	@ 0x28
 80033f4:	021b      	lsls	r3, r3, #8
 80033f6:	429a      	cmp	r2, r3
 80033f8:	d11b      	bne.n	8003432 <HAL_RCC_OscConfig+0x60a>
 80033fa:	697b      	ldr	r3, [r7, #20]
 80033fc:	f003 4278 	and.w	r2, r3, #4160749568	@ 0xf8000000
 8003400:	687b      	ldr	r3, [r7, #4]
 8003402:	6adb      	ldr	r3, [r3, #44]	@ 0x2c
 8003404:	06db      	lsls	r3, r3, #27
 8003406:	429a      	cmp	r2, r3
 8003408:	d113      	bne.n	8003432 <HAL_RCC_OscConfig+0x60a>
 800340a:	697b      	ldr	r3, [r7, #20]
 800340c:	f403 02c0 	and.w	r2, r3, #6291456	@ 0x600000
 8003410:	687b      	ldr	r3, [r7, #4]
 8003412:	6b1b      	ldr	r3, [r3, #48]	@ 0x30
 8003414:	085b      	lsrs	r3, r3, #1
 8003416:	3b01      	subs	r3, #1
 8003418:	055b      	lsls	r3, r3, #21
 800341a:	429a      	cmp	r2, r3
 800341c:	d109      	bne.n	8003432 <HAL_RCC_OscConfig+0x60a>
 800341e:	697b      	ldr	r3, [r7, #20]
 8003420:	f003 62c0 	and.w	r2, r3, #100663296	@ 0x6000000
 8003424:	687b      	ldr	r3, [r7, #4]
 8003426:	6b5b      	ldr	r3, [r3, #52]	@ 0x34
 8003428:	085b      	lsrs	r3, r3, #1
 800342a:	3b01      	subs	r3, #1
 800342c:	065b      	lsls	r3, r3, #25
 800342e:	429a      	cmp	r2, r3
 8003430:	d001      	beq.n	8003436 <HAL_RCC_OscConfig+0x60e>
 8003432:	2301      	movs	r3, #1
 8003434:	e000      	b.n	8003438 <HAL_RCC_OscConfig+0x610>
 8003436:	2300      	movs	r3, #0
 8003438:	4618      	mov	r0, r3
 800343a:	3720      	adds	r7, #32
 800343c:	46bd      	mov	sp, r7
 800343e:	bd80      	pop	{r7, pc}
 8003440:	40021000 	.word	0x40021000
 8003444:	019f800c 	.word	0x019f800c
 8003448:	feeefffc 	.word	0xfeeefffc

0800344c <HAL_RCC_ClockConfig>:
 800344c:	b580      	push	{r7, lr}
 800344e:	b086      	sub	sp, #24
 8003450:	af00      	add	r7, sp, #0
 8003452:	6078      	str	r0, [r7, #4]
 8003454:	6039      	str	r1, [r7, #0]
 8003456:	2300      	movs	r3, #0
 8003458:	617b      	str	r3, [r7, #20]
 800345a:	687b      	ldr	r3, [r7, #4]
 800345c:	2b00      	cmp	r3, #0
 800345e:	d101      	bne.n	8003464 <HAL_RCC_ClockConfig+0x18>
 8003460:	2301      	movs	r3, #1
 8003462:	e11e      	b.n	80036a2 <HAL_RCC_ClockConfig+0x256>
 8003464:	4b91      	ldr	r3, [pc, #580]	@ (80036ac <HAL_RCC_ClockConfig+0x260>)
 8003466:	681b      	ldr	r3, [r3, #0]
 8003468:	f003 030f 	and.w	r3, r3, #15
 800346c:	683a      	ldr	r2, [r7, #0]
 800346e:	429a      	cmp	r2, r3
 8003470:	d910      	bls.n	8003494 <HAL_RCC_ClockConfig+0x48>
 8003472:	4b8e      	ldr	r3, [pc, #568]	@ (80036ac <HAL_RCC_ClockConfig+0x260>)
 8003474:	681b      	ldr	r3, [r3, #0]
 8003476:	f023 020f 	bic.w	r2, r3, #15
 800347a:	498c      	ldr	r1, [pc, #560]	@ (80036ac <HAL_RCC_ClockConfig+0x260>)
 800347c:	683b      	ldr	r3, [r7, #0]
 800347e:	4313      	orrs	r3, r2
 8003480:	600b      	str	r3, [r1, #0]
 8003482:	4b8a      	ldr	r3, [pc, #552]	@ (80036ac <HAL_RCC_ClockConfig+0x260>)
 8003484:	681b      	ldr	r3, [r3, #0]
 8003486:	f003 030f 	and.w	r3, r3, #15
 800348a:	683a      	ldr	r2, [r7, #0]
 800348c:	429a      	cmp	r2, r3
 800348e:	d001      	beq.n	8003494 <HAL_RCC_ClockConfig+0x48>
 8003490:	2301      	movs	r3, #1
 8003492:	e106      	b.n	80036a2 <HAL_RCC_ClockConfig+0x256>
 8003494:	687b      	ldr	r3, [r7, #4]
 8003496:	681b      	ldr	r3, [r3, #0]
 8003498:	f003 0301 	and.w	r3, r3, #1
 800349c:	2b00      	cmp	r3, #0
 800349e:	d073      	beq.n	8003588 <HAL_RCC_ClockConfig+0x13c>
 80034a0:	687b      	ldr	r3, [r7, #4]
 80034a2:	685b      	ldr	r3, [r3, #4]
 80034a4:	2b03      	cmp	r3, #3
 80034a6:	d129      	bne.n	80034fc <HAL_RCC_ClockConfig+0xb0>
 80034a8:	4b81      	ldr	r3, [pc, #516]	@ (80036b0 <HAL_RCC_ClockConfig+0x264>)
 80034aa:	681b      	ldr	r3, [r3, #0]
 80034ac:	f003 7300 	and.w	r3, r3, #33554432	@ 0x2000000
 80034b0:	2b00      	cmp	r3, #0
 80034b2:	d101      	bne.n	80034b8 <HAL_RCC_ClockConfig+0x6c>
 80034b4:	2301      	movs	r3, #1
 80034b6:	e0f4      	b.n	80036a2 <HAL_RCC_ClockConfig+0x256>
 80034b8:	f000 f99e 	bl	80037f8 <RCC_GetSysClockFreqFromPLLSource>
 80034bc:	6138      	str	r0, [r7, #16]
 80034be:	693b      	ldr	r3, [r7, #16]
 80034c0:	4a7c      	ldr	r2, [pc, #496]	@ (80036b4 <HAL_RCC_ClockConfig+0x268>)
 80034c2:	4293      	cmp	r3, r2
 80034c4:	d93f      	bls.n	8003546 <HAL_RCC_ClockConfig+0xfa>
 80034c6:	4b7a      	ldr	r3, [pc, #488]	@ (80036b0 <HAL_RCC_ClockConfig+0x264>)
 80034c8:	689b      	ldr	r3, [r3, #8]
 80034ca:	f003 03f0 	and.w	r3, r3, #240	@ 0xf0
 80034ce:	2b00      	cmp	r3, #0
 80034d0:	d009      	beq.n	80034e6 <HAL_RCC_ClockConfig+0x9a>
 80034d2:	687b      	ldr	r3, [r7, #4]
 80034d4:	681b      	ldr	r3, [r3, #0]
 80034d6:	f003 0302 	and.w	r3, r3, #2
 80034da:	2b00      	cmp	r3, #0
 80034dc:	d033      	beq.n	8003546 <HAL_RCC_ClockConfig+0xfa>
 80034de:	687b      	ldr	r3, [r7, #4]
 80034e0:	689b      	ldr	r3, [r3, #8]
 80034e2:	2b00      	cmp	r3, #0
 80034e4:	d12f      	bne.n	8003546 <HAL_RCC_ClockConfig+0xfa>
 80034e6:	4b72      	ldr	r3, [pc, #456]	@ (80036b0 <HAL_RCC_ClockConfig+0x264>)
 80034e8:	689b      	ldr	r3, [r3, #8]
 80034ea:	f023 03f0 	bic.w	r3, r3, #240	@ 0xf0
 80034ee:	4a70      	ldr	r2, [pc, #448]	@ (80036b0 <HAL_RCC_ClockConfig+0x264>)
 80034f0:	f043 0380 	orr.w	r3, r3, #128	@ 0x80
 80034f4:	6093      	str	r3, [r2, #8]
 80034f6:	2380      	movs	r3, #128	@ 0x80
 80034f8:	617b      	str	r3, [r7, #20]
 80034fa:	e024      	b.n	8003546 <HAL_RCC_ClockConfig+0xfa>
 80034fc:	687b      	ldr	r3, [r7, #4]
 80034fe:	685b      	ldr	r3, [r3, #4]
 8003500:	2b02      	cmp	r3, #2
 8003502:	d107      	bne.n	8003514 <HAL_RCC_ClockConfig+0xc8>
 8003504:	4b6a      	ldr	r3, [pc, #424]	@ (80036b0 <HAL_RCC_ClockConfig+0x264>)
 8003506:	681b      	ldr	r3, [r3, #0]
 8003508:	f403 3300 	and.w	r3, r3, #131072	@ 0x20000
 800350c:	2b00      	cmp	r3, #0
 800350e:	d109      	bne.n	8003524 <HAL_RCC_ClockConfig+0xd8>
 8003510:	2301      	movs	r3, #1
 8003512:	e0c6      	b.n	80036a2 <HAL_RCC_ClockConfig+0x256>
 8003514:	4b66      	ldr	r3, [pc, #408]	@ (80036b0 <HAL_RCC_ClockConfig+0x264>)
 8003516:	681b      	ldr	r3, [r3, #0]
 8003518:	f403 6380 	and.w	r3, r3, #1024	@ 0x400
 800351c:	2b00      	cmp	r3, #0
 800351e:	d101      	bne.n	8003524 <HAL_RCC_ClockConfig+0xd8>
 8003520:	2301      	movs	r3, #1
 8003522:	e0be      	b.n	80036a2 <HAL_RCC_ClockConfig+0x256>
 8003524:	f000 f8ce 	bl	80036c4 <HAL_RCC_GetSysClockFreq>
 8003528:	6138      	str	r0, [r7, #16]
 800352a:	693b      	ldr	r3, [r7, #16]
 800352c:	4a61      	ldr	r2, [pc, #388]	@ (80036b4 <HAL_RCC_ClockConfig+0x268>)
 800352e:	4293      	cmp	r3, r2
 8003530:	d909      	bls.n	8003546 <HAL_RCC_ClockConfig+0xfa>
 8003532:	4b5f      	ldr	r3, [pc, #380]	@ (80036b0 <HAL_RCC_ClockConfig+0x264>)
 8003534:	689b      	ldr	r3, [r3, #8]
 8003536:	f023 03f0 	bic.w	r3, r3, #240	@ 0xf0
 800353a:	4a5d      	ldr	r2, [pc, #372]	@ (80036b0 <HAL_RCC_ClockConfig+0x264>)
 800353c:	f043 0380 	orr.w	r3, r3, #128	@ 0x80
 8003540:	6093      	str	r3, [r2, #8]
 8003542:	2380      	movs	r3, #128	@ 0x80
 8003544:	617b      	str	r3, [r7, #20]
 8003546:	4b5a      	ldr	r3, [pc, #360]	@ (80036b0 <HAL_RCC_ClockConfig+0x264>)
 8003548:	689b      	ldr	r3, [r3, #8]
 800354a:	f023 0203 	bic.w	r2, r3, #3
 800354e:	687b      	ldr	r3, [r7, #4]
 8003550:	685b      	ldr	r3, [r3, #4]
 8003552:	4957      	ldr	r1, [pc, #348]	@ (80036b0 <HAL_RCC_ClockConfig+0x264>)
 8003554:	4313      	orrs	r3, r2
 8003556:	608b      	str	r3, [r1, #8]
 8003558:	f7fd fd4c 	bl	8000ff4 <HAL_GetTick>
 800355c:	60f8      	str	r0, [r7, #12]
 800355e:	e00a      	b.n	8003576 <HAL_RCC_ClockConfig+0x12a>
 8003560:	f7fd fd48 	bl	8000ff4 <HAL_GetTick>
 8003564:	4602      	mov	r2, r0
 8003566:	68fb      	ldr	r3, [r7, #12]
 8003568:	1ad3      	subs	r3, r2, r3
 800356a:	f241 3288 	movw	r2, #5000	@ 0x1388
 800356e:	4293      	cmp	r3, r2
 8003570:	d901      	bls.n	8003576 <HAL_RCC_ClockConfig+0x12a>
 8003572:	2303      	movs	r3, #3
 8003574:	e095      	b.n	80036a2 <HAL_RCC_ClockConfig+0x256>
 8003576:	4b4e      	ldr	r3, [pc, #312]	@ (80036b0 <HAL_RCC_ClockConfig+0x264>)
 8003578:	689b      	ldr	r3, [r3, #8]
 800357a:	f003 020c 	and.w	r2, r3, #12
 800357e:	687b      	ldr	r3, [r7, #4]
 8003580:	685b      	ldr	r3, [r3, #4]
 8003582:	009b      	lsls	r3, r3, #2
 8003584:	429a      	cmp	r2, r3
 8003586:	d1eb      	bne.n	8003560 <HAL_RCC_ClockConfig+0x114>
 8003588:	687b      	ldr	r3, [r7, #4]
 800358a:	681b      	ldr	r3, [r3, #0]
 800358c:	f003 0302 	and.w	r3, r3, #2
 8003590:	2b00      	cmp	r3, #0
 8003592:	d023      	beq.n	80035dc <HAL_RCC_ClockConfig+0x190>
 8003594:	687b      	ldr	r3, [r7, #4]
 8003596:	681b      	ldr	r3, [r3, #0]
 8003598:	f003 0304 	and.w	r3, r3, #4
 800359c:	2b00      	cmp	r3, #0
 800359e:	d005      	beq.n	80035ac <HAL_RCC_ClockConfig+0x160>
 80035a0:	4b43      	ldr	r3, [pc, #268]	@ (80036b0 <HAL_RCC_ClockConfig+0x264>)
 80035a2:	689b      	ldr	r3, [r3, #8]
 80035a4:	4a42      	ldr	r2, [pc, #264]	@ (80036b0 <HAL_RCC_ClockConfig+0x264>)
 80035a6:	f443 63e0 	orr.w	r3, r3, #1792	@ 0x700
 80035aa:	6093      	str	r3, [r2, #8]
 80035ac:	687b      	ldr	r3, [r7, #4]
 80035ae:	681b      	ldr	r3, [r3, #0]
 80035b0:	f003 0308 	and.w	r3, r3, #8
 80035b4:	2b00      	cmp	r3, #0
 80035b6:	d007      	beq.n	80035c8 <HAL_RCC_ClockConfig+0x17c>
 80035b8:	4b3d      	ldr	r3, [pc, #244]	@ (80036b0 <HAL_RCC_ClockConfig+0x264>)
 80035ba:	689b      	ldr	r3, [r3, #8]
 80035bc:	f423 537c 	bic.w	r3, r3, #16128	@ 0x3f00
 80035c0:	4a3b      	ldr	r2, [pc, #236]	@ (80036b0 <HAL_RCC_ClockConfig+0x264>)
 80035c2:	f443 63e0 	orr.w	r3, r3, #1792	@ 0x700
 80035c6:	6093      	str	r3, [r2, #8]
 80035c8:	4b39      	ldr	r3, [pc, #228]	@ (80036b0 <HAL_RCC_ClockConfig+0x264>)
 80035ca:	689b      	ldr	r3, [r3, #8]
 80035cc:	f023 02f0 	bic.w	r2, r3, #240	@ 0xf0
 80035d0:	687b      	ldr	r3, [r7, #4]
 80035d2:	689b      	ldr	r3, [r3, #8]
 80035d4:	4936      	ldr	r1, [pc, #216]	@ (80036b0 <HAL_RCC_ClockConfig+0x264>)
 80035d6:	4313      	orrs	r3, r2
 80035d8:	608b      	str	r3, [r1, #8]
 80035da:	e008      	b.n	80035ee <HAL_RCC_ClockConfig+0x1a2>
 80035dc:	697b      	ldr	r3, [r7, #20]
 80035de:	2b80      	cmp	r3, #128	@ 0x80
 80035e0:	d105      	bne.n	80035ee <HAL_RCC_ClockConfig+0x1a2>
 80035e2:	4b33      	ldr	r3, [pc, #204]	@ (80036b0 <HAL_RCC_ClockConfig+0x264>)
 80035e4:	689b      	ldr	r3, [r3, #8]
 80035e6:	4a32      	ldr	r2, [pc, #200]	@ (80036b0 <HAL_RCC_ClockConfig+0x264>)
 80035e8:	f023 03f0 	bic.w	r3, r3, #240	@ 0xf0
 80035ec:	6093      	str	r3, [r2, #8]
 80035ee:	4b2f      	ldr	r3, [pc, #188]	@ (80036ac <HAL_RCC_ClockConfig+0x260>)
 80035f0:	681b      	ldr	r3, [r3, #0]
 80035f2:	f003 030f 	and.w	r3, r3, #15
 80035f6:	683a      	ldr	r2, [r7, #0]
 80035f8:	429a      	cmp	r2, r3
 80035fa:	d21d      	bcs.n	8003638 <HAL_RCC_ClockConfig+0x1ec>
 80035fc:	4b2b      	ldr	r3, [pc, #172]	@ (80036ac <HAL_RCC_ClockConfig+0x260>)
 80035fe:	681b      	ldr	r3, [r3, #0]
 8003600:	f023 020f 	bic.w	r2, r3, #15
 8003604:	4929      	ldr	r1, [pc, #164]	@ (80036ac <HAL_RCC_ClockConfig+0x260>)
 8003606:	683b      	ldr	r3, [r7, #0]
 8003608:	4313      	orrs	r3, r2
 800360a:	600b      	str	r3, [r1, #0]
 800360c:	f7fd fcf2 	bl	8000ff4 <HAL_GetTick>
 8003610:	60f8      	str	r0, [r7, #12]
 8003612:	e00a      	b.n	800362a <HAL_RCC_ClockConfig+0x1de>
 8003614:	f7fd fcee 	bl	8000ff4 <HAL_GetTick>
 8003618:	4602      	mov	r2, r0
 800361a:	68fb      	ldr	r3, [r7, #12]
 800361c:	1ad3      	subs	r3, r2, r3
 800361e:	f241 3288 	movw	r2, #5000	@ 0x1388
 8003622:	4293      	cmp	r3, r2
 8003624:	d901      	bls.n	800362a <HAL_RCC_ClockConfig+0x1de>
 8003626:	2303      	movs	r3, #3
 8003628:	e03b      	b.n	80036a2 <HAL_RCC_ClockConfig+0x256>
 800362a:	4b20      	ldr	r3, [pc, #128]	@ (80036ac <HAL_RCC_ClockConfig+0x260>)
 800362c:	681b      	ldr	r3, [r3, #0]
 800362e:	f003 030f 	and.w	r3, r3, #15
 8003632:	683a      	ldr	r2, [r7, #0]
 8003634:	429a      	cmp	r2, r3
 8003636:	d1ed      	bne.n	8003614 <HAL_RCC_ClockConfig+0x1c8>
 8003638:	687b      	ldr	r3, [r7, #4]
 800363a:	681b      	ldr	r3, [r3, #0]
 800363c:	f003 0304 	and.w	r3, r3, #4
 8003640:	2b00      	cmp	r3, #0
 8003642:	d008      	beq.n	8003656 <HAL_RCC_ClockConfig+0x20a>
 8003644:	4b1a      	ldr	r3, [pc, #104]	@ (80036b0 <HAL_RCC_ClockConfig+0x264>)
 8003646:	689b      	ldr	r3, [r3, #8]
 8003648:	f423 62e0 	bic.w	r2, r3, #1792	@ 0x700
 800364c:	687b      	ldr	r3, [r7, #4]
 800364e:	68db      	ldr	r3, [r3, #12]
 8003650:	4917      	ldr	r1, [pc, #92]	@ (80036b0 <HAL_RCC_ClockConfig+0x264>)
 8003652:	4313      	orrs	r3, r2
 8003654:	608b      	str	r3, [r1, #8]
 8003656:	687b      	ldr	r3, [r7, #4]
 8003658:	681b      	ldr	r3, [r3, #0]
 800365a:	f003 0308 	and.w	r3, r3, #8
 800365e:	2b00      	cmp	r3, #0
 8003660:	d009      	beq.n	8003676 <HAL_RCC_ClockConfig+0x22a>
 8003662:	4b13      	ldr	r3, [pc, #76]	@ (80036b0 <HAL_RCC_ClockConfig+0x264>)
 8003664:	689b      	ldr	r3, [r3, #8]
 8003666:	f423 5260 	bic.w	r2, r3, #14336	@ 0x3800
 800366a:	687b      	ldr	r3, [r7, #4]
 800366c:	691b      	ldr	r3, [r3, #16]
 800366e:	00db      	lsls	r3, r3, #3
 8003670:	490f      	ldr	r1, [pc, #60]	@ (80036b0 <HAL_RCC_ClockConfig+0x264>)
 8003672:	4313      	orrs	r3, r2
 8003674:	608b      	str	r3, [r1, #8]
 8003676:	f000 f825 	bl	80036c4 <HAL_RCC_GetSysClockFreq>
 800367a:	4602      	mov	r2, r0
 800367c:	4b0c      	ldr	r3, [pc, #48]	@ (80036b0 <HAL_RCC_ClockConfig+0x264>)
 800367e:	689b      	ldr	r3, [r3, #8]
 8003680:	091b      	lsrs	r3, r3, #4
 8003682:	f003 030f 	and.w	r3, r3, #15
 8003686:	490c      	ldr	r1, [pc, #48]	@ (80036b8 <HAL_RCC_ClockConfig+0x26c>)
 8003688:	5ccb      	ldrb	r3, [r1, r3]
 800368a:	f003 031f 	and.w	r3, r3, #31
 800368e:	fa22 f303 	lsr.w	r3, r2, r3
 8003692:	4a0a      	ldr	r2, [pc, #40]	@ (80036bc <HAL_RCC_ClockConfig+0x270>)
 8003694:	6013      	str	r3, [r2, #0]
 8003696:	4b0a      	ldr	r3, [pc, #40]	@ (80036c0 <HAL_RCC_ClockConfig+0x274>)
 8003698:	681b      	ldr	r3, [r3, #0]
 800369a:	4618      	mov	r0, r3
 800369c:	f7fd fc5e 	bl	8000f5c <HAL_InitTick>
 80036a0:	4603      	mov	r3, r0
 80036a2:	4618      	mov	r0, r3
 80036a4:	3718      	adds	r7, #24
 80036a6:	46bd      	mov	sp, r7
 80036a8:	bd80      	pop	{r7, pc}
 80036aa:	bf00      	nop
 80036ac:	40022000 	.word	0x40022000
 80036b0:	40021000 	.word	0x40021000
 80036b4:	04c4b400 	.word	0x04c4b400
 80036b8:	08006d70 	.word	0x08006d70
 80036bc:	20000000 	.word	0x20000000
 80036c0:	20000004 	.word	0x20000004

080036c4 <HAL_RCC_GetSysClockFreq>:
 80036c4:	b480      	push	{r7}
 80036c6:	b087      	sub	sp, #28
 80036c8:	af00      	add	r7, sp, #0
 80036ca:	4b2c      	ldr	r3, [pc, #176]	@ (800377c <HAL_RCC_GetSysClockFreq+0xb8>)
 80036cc:	689b      	ldr	r3, [r3, #8]
 80036ce:	f003 030c 	and.w	r3, r3, #12
 80036d2:	2b04      	cmp	r3, #4
 80036d4:	d102      	bne.n	80036dc <HAL_RCC_GetSysClockFreq+0x18>
 80036d6:	4b2a      	ldr	r3, [pc, #168]	@ (8003780 <HAL_RCC_GetSysClockFreq+0xbc>)
 80036d8:	613b      	str	r3, [r7, #16]
 80036da:	e047      	b.n	800376c <HAL_RCC_GetSysClockFreq+0xa8>
 80036dc:	4b27      	ldr	r3, [pc, #156]	@ (800377c <HAL_RCC_GetSysClockFreq+0xb8>)
 80036de:	689b      	ldr	r3, [r3, #8]
 80036e0:	f003 030c 	and.w	r3, r3, #12
 80036e4:	2b08      	cmp	r3, #8
 80036e6:	d102      	bne.n	80036ee <HAL_RCC_GetSysClockFreq+0x2a>
 80036e8:	4b26      	ldr	r3, [pc, #152]	@ (8003784 <HAL_RCC_GetSysClockFreq+0xc0>)
 80036ea:	613b      	str	r3, [r7, #16]
 80036ec:	e03e      	b.n	800376c <HAL_RCC_GetSysClockFreq+0xa8>
 80036ee:	4b23      	ldr	r3, [pc, #140]	@ (800377c <HAL_RCC_GetSysClockFreq+0xb8>)
 80036f0:	689b      	ldr	r3, [r3, #8]
 80036f2:	f003 030c 	and.w	r3, r3, #12
 80036f6:	2b0c      	cmp	r3, #12
 80036f8:	d136      	bne.n	8003768 <HAL_RCC_GetSysClockFreq+0xa4>
 80036fa:	4b20      	ldr	r3, [pc, #128]	@ (800377c <HAL_RCC_GetSysClockFreq+0xb8>)
 80036fc:	68db      	ldr	r3, [r3, #12]
 80036fe:	f003 0303 	and.w	r3, r3, #3
 8003702:	60fb      	str	r3, [r7, #12]
 8003704:	4b1d      	ldr	r3, [pc, #116]	@ (800377c <HAL_RCC_GetSysClockFreq+0xb8>)
 8003706:	68db      	ldr	r3, [r3, #12]
 8003708:	091b      	lsrs	r3, r3, #4
 800370a:	f003 030f 	and.w	r3, r3, #15
 800370e:	3301      	adds	r3, #1
 8003710:	60bb      	str	r3, [r7, #8]
 8003712:	68fb      	ldr	r3, [r7, #12]
 8003714:	2b03      	cmp	r3, #3
 8003716:	d10c      	bne.n	8003732 <HAL_RCC_GetSysClockFreq+0x6e>
 8003718:	4a1a      	ldr	r2, [pc, #104]	@ (8003784 <HAL_RCC_GetSysClockFreq+0xc0>)
 800371a:	68bb      	ldr	r3, [r7, #8]
 800371c:	fbb2 f3f3 	udiv	r3, r2, r3
 8003720:	4a16      	ldr	r2, [pc, #88]	@ (800377c <HAL_RCC_GetSysClockFreq+0xb8>)
 8003722:	68d2      	ldr	r2, [r2, #12]
 8003724:	0a12      	lsrs	r2, r2, #8
 8003726:	f002 027f 	and.w	r2, r2, #127	@ 0x7f
 800372a:	fb02 f303 	mul.w	r3, r2, r3
 800372e:	617b      	str	r3, [r7, #20]
 8003730:	e00c      	b.n	800374c <HAL_RCC_GetSysClockFreq+0x88>
 8003732:	4a13      	ldr	r2, [pc, #76]	@ (8003780 <HAL_RCC_GetSysClockFreq+0xbc>)
 8003734:	68bb      	ldr	r3, [r7, #8]
 8003736:	fbb2 f3f3 	udiv	r3, r2, r3
 800373a:	4a10      	ldr	r2, [pc, #64]	@ (800377c <HAL_RCC_GetSysClockFreq+0xb8>)
 800373c:	68d2      	ldr	r2, [r2, #12]
 800373e:	0a12      	lsrs	r2, r2, #8
 8003740:	f002 027f 	and.w	r2, r2, #127	@ 0x7f
 8003744:	fb02 f303 	mul.w	r3, r2, r3
 8003748:	617b      	str	r3, [r7, #20]
 800374a:	bf00      	nop
 800374c:	4b0b      	ldr	r3, [pc, #44]	@ (800377c <HAL_RCC_GetSysClockFreq+0xb8>)
 800374e:	68db      	ldr	r3, [r3, #12]
 8003750:	0e5b      	lsrs	r3, r3, #25
 8003752:	f003 0303 	and.w	r3, r3, #3
 8003756:	3301      	adds	r3, #1
 8003758:	005b      	lsls	r3, r3, #1
 800375a:	607b      	str	r3, [r7, #4]
 800375c:	697a      	ldr	r2, [r7, #20]
 800375e:	687b      	ldr	r3, [r7, #4]
 8003760:	fbb2 f3f3 	udiv	r3, r2, r3
 8003764:	613b      	str	r3, [r7, #16]
 8003766:	e001      	b.n	800376c <HAL_RCC_GetSysClockFreq+0xa8>
 8003768:	2300      	movs	r3, #0
 800376a:	613b      	str	r3, [r7, #16]
 800376c:	693b      	ldr	r3, [r7, #16]
 800376e:	4618      	mov	r0, r3
 8003770:	371c      	adds	r7, #28
 8003772:	46bd      	mov	sp, r7
 8003774:	f85d 7b04 	ldr.w	r7, [sp], #4
 8003778:	4770      	bx	lr
 800377a:	bf00      	nop
 800377c:	40021000 	.word	0x40021000
 8003780:	00f42400 	.word	0x00f42400
 8003784:	016e3600 	.word	0x016e3600

08003788 <HAL_RCC_GetHCLKFreq>:
 8003788:	b480      	push	{r7}
 800378a:	af00      	add	r7, sp, #0
 800378c:	4b03      	ldr	r3, [pc, #12]	@ (800379c <HAL_RCC_GetHCLKFreq+0x14>)
 800378e:	681b      	ldr	r3, [r3, #0]
 8003790:	4618      	mov	r0, r3
 8003792:	46bd      	mov	sp, r7
 8003794:	f85d 7b04 	ldr.w	r7, [sp], #4
 8003798:	4770      	bx	lr
 800379a:	bf00      	nop
 800379c:	20000000 	.word	0x20000000

080037a0 <HAL_RCC_GetPCLK1Freq>:
 80037a0:	b580      	push	{r7, lr}
 80037a2:	af00      	add	r7, sp, #0
 80037a4:	f7ff fff0 	bl	8003788 <HAL_RCC_GetHCLKFreq>
 80037a8:	4602      	mov	r2, r0
 80037aa:	4b06      	ldr	r3, [pc, #24]	@ (80037c4 <HAL_RCC_GetPCLK1Freq+0x24>)
 80037ac:	689b      	ldr	r3, [r3, #8]
 80037ae:	0a1b      	lsrs	r3, r3, #8
 80037b0:	f003 0307 	and.w	r3, r3, #7
 80037b4:	4904      	ldr	r1, [pc, #16]	@ (80037c8 <HAL_RCC_GetPCLK1Freq+0x28>)
 80037b6:	5ccb      	ldrb	r3, [r1, r3]
 80037b8:	f003 031f 	and.w	r3, r3, #31
 80037bc:	fa22 f303 	lsr.w	r3, r2, r3
 80037c0:	4618      	mov	r0, r3
 80037c2:	bd80      	pop	{r7, pc}
 80037c4:	40021000 	.word	0x40021000
 80037c8:	08006d80 	.word	0x08006d80

080037cc <HAL_RCC_GetPCLK2Freq>:
 80037cc:	b580      	push	{r7, lr}
 80037ce:	af00      	add	r7, sp, #0
 80037d0:	f7ff ffda 	bl	8003788 <HAL_RCC_GetHCLKFreq>
 80037d4:	4602      	mov	r2, r0
 80037d6:	4b06      	ldr	r3, [pc, #24]	@ (80037f0 <HAL_RCC_GetPCLK2Freq+0x24>)
 80037d8:	689b      	ldr	r3, [r3, #8]
 80037da:	0adb      	lsrs	r3, r3, #11
 80037dc:	f003 0307 	and.w	r3, r3, #7
 80037e0:	4904      	ldr	r1, [pc, #16]	@ (80037f4 <HAL_RCC_GetPCLK2Freq+0x28>)
 80037e2:	5ccb      	ldrb	r3, [r1, r3]
 80037e4:	f003 031f 	and.w	r3, r3, #31
 80037e8:	fa22 f303 	lsr.w	r3, r2, r3
 80037ec:	4618      	mov	r0, r3
 80037ee:	bd80      	pop	{r7, pc}
 80037f0:	40021000 	.word	0x40021000
 80037f4:	08006d80 	.word	0x08006d80

080037f8 <RCC_GetSysClockFreqFromPLLSource>:
 80037f8:	b480      	push	{r7}
 80037fa:	b087      	sub	sp, #28
 80037fc:	af00      	add	r7, sp, #0
 80037fe:	4b1e      	ldr	r3, [pc, #120]	@ (8003878 <RCC_GetSysClockFreqFromPLLSource+0x80>)
 8003800:	68db      	ldr	r3, [r3, #12]
 8003802:	f003 0303 	and.w	r3, r3, #3
 8003806:	613b      	str	r3, [r7, #16]
 8003808:	4b1b      	ldr	r3, [pc, #108]	@ (8003878 <RCC_GetSysClockFreqFromPLLSource+0x80>)
 800380a:	68db      	ldr	r3, [r3, #12]
 800380c:	091b      	lsrs	r3, r3, #4
 800380e:	f003 030f 	and.w	r3, r3, #15
 8003812:	3301      	adds	r3, #1
 8003814:	60fb      	str	r3, [r7, #12]
 8003816:	693b      	ldr	r3, [r7, #16]
 8003818:	2b03      	cmp	r3, #3
 800381a:	d10c      	bne.n	8003836 <RCC_GetSysClockFreqFromPLLSource+0x3e>
 800381c:	4a17      	ldr	r2, [pc, #92]	@ (800387c <RCC_GetSysClockFreqFromPLLSource+0x84>)
 800381e:	68fb      	ldr	r3, [r7, #12]
 8003820:	fbb2 f3f3 	udiv	r3, r2, r3
 8003824:	4a14      	ldr	r2, [pc, #80]	@ (8003878 <RCC_GetSysClockFreqFromPLLSource+0x80>)
 8003826:	68d2      	ldr	r2, [r2, #12]
 8003828:	0a12      	lsrs	r2, r2, #8
 800382a:	f002 027f 	and.w	r2, r2, #127	@ 0x7f
 800382e:	fb02 f303 	mul.w	r3, r2, r3
 8003832:	617b      	str	r3, [r7, #20]
 8003834:	e00c      	b.n	8003850 <RCC_GetSysClockFreqFromPLLSource+0x58>
 8003836:	4a12      	ldr	r2, [pc, #72]	@ (8003880 <RCC_GetSysClockFreqFromPLLSource+0x88>)
 8003838:	68fb      	ldr	r3, [r7, #12]
 800383a:	fbb2 f3f3 	udiv	r3, r2, r3
 800383e:	4a0e      	ldr	r2, [pc, #56]	@ (8003878 <RCC_GetSysClockFreqFromPLLSource+0x80>)
 8003840:	68d2      	ldr	r2, [r2, #12]
 8003842:	0a12      	lsrs	r2, r2, #8
 8003844:	f002 027f 	and.w	r2, r2, #127	@ 0x7f
 8003848:	fb02 f303 	mul.w	r3, r2, r3
 800384c:	617b      	str	r3, [r7, #20]
 800384e:	bf00      	nop
 8003850:	4b09      	ldr	r3, [pc, #36]	@ (8003878 <RCC_GetSysClockFreqFromPLLSource+0x80>)
 8003852:	68db      	ldr	r3, [r3, #12]
 8003854:	0e5b      	lsrs	r3, r3, #25
 8003856:	f003 0303 	and.w	r3, r3, #3
 800385a:	3301      	adds	r3, #1
 800385c:	005b      	lsls	r3, r3, #1
 800385e:	60bb      	str	r3, [r7, #8]
 8003860:	697a      	ldr	r2, [r7, #20]
 8003862:	68bb      	ldr	r3, [r7, #8]
 8003864:	fbb2 f3f3 	udiv	r3, r2, r3
 8003868:	607b      	str	r3, [r7, #4]
 800386a:	687b      	ldr	r3, [r7, #4]
 800386c:	4618      	mov	r0, r3
 800386e:	371c      	adds	r7, #28
 8003870:	46bd      	mov	sp, r7
 8003872:	f85d 7b04 	ldr.w	r7, [sp], #4
 8003876:	4770      	bx	lr
 8003878:	40021000 	.word	0x40021000
 800387c:	016e3600 	.word	0x016e3600
 8003880:	00f42400 	.word	0x00f42400

08003884 <HAL_RCCEx_PeriphCLKConfig>:
 8003884:	b580      	push	{r7, lr}
 8003886:	b086      	sub	sp, #24
 8003888:	af00      	add	r7, sp, #0
 800388a:	6078      	str	r0, [r7, #4]
 800388c:	2300      	movs	r3, #0
 800388e:	74fb      	strb	r3, [r7, #19]
 8003890:	2300      	movs	r3, #0
 8003892:	74bb      	strb	r3, [r7, #18]
 8003894:	687b      	ldr	r3, [r7, #4]
 8003896:	681b      	ldr	r3, [r3, #0]
 8003898:	f403 2300 	and.w	r3, r3, #524288	@ 0x80000
 800389c:	2b00      	cmp	r3, #0
 800389e:	f000 8098 	beq.w	80039d2 <HAL_RCCEx_PeriphCLKConfig+0x14e>
 80038a2:	2300      	movs	r3, #0
 80038a4:	747b      	strb	r3, [r7, #17]
 80038a6:	4b43      	ldr	r3, [pc, #268]	@ (80039b4 <HAL_RCCEx_PeriphCLKConfig+0x130>)
 80038a8:	6d9b      	ldr	r3, [r3, #88]	@ 0x58
 80038aa:	f003 5380 	and.w	r3, r3, #268435456	@ 0x10000000
 80038ae:	2b00      	cmp	r3, #0
 80038b0:	d10d      	bne.n	80038ce <HAL_RCCEx_PeriphCLKConfig+0x4a>
 80038b2:	4b40      	ldr	r3, [pc, #256]	@ (80039b4 <HAL_RCCEx_PeriphCLKConfig+0x130>)
 80038b4:	6d9b      	ldr	r3, [r3, #88]	@ 0x58
 80038b6:	4a3f      	ldr	r2, [pc, #252]	@ (80039b4 <HAL_RCCEx_PeriphCLKConfig+0x130>)
 80038b8:	f043 5380 	orr.w	r3, r3, #268435456	@ 0x10000000
 80038bc:	6593      	str	r3, [r2, #88]	@ 0x58
 80038be:	4b3d      	ldr	r3, [pc, #244]	@ (80039b4 <HAL_RCCEx_PeriphCLKConfig+0x130>)
 80038c0:	6d9b      	ldr	r3, [r3, #88]	@ 0x58
 80038c2:	f003 5380 	and.w	r3, r3, #268435456	@ 0x10000000
 80038c6:	60bb      	str	r3, [r7, #8]
 80038c8:	68bb      	ldr	r3, [r7, #8]
 80038ca:	2301      	movs	r3, #1
 80038cc:	747b      	strb	r3, [r7, #17]
 80038ce:	4b3a      	ldr	r3, [pc, #232]	@ (80039b8 <HAL_RCCEx_PeriphCLKConfig+0x134>)
 80038d0:	681b      	ldr	r3, [r3, #0]
 80038d2:	4a39      	ldr	r2, [pc, #228]	@ (80039b8 <HAL_RCCEx_PeriphCLKConfig+0x134>)
 80038d4:	f443 7380 	orr.w	r3, r3, #256	@ 0x100
 80038d8:	6013      	str	r3, [r2, #0]
 80038da:	f7fd fb8b 	bl	8000ff4 <HAL_GetTick>
 80038de:	60f8      	str	r0, [r7, #12]
 80038e0:	e009      	b.n	80038f6 <HAL_RCCEx_PeriphCLKConfig+0x72>
 80038e2:	f7fd fb87 	bl	8000ff4 <HAL_GetTick>
 80038e6:	4602      	mov	r2, r0
 80038e8:	68fb      	ldr	r3, [r7, #12]
 80038ea:	1ad3      	subs	r3, r2, r3
 80038ec:	2b02      	cmp	r3, #2
 80038ee:	d902      	bls.n	80038f6 <HAL_RCCEx_PeriphCLKConfig+0x72>
 80038f0:	2303      	movs	r3, #3
 80038f2:	74fb      	strb	r3, [r7, #19]
 80038f4:	e005      	b.n	8003902 <HAL_RCCEx_PeriphCLKConfig+0x7e>
 80038f6:	4b30      	ldr	r3, [pc, #192]	@ (80039b8 <HAL_RCCEx_PeriphCLKConfig+0x134>)
 80038f8:	681b      	ldr	r3, [r3, #0]
 80038fa:	f403 7380 	and.w	r3, r3, #256	@ 0x100
 80038fe:	2b00      	cmp	r3, #0
 8003900:	d0ef      	beq.n	80038e2 <HAL_RCCEx_PeriphCLKConfig+0x5e>
 8003902:	7cfb      	ldrb	r3, [r7, #19]
 8003904:	2b00      	cmp	r3, #0
 8003906:	d159      	bne.n	80039bc <HAL_RCCEx_PeriphCLKConfig+0x138>
 8003908:	4b2a      	ldr	r3, [pc, #168]	@ (80039b4 <HAL_RCCEx_PeriphCLKConfig+0x130>)
 800390a:	f8d3 3090 	ldr.w	r3, [r3, #144]	@ 0x90
 800390e:	f403 7340 	and.w	r3, r3, #768	@ 0x300
 8003912:	617b      	str	r3, [r7, #20]
 8003914:	697b      	ldr	r3, [r7, #20]
 8003916:	2b00      	cmp	r3, #0
 8003918:	d01e      	beq.n	8003958 <HAL_RCCEx_PeriphCLKConfig+0xd4>
 800391a:	687b      	ldr	r3, [r7, #4]
 800391c:	6c1b      	ldr	r3, [r3, #64]	@ 0x40
 800391e:	697a      	ldr	r2, [r7, #20]
 8003920:	429a      	cmp	r2, r3
 8003922:	d019      	beq.n	8003958 <HAL_RCCEx_PeriphCLKConfig+0xd4>
 8003924:	4b23      	ldr	r3, [pc, #140]	@ (80039b4 <HAL_RCCEx_PeriphCLKConfig+0x130>)
 8003926:	f8d3 3090 	ldr.w	r3, [r3, #144]	@ 0x90
 800392a:	f423 7340 	bic.w	r3, r3, #768	@ 0x300
 800392e:	617b      	str	r3, [r7, #20]
 8003930:	4b20      	ldr	r3, [pc, #128]	@ (80039b4 <HAL_RCCEx_PeriphCLKConfig+0x130>)
 8003932:	f8d3 3090 	ldr.w	r3, [r3, #144]	@ 0x90
 8003936:	4a1f      	ldr	r2, [pc, #124]	@ (80039b4 <HAL_RCCEx_PeriphCLKConfig+0x130>)
 8003938:	f443 3380 	orr.w	r3, r3, #65536	@ 0x10000
 800393c:	f8c2 3090 	str.w	r3, [r2, #144]	@ 0x90
 8003940:	4b1c      	ldr	r3, [pc, #112]	@ (80039b4 <HAL_RCCEx_PeriphCLKConfig+0x130>)
 8003942:	f8d3 3090 	ldr.w	r3, [r3, #144]	@ 0x90
 8003946:	4a1b      	ldr	r2, [pc, #108]	@ (80039b4 <HAL_RCCEx_PeriphCLKConfig+0x130>)
 8003948:	f423 3380 	bic.w	r3, r3, #65536	@ 0x10000
 800394c:	f8c2 3090 	str.w	r3, [r2, #144]	@ 0x90
 8003950:	4a18      	ldr	r2, [pc, #96]	@ (80039b4 <HAL_RCCEx_PeriphCLKConfig+0x130>)
 8003952:	697b      	ldr	r3, [r7, #20]
 8003954:	f8c2 3090 	str.w	r3, [r2, #144]	@ 0x90
 8003958:	697b      	ldr	r3, [r7, #20]
 800395a:	f003 0301 	and.w	r3, r3, #1
 800395e:	2b00      	cmp	r3, #0
 8003960:	d016      	beq.n	8003990 <HAL_RCCEx_PeriphCLKConfig+0x10c>
 8003962:	f7fd fb47 	bl	8000ff4 <HAL_GetTick>
 8003966:	60f8      	str	r0, [r7, #12]
 8003968:	e00b      	b.n	8003982 <HAL_RCCEx_PeriphCLKConfig+0xfe>
 800396a:	f7fd fb43 	bl	8000ff4 <HAL_GetTick>
 800396e:	4602      	mov	r2, r0
 8003970:	68fb      	ldr	r3, [r7, #12]
 8003972:	1ad3      	subs	r3, r2, r3
 8003974:	f241 3288 	movw	r2, #5000	@ 0x1388
 8003978:	4293      	cmp	r3, r2
 800397a:	d902      	bls.n	8003982 <HAL_RCCEx_PeriphCLKConfig+0xfe>
 800397c:	2303      	movs	r3, #3
 800397e:	74fb      	strb	r3, [r7, #19]
 8003980:	e006      	b.n	8003990 <HAL_RCCEx_PeriphCLKConfig+0x10c>
 8003982:	4b0c      	ldr	r3, [pc, #48]	@ (80039b4 <HAL_RCCEx_PeriphCLKConfig+0x130>)
 8003984:	f8d3 3090 	ldr.w	r3, [r3, #144]	@ 0x90
 8003988:	f003 0302 	and.w	r3, r3, #2
 800398c:	2b00      	cmp	r3, #0
 800398e:	d0ec      	beq.n	800396a <HAL_RCCEx_PeriphCLKConfig+0xe6>
 8003990:	7cfb      	ldrb	r3, [r7, #19]
 8003992:	2b00      	cmp	r3, #0
 8003994:	d10b      	bne.n	80039ae <HAL_RCCEx_PeriphCLKConfig+0x12a>
 8003996:	4b07      	ldr	r3, [pc, #28]	@ (80039b4 <HAL_RCCEx_PeriphCLKConfig+0x130>)
 8003998:	f8d3 3090 	ldr.w	r3, [r3, #144]	@ 0x90
 800399c:	f423 7240 	bic.w	r2, r3, #768	@ 0x300
 80039a0:	687b      	ldr	r3, [r7, #4]
 80039a2:	6c1b      	ldr	r3, [r3, #64]	@ 0x40
 80039a4:	4903      	ldr	r1, [pc, #12]	@ (80039b4 <HAL_RCCEx_PeriphCLKConfig+0x130>)
 80039a6:	4313      	orrs	r3, r2
 80039a8:	f8c1 3090 	str.w	r3, [r1, #144]	@ 0x90
 80039ac:	e008      	b.n	80039c0 <HAL_RCCEx_PeriphCLKConfig+0x13c>
 80039ae:	7cfb      	ldrb	r3, [r7, #19]
 80039b0:	74bb      	strb	r3, [r7, #18]
 80039b2:	e005      	b.n	80039c0 <HAL_RCCEx_PeriphCLKConfig+0x13c>
 80039b4:	40021000 	.word	0x40021000
 80039b8:	40007000 	.word	0x40007000
 80039bc:	7cfb      	ldrb	r3, [r7, #19]
 80039be:	74bb      	strb	r3, [r7, #18]
 80039c0:	7c7b      	ldrb	r3, [r7, #17]
 80039c2:	2b01      	cmp	r3, #1
 80039c4:	d105      	bne.n	80039d2 <HAL_RCCEx_PeriphCLKConfig+0x14e>
 80039c6:	4ba6      	ldr	r3, [pc, #664]	@ (8003c60 <HAL_RCCEx_PeriphCLKConfig+0x3dc>)
 80039c8:	6d9b      	ldr	r3, [r3, #88]	@ 0x58
 80039ca:	4aa5      	ldr	r2, [pc, #660]	@ (8003c60 <HAL_RCCEx_PeriphCLKConfig+0x3dc>)
 80039cc:	f023 5380 	bic.w	r3, r3, #268435456	@ 0x10000000
 80039d0:	6593      	str	r3, [r2, #88]	@ 0x58
 80039d2:	687b      	ldr	r3, [r7, #4]
 80039d4:	681b      	ldr	r3, [r3, #0]
 80039d6:	f003 0301 	and.w	r3, r3, #1
 80039da:	2b00      	cmp	r3, #0
 80039dc:	d00a      	beq.n	80039f4 <HAL_RCCEx_PeriphCLKConfig+0x170>
 80039de:	4ba0      	ldr	r3, [pc, #640]	@ (8003c60 <HAL_RCCEx_PeriphCLKConfig+0x3dc>)
 80039e0:	f8d3 3088 	ldr.w	r3, [r3, #136]	@ 0x88
 80039e4:	f023 0203 	bic.w	r2, r3, #3
 80039e8:	687b      	ldr	r3, [r7, #4]
 80039ea:	685b      	ldr	r3, [r3, #4]
 80039ec:	499c      	ldr	r1, [pc, #624]	@ (8003c60 <HAL_RCCEx_PeriphCLKConfig+0x3dc>)
 80039ee:	4313      	orrs	r3, r2
 80039f0:	f8c1 3088 	str.w	r3, [r1, #136]	@ 0x88
 80039f4:	687b      	ldr	r3, [r7, #4]
 80039f6:	681b      	ldr	r3, [r3, #0]
 80039f8:	f003 0302 	and.w	r3, r3, #2
 80039fc:	2b00      	cmp	r3, #0
 80039fe:	d00a      	beq.n	8003a16 <HAL_RCCEx_PeriphCLKConfig+0x192>
 8003a00:	4b97      	ldr	r3, [pc, #604]	@ (8003c60 <HAL_RCCEx_PeriphCLKConfig+0x3dc>)
 8003a02:	f8d3 3088 	ldr.w	r3, [r3, #136]	@ 0x88
 8003a06:	f023 020c 	bic.w	r2, r3, #12
 8003a0a:	687b      	ldr	r3, [r7, #4]
 8003a0c:	689b      	ldr	r3, [r3, #8]
 8003a0e:	4994      	ldr	r1, [pc, #592]	@ (8003c60 <HAL_RCCEx_PeriphCLKConfig+0x3dc>)
 8003a10:	4313      	orrs	r3, r2
 8003a12:	f8c1 3088 	str.w	r3, [r1, #136]	@ 0x88
 8003a16:	687b      	ldr	r3, [r7, #4]
 8003a18:	681b      	ldr	r3, [r3, #0]
 8003a1a:	f003 0304 	and.w	r3, r3, #4
 8003a1e:	2b00      	cmp	r3, #0
 8003a20:	d00a      	beq.n	8003a38 <HAL_RCCEx_PeriphCLKConfig+0x1b4>
 8003a22:	4b8f      	ldr	r3, [pc, #572]	@ (8003c60 <HAL_RCCEx_PeriphCLKConfig+0x3dc>)
 8003a24:	f8d3 3088 	ldr.w	r3, [r3, #136]	@ 0x88
 8003a28:	f023 0230 	bic.w	r2, r3, #48	@ 0x30
 8003a2c:	687b      	ldr	r3, [r7, #4]
 8003a2e:	68db      	ldr	r3, [r3, #12]
 8003a30:	498b      	ldr	r1, [pc, #556]	@ (8003c60 <HAL_RCCEx_PeriphCLKConfig+0x3dc>)
 8003a32:	4313      	orrs	r3, r2
 8003a34:	f8c1 3088 	str.w	r3, [r1, #136]	@ 0x88
 8003a38:	687b      	ldr	r3, [r7, #4]
 8003a3a:	681b      	ldr	r3, [r3, #0]
 8003a3c:	f003 0308 	and.w	r3, r3, #8
 8003a40:	2b00      	cmp	r3, #0
 8003a42:	d00a      	beq.n	8003a5a <HAL_RCCEx_PeriphCLKConfig+0x1d6>
 8003a44:	4b86      	ldr	r3, [pc, #536]	@ (8003c60 <HAL_RCCEx_PeriphCLKConfig+0x3dc>)
 8003a46:	f8d3 3088 	ldr.w	r3, [r3, #136]	@ 0x88
 8003a4a:	f023 02c0 	bic.w	r2, r3, #192	@ 0xc0
 8003a4e:	687b      	ldr	r3, [r7, #4]
 8003a50:	691b      	ldr	r3, [r3, #16]
 8003a52:	4983      	ldr	r1, [pc, #524]	@ (8003c60 <HAL_RCCEx_PeriphCLKConfig+0x3dc>)
 8003a54:	4313      	orrs	r3, r2
 8003a56:	f8c1 3088 	str.w	r3, [r1, #136]	@ 0x88
 8003a5a:	687b      	ldr	r3, [r7, #4]
 8003a5c:	681b      	ldr	r3, [r3, #0]
 8003a5e:	f003 0320 	and.w	r3, r3, #32
 8003a62:	2b00      	cmp	r3, #0
 8003a64:	d00a      	beq.n	8003a7c <HAL_RCCEx_PeriphCLKConfig+0x1f8>
 8003a66:	4b7e      	ldr	r3, [pc, #504]	@ (8003c60 <HAL_RCCEx_PeriphCLKConfig+0x3dc>)
 8003a68:	f8d3 3088 	ldr.w	r3, [r3, #136]	@ 0x88
 8003a6c:	f423 6240 	bic.w	r2, r3, #3072	@ 0xc00
 8003a70:	687b      	ldr	r3, [r7, #4]
 8003a72:	695b      	ldr	r3, [r3, #20]
 8003a74:	497a      	ldr	r1, [pc, #488]	@ (8003c60 <HAL_RCCEx_PeriphCLKConfig+0x3dc>)
 8003a76:	4313      	orrs	r3, r2
 8003a78:	f8c1 3088 	str.w	r3, [r1, #136]	@ 0x88
 8003a7c:	687b      	ldr	r3, [r7, #4]
 8003a7e:	681b      	ldr	r3, [r3, #0]
 8003a80:	f003 0340 	and.w	r3, r3, #64	@ 0x40
 8003a84:	2b00      	cmp	r3, #0
 8003a86:	d00a      	beq.n	8003a9e <HAL_RCCEx_PeriphCLKConfig+0x21a>
 8003a88:	4b75      	ldr	r3, [pc, #468]	@ (8003c60 <HAL_RCCEx_PeriphCLKConfig+0x3dc>)
 8003a8a:	f8d3 3088 	ldr.w	r3, [r3, #136]	@ 0x88
 8003a8e:	f423 5240 	bic.w	r2, r3, #12288	@ 0x3000
 8003a92:	687b      	ldr	r3, [r7, #4]
 8003a94:	699b      	ldr	r3, [r3, #24]
 8003a96:	4972      	ldr	r1, [pc, #456]	@ (8003c60 <HAL_RCCEx_PeriphCLKConfig+0x3dc>)
 8003a98:	4313      	orrs	r3, r2
 8003a9a:	f8c1 3088 	str.w	r3, [r1, #136]	@ 0x88
 8003a9e:	687b      	ldr	r3, [r7, #4]
 8003aa0:	681b      	ldr	r3, [r3, #0]
 8003aa2:	f003 0380 	and.w	r3, r3, #128	@ 0x80
 8003aa6:	2b00      	cmp	r3, #0
 8003aa8:	d00a      	beq.n	8003ac0 <HAL_RCCEx_PeriphCLKConfig+0x23c>
 8003aaa:	4b6d      	ldr	r3, [pc, #436]	@ (8003c60 <HAL_RCCEx_PeriphCLKConfig+0x3dc>)
 8003aac:	f8d3 3088 	ldr.w	r3, [r3, #136]	@ 0x88
 8003ab0:	f423 4240 	bic.w	r2, r3, #49152	@ 0xc000
 8003ab4:	687b      	ldr	r3, [r7, #4]
 8003ab6:	69db      	ldr	r3, [r3, #28]
 8003ab8:	4969      	ldr	r1, [pc, #420]	@ (8003c60 <HAL_RCCEx_PeriphCLKConfig+0x3dc>)
 8003aba:	4313      	orrs	r3, r2
 8003abc:	f8c1 3088 	str.w	r3, [r1, #136]	@ 0x88
 8003ac0:	687b      	ldr	r3, [r7, #4]
 8003ac2:	681b      	ldr	r3, [r3, #0]
 8003ac4:	f403 7380 	and.w	r3, r3, #256	@ 0x100
 8003ac8:	2b00      	cmp	r3, #0
 8003aca:	d00a      	beq.n	8003ae2 <HAL_RCCEx_PeriphCLKConfig+0x25e>
 8003acc:	4b64      	ldr	r3, [pc, #400]	@ (8003c60 <HAL_RCCEx_PeriphCLKConfig+0x3dc>)
 8003ace:	f8d3 3088 	ldr.w	r3, [r3, #136]	@ 0x88
 8003ad2:	f423 3240 	bic.w	r2, r3, #196608	@ 0x30000
 8003ad6:	687b      	ldr	r3, [r7, #4]
 8003ad8:	6a1b      	ldr	r3, [r3, #32]
 8003ada:	4961      	ldr	r1, [pc, #388]	@ (8003c60 <HAL_RCCEx_PeriphCLKConfig+0x3dc>)
 8003adc:	4313      	orrs	r3, r2
 8003ade:	f8c1 3088 	str.w	r3, [r1, #136]	@ 0x88
 8003ae2:	687b      	ldr	r3, [r7, #4]
 8003ae4:	681b      	ldr	r3, [r3, #0]
 8003ae6:	f403 7300 	and.w	r3, r3, #512	@ 0x200
 8003aea:	2b00      	cmp	r3, #0
 8003aec:	d00a      	beq.n	8003b04 <HAL_RCCEx_PeriphCLKConfig+0x280>
 8003aee:	4b5c      	ldr	r3, [pc, #368]	@ (8003c60 <HAL_RCCEx_PeriphCLKConfig+0x3dc>)
 8003af0:	f8d3 3088 	ldr.w	r3, [r3, #136]	@ 0x88
 8003af4:	f423 2240 	bic.w	r2, r3, #786432	@ 0xc0000
 8003af8:	687b      	ldr	r3, [r7, #4]
 8003afa:	6a5b      	ldr	r3, [r3, #36]	@ 0x24
 8003afc:	4958      	ldr	r1, [pc, #352]	@ (8003c60 <HAL_RCCEx_PeriphCLKConfig+0x3dc>)
 8003afe:	4313      	orrs	r3, r2
 8003b00:	f8c1 3088 	str.w	r3, [r1, #136]	@ 0x88
 8003b04:	687b      	ldr	r3, [r7, #4]
 8003b06:	681b      	ldr	r3, [r3, #0]
 8003b08:	f403 6380 	and.w	r3, r3, #1024	@ 0x400
 8003b0c:	2b00      	cmp	r3, #0
 8003b0e:	d015      	beq.n	8003b3c <HAL_RCCEx_PeriphCLKConfig+0x2b8>
 8003b10:	4b53      	ldr	r3, [pc, #332]	@ (8003c60 <HAL_RCCEx_PeriphCLKConfig+0x3dc>)
 8003b12:	f8d3 3088 	ldr.w	r3, [r3, #136]	@ 0x88
 8003b16:	f423 1240 	bic.w	r2, r3, #3145728	@ 0x300000
 8003b1a:	687b      	ldr	r3, [r7, #4]
 8003b1c:	6a9b      	ldr	r3, [r3, #40]	@ 0x28
 8003b1e:	4950      	ldr	r1, [pc, #320]	@ (8003c60 <HAL_RCCEx_PeriphCLKConfig+0x3dc>)
 8003b20:	4313      	orrs	r3, r2
 8003b22:	f8c1 3088 	str.w	r3, [r1, #136]	@ 0x88
 8003b26:	687b      	ldr	r3, [r7, #4]
 8003b28:	6a9b      	ldr	r3, [r3, #40]	@ 0x28
 8003b2a:	f5b3 1f80 	cmp.w	r3, #1048576	@ 0x100000
 8003b2e:	d105      	bne.n	8003b3c <HAL_RCCEx_PeriphCLKConfig+0x2b8>
 8003b30:	4b4b      	ldr	r3, [pc, #300]	@ (8003c60 <HAL_RCCEx_PeriphCLKConfig+0x3dc>)
 8003b32:	68db      	ldr	r3, [r3, #12]
 8003b34:	4a4a      	ldr	r2, [pc, #296]	@ (8003c60 <HAL_RCCEx_PeriphCLKConfig+0x3dc>)
 8003b36:	f443 1380 	orr.w	r3, r3, #1048576	@ 0x100000
 8003b3a:	60d3      	str	r3, [r2, #12]
 8003b3c:	687b      	ldr	r3, [r7, #4]
 8003b3e:	681b      	ldr	r3, [r3, #0]
 8003b40:	f403 6300 	and.w	r3, r3, #2048	@ 0x800
 8003b44:	2b00      	cmp	r3, #0
 8003b46:	d015      	beq.n	8003b74 <HAL_RCCEx_PeriphCLKConfig+0x2f0>
 8003b48:	4b45      	ldr	r3, [pc, #276]	@ (8003c60 <HAL_RCCEx_PeriphCLKConfig+0x3dc>)
 8003b4a:	f8d3 3088 	ldr.w	r3, [r3, #136]	@ 0x88
 8003b4e:	f423 0240 	bic.w	r2, r3, #12582912	@ 0xc00000
 8003b52:	687b      	ldr	r3, [r7, #4]
 8003b54:	6adb      	ldr	r3, [r3, #44]	@ 0x2c
 8003b56:	4942      	ldr	r1, [pc, #264]	@ (8003c60 <HAL_RCCEx_PeriphCLKConfig+0x3dc>)
 8003b58:	4313      	orrs	r3, r2
 8003b5a:	f8c1 3088 	str.w	r3, [r1, #136]	@ 0x88
 8003b5e:	687b      	ldr	r3, [r7, #4]
 8003b60:	6adb      	ldr	r3, [r3, #44]	@ 0x2c
 8003b62:	f5b3 0f80 	cmp.w	r3, #4194304	@ 0x400000
 8003b66:	d105      	bne.n	8003b74 <HAL_RCCEx_PeriphCLKConfig+0x2f0>
 8003b68:	4b3d      	ldr	r3, [pc, #244]	@ (8003c60 <HAL_RCCEx_PeriphCLKConfig+0x3dc>)
 8003b6a:	68db      	ldr	r3, [r3, #12]
 8003b6c:	4a3c      	ldr	r2, [pc, #240]	@ (8003c60 <HAL_RCCEx_PeriphCLKConfig+0x3dc>)
 8003b6e:	f443 1380 	orr.w	r3, r3, #1048576	@ 0x100000
 8003b72:	60d3      	str	r3, [r2, #12]
 8003b74:	687b      	ldr	r3, [r7, #4]
 8003b76:	681b      	ldr	r3, [r3, #0]
 8003b78:	f403 5380 	and.w	r3, r3, #4096	@ 0x1000
 8003b7c:	2b00      	cmp	r3, #0
 8003b7e:	d015      	beq.n	8003bac <HAL_RCCEx_PeriphCLKConfig+0x328>
 8003b80:	4b37      	ldr	r3, [pc, #220]	@ (8003c60 <HAL_RCCEx_PeriphCLKConfig+0x3dc>)
 8003b82:	f8d3 3088 	ldr.w	r3, [r3, #136]	@ 0x88
 8003b86:	f023 7240 	bic.w	r2, r3, #50331648	@ 0x3000000
 8003b8a:	687b      	ldr	r3, [r7, #4]
 8003b8c:	6b1b      	ldr	r3, [r3, #48]	@ 0x30
 8003b8e:	4934      	ldr	r1, [pc, #208]	@ (8003c60 <HAL_RCCEx_PeriphCLKConfig+0x3dc>)
 8003b90:	4313      	orrs	r3, r2
 8003b92:	f8c1 3088 	str.w	r3, [r1, #136]	@ 0x88
 8003b96:	687b      	ldr	r3, [r7, #4]
 8003b98:	6b1b      	ldr	r3, [r3, #48]	@ 0x30
 8003b9a:	f1b3 7f80 	cmp.w	r3, #16777216	@ 0x1000000
 8003b9e:	d105      	bne.n	8003bac <HAL_RCCEx_PeriphCLKConfig+0x328>
 8003ba0:	4b2f      	ldr	r3, [pc, #188]	@ (8003c60 <HAL_RCCEx_PeriphCLKConfig+0x3dc>)
 8003ba2:	68db      	ldr	r3, [r3, #12]
 8003ba4:	4a2e      	ldr	r2, [pc, #184]	@ (8003c60 <HAL_RCCEx_PeriphCLKConfig+0x3dc>)
 8003ba6:	f443 1380 	orr.w	r3, r3, #1048576	@ 0x100000
 8003baa:	60d3      	str	r3, [r2, #12]
 8003bac:	687b      	ldr	r3, [r7, #4]
 8003bae:	681b      	ldr	r3, [r3, #0]
 8003bb0:	f403 5300 	and.w	r3, r3, #8192	@ 0x2000
 8003bb4:	2b00      	cmp	r3, #0
 8003bb6:	d015      	beq.n	8003be4 <HAL_RCCEx_PeriphCLKConfig+0x360>
 8003bb8:	4b29      	ldr	r3, [pc, #164]	@ (8003c60 <HAL_RCCEx_PeriphCLKConfig+0x3dc>)
 8003bba:	f8d3 3088 	ldr.w	r3, [r3, #136]	@ 0x88
 8003bbe:	f023 6240 	bic.w	r2, r3, #201326592	@ 0xc000000
 8003bc2:	687b      	ldr	r3, [r7, #4]
 8003bc4:	6b5b      	ldr	r3, [r3, #52]	@ 0x34
 8003bc6:	4926      	ldr	r1, [pc, #152]	@ (8003c60 <HAL_RCCEx_PeriphCLKConfig+0x3dc>)
 8003bc8:	4313      	orrs	r3, r2
 8003bca:	f8c1 3088 	str.w	r3, [r1, #136]	@ 0x88
 8003bce:	687b      	ldr	r3, [r7, #4]
 8003bd0:	6b5b      	ldr	r3, [r3, #52]	@ 0x34
 8003bd2:	f1b3 6f00 	cmp.w	r3, #134217728	@ 0x8000000
 8003bd6:	d105      	bne.n	8003be4 <HAL_RCCEx_PeriphCLKConfig+0x360>
 8003bd8:	4b21      	ldr	r3, [pc, #132]	@ (8003c60 <HAL_RCCEx_PeriphCLKConfig+0x3dc>)
 8003bda:	68db      	ldr	r3, [r3, #12]
 8003bdc:	4a20      	ldr	r2, [pc, #128]	@ (8003c60 <HAL_RCCEx_PeriphCLKConfig+0x3dc>)
 8003bde:	f443 1380 	orr.w	r3, r3, #1048576	@ 0x100000
 8003be2:	60d3      	str	r3, [r2, #12]
 8003be4:	687b      	ldr	r3, [r7, #4]
 8003be6:	681b      	ldr	r3, [r3, #0]
 8003be8:	f403 4380 	and.w	r3, r3, #16384	@ 0x4000
 8003bec:	2b00      	cmp	r3, #0
 8003bee:	d015      	beq.n	8003c1c <HAL_RCCEx_PeriphCLKConfig+0x398>
 8003bf0:	4b1b      	ldr	r3, [pc, #108]	@ (8003c60 <HAL_RCCEx_PeriphCLKConfig+0x3dc>)
 8003bf2:	f8d3 3088 	ldr.w	r3, [r3, #136]	@ 0x88
 8003bf6:	f023 6240 	bic.w	r2, r3, #201326592	@ 0xc000000
 8003bfa:	687b      	ldr	r3, [r7, #4]
 8003bfc:	6b9b      	ldr	r3, [r3, #56]	@ 0x38
 8003bfe:	4918      	ldr	r1, [pc, #96]	@ (8003c60 <HAL_RCCEx_PeriphCLKConfig+0x3dc>)
 8003c00:	4313      	orrs	r3, r2
 8003c02:	f8c1 3088 	str.w	r3, [r1, #136]	@ 0x88
 8003c06:	687b      	ldr	r3, [r7, #4]
 8003c08:	6b9b      	ldr	r3, [r3, #56]	@ 0x38
 8003c0a:	f1b3 6f00 	cmp.w	r3, #134217728	@ 0x8000000
 8003c0e:	d105      	bne.n	8003c1c <HAL_RCCEx_PeriphCLKConfig+0x398>
 8003c10:	4b13      	ldr	r3, [pc, #76]	@ (8003c60 <HAL_RCCEx_PeriphCLKConfig+0x3dc>)
 8003c12:	68db      	ldr	r3, [r3, #12]
 8003c14:	4a12      	ldr	r2, [pc, #72]	@ (8003c60 <HAL_RCCEx_PeriphCLKConfig+0x3dc>)
 8003c16:	f443 1380 	orr.w	r3, r3, #1048576	@ 0x100000
 8003c1a:	60d3      	str	r3, [r2, #12]
 8003c1c:	687b      	ldr	r3, [r7, #4]
 8003c1e:	681b      	ldr	r3, [r3, #0]
 8003c20:	f403 4300 	and.w	r3, r3, #32768	@ 0x8000
 8003c24:	2b00      	cmp	r3, #0
 8003c26:	d015      	beq.n	8003c54 <HAL_RCCEx_PeriphCLKConfig+0x3d0>
 8003c28:	4b0d      	ldr	r3, [pc, #52]	@ (8003c60 <HAL_RCCEx_PeriphCLKConfig+0x3dc>)
 8003c2a:	f8d3 3088 	ldr.w	r3, [r3, #136]	@ 0x88
 8003c2e:	f023 5240 	bic.w	r2, r3, #805306368	@ 0x30000000
 8003c32:	687b      	ldr	r3, [r7, #4]
 8003c34:	6bdb      	ldr	r3, [r3, #60]	@ 0x3c
 8003c36:	490a      	ldr	r1, [pc, #40]	@ (8003c60 <HAL_RCCEx_PeriphCLKConfig+0x3dc>)
 8003c38:	4313      	orrs	r3, r2
 8003c3a:	f8c1 3088 	str.w	r3, [r1, #136]	@ 0x88
 8003c3e:	687b      	ldr	r3, [r7, #4]
 8003c40:	6bdb      	ldr	r3, [r3, #60]	@ 0x3c
 8003c42:	f1b3 5f80 	cmp.w	r3, #268435456	@ 0x10000000
 8003c46:	d105      	bne.n	8003c54 <HAL_RCCEx_PeriphCLKConfig+0x3d0>
 8003c48:	4b05      	ldr	r3, [pc, #20]	@ (8003c60 <HAL_RCCEx_PeriphCLKConfig+0x3dc>)
 8003c4a:	68db      	ldr	r3, [r3, #12]
 8003c4c:	4a04      	ldr	r2, [pc, #16]	@ (8003c60 <HAL_RCCEx_PeriphCLKConfig+0x3dc>)
 8003c4e:	f443 3380 	orr.w	r3, r3, #65536	@ 0x10000
 8003c52:	60d3      	str	r3, [r2, #12]
 8003c54:	7cbb      	ldrb	r3, [r7, #18]
 8003c56:	4618      	mov	r0, r3
 8003c58:	3718      	adds	r7, #24
 8003c5a:	46bd      	mov	sp, r7
 8003c5c:	bd80      	pop	{r7, pc}
 8003c5e:	bf00      	nop
 8003c60:	40021000 	.word	0x40021000

08003c64 <HAL_TIM_Base_Init>:
 8003c64:	b580      	push	{r7, lr}
 8003c66:	b082      	sub	sp, #8
 8003c68:	af00      	add	r7, sp, #0
 8003c6a:	6078      	str	r0, [r7, #4]
 8003c6c:	687b      	ldr	r3, [r7, #4]
 8003c6e:	2b00      	cmp	r3, #0
 8003c70:	d101      	bne.n	8003c76 <HAL_TIM_Base_Init+0x12>
 8003c72:	2301      	movs	r3, #1
 8003c74:	e049      	b.n	8003d0a <HAL_TIM_Base_Init+0xa6>
 8003c76:	687b      	ldr	r3, [r7, #4]
 8003c78:	f893 303d 	ldrb.w	r3, [r3, #61]	@ 0x3d
 8003c7c:	b2db      	uxtb	r3, r3
 8003c7e:	2b00      	cmp	r3, #0
 8003c80:	d106      	bne.n	8003c90 <HAL_TIM_Base_Init+0x2c>
 8003c82:	687b      	ldr	r3, [r7, #4]
 8003c84:	2200      	movs	r2, #0
 8003c86:	f883 203c 	strb.w	r2, [r3, #60]	@ 0x3c
 8003c8a:	6878      	ldr	r0, [r7, #4]
 8003c8c:	f7fd f838 	bl	8000d00 <HAL_TIM_Base_MspInit>
 8003c90:	687b      	ldr	r3, [r7, #4]
 8003c92:	2202      	movs	r2, #2
 8003c94:	f883 203d 	strb.w	r2, [r3, #61]	@ 0x3d
 8003c98:	687b      	ldr	r3, [r7, #4]
 8003c9a:	681a      	ldr	r2, [r3, #0]
 8003c9c:	687b      	ldr	r3, [r7, #4]
 8003c9e:	3304      	adds	r3, #4
 8003ca0:	4619      	mov	r1, r3
 8003ca2:	4610      	mov	r0, r2
 8003ca4:	f000 fd26 	bl	80046f4 <TIM_Base_SetConfig>
 8003ca8:	687b      	ldr	r3, [r7, #4]
 8003caa:	2201      	movs	r2, #1
 8003cac:	f883 2048 	strb.w	r2, [r3, #72]	@ 0x48
 8003cb0:	687b      	ldr	r3, [r7, #4]
 8003cb2:	2201      	movs	r2, #1
 8003cb4:	f883 203e 	strb.w	r2, [r3, #62]	@ 0x3e
 8003cb8:	687b      	ldr	r3, [r7, #4]
 8003cba:	2201      	movs	r2, #1
 8003cbc:	f883 203f 	strb.w	r2, [r3, #63]	@ 0x3f
 8003cc0:	687b      	ldr	r3, [r7, #4]
 8003cc2:	2201      	movs	r2, #1
 8003cc4:	f883 2040 	strb.w	r2, [r3, #64]	@ 0x40
 8003cc8:	687b      	ldr	r3, [r7, #4]
 8003cca:	2201      	movs	r2, #1
 8003ccc:	f883 2041 	strb.w	r2, [r3, #65]	@ 0x41
 8003cd0:	687b      	ldr	r3, [r7, #4]
 8003cd2:	2201      	movs	r2, #1
 8003cd4:	f883 2042 	strb.w	r2, [r3, #66]	@ 0x42
 8003cd8:	687b      	ldr	r3, [r7, #4]
 8003cda:	2201      	movs	r2, #1
 8003cdc:	f883 2043 	strb.w	r2, [r3, #67]	@ 0x43
 8003ce0:	687b      	ldr	r3, [r7, #4]
 8003ce2:	2201      	movs	r2, #1
 8003ce4:	f883 2044 	strb.w	r2, [r3, #68]	@ 0x44
 8003ce8:	687b      	ldr	r3, [r7, #4]
 8003cea:	2201      	movs	r2, #1
 8003cec:	f883 2045 	strb.w	r2, [r3, #69]	@ 0x45
 8003cf0:	687b      	ldr	r3, [r7, #4]
 8003cf2:	2201      	movs	r2, #1
 8003cf4:	f883 2046 	strb.w	r2, [r3, #70]	@ 0x46
 8003cf8:	687b      	ldr	r3, [r7, #4]
 8003cfa:	2201      	movs	r2, #1
 8003cfc:	f883 2047 	strb.w	r2, [r3, #71]	@ 0x47
 8003d00:	687b      	ldr	r3, [r7, #4]
 8003d02:	2201      	movs	r2, #1
 8003d04:	f883 203d 	strb.w	r2, [r3, #61]	@ 0x3d
 8003d08:	2300      	movs	r3, #0
 8003d0a:	4618      	mov	r0, r3
 8003d0c:	3708      	adds	r7, #8
 8003d0e:	46bd      	mov	sp, r7
 8003d10:	bd80      	pop	{r7, pc}

08003d12 <HAL_TIM_PWM_Init>:
 8003d12:	b580      	push	{r7, lr}
 8003d14:	b082      	sub	sp, #8
 8003d16:	af00      	add	r7, sp, #0
 8003d18:	6078      	str	r0, [r7, #4]
 8003d1a:	687b      	ldr	r3, [r7, #4]
 8003d1c:	2b00      	cmp	r3, #0
 8003d1e:	d101      	bne.n	8003d24 <HAL_TIM_PWM_Init+0x12>
 8003d20:	2301      	movs	r3, #1
 8003d22:	e049      	b.n	8003db8 <HAL_TIM_PWM_Init+0xa6>
 8003d24:	687b      	ldr	r3, [r7, #4]
 8003d26:	f893 303d 	ldrb.w	r3, [r3, #61]	@ 0x3d
 8003d2a:	b2db      	uxtb	r3, r3
 8003d2c:	2b00      	cmp	r3, #0
 8003d2e:	d106      	bne.n	8003d3e <HAL_TIM_PWM_Init+0x2c>
 8003d30:	687b      	ldr	r3, [r7, #4]
 8003d32:	2200      	movs	r2, #0
 8003d34:	f883 203c 	strb.w	r2, [r3, #60]	@ 0x3c
 8003d38:	6878      	ldr	r0, [r7, #4]
 8003d3a:	f000 f841 	bl	8003dc0 <HAL_TIM_PWM_MspInit>
 8003d3e:	687b      	ldr	r3, [r7, #4]
 8003d40:	2202      	movs	r2, #2
 8003d42:	f883 203d 	strb.w	r2, [r3, #61]	@ 0x3d
 8003d46:	687b      	ldr	r3, [r7, #4]
 8003d48:	681a      	ldr	r2, [r3, #0]
 8003d4a:	687b      	ldr	r3, [r7, #4]
 8003d4c:	3304      	adds	r3, #4
 8003d4e:	4619      	mov	r1, r3
 8003d50:	4610      	mov	r0, r2
 8003d52:	f000 fccf 	bl	80046f4 <TIM_Base_SetConfig>
 8003d56:	687b      	ldr	r3, [r7, #4]
 8003d58:	2201      	movs	r2, #1
 8003d5a:	f883 2048 	strb.w	r2, [r3, #72]	@ 0x48
 8003d5e:	687b      	ldr	r3, [r7, #4]
 8003d60:	2201      	movs	r2, #1
 8003d62:	f883 203e 	strb.w	r2, [r3, #62]	@ 0x3e
 8003d66:	687b      	ldr	r3, [r7, #4]
 8003d68:	2201      	movs	r2, #1
 8003d6a:	f883 203f 	strb.w	r2, [r3, #63]	@ 0x3f
 8003d6e:	687b      	ldr	r3, [r7, #4]
 8003d70:	2201      	movs	r2, #1
 8003d72:	f883 2040 	strb.w	r2, [r3, #64]	@ 0x40
 8003d76:	687b      	ldr	r3, [r7, #4]
 8003d78:	2201      	movs	r2, #1
 8003d7a:	f883 2041 	strb.w	r2, [r3, #65]	@ 0x41
 8003d7e:	687b      	ldr	r3, [r7, #4]
 8003d80:	2201      	movs	r2, #1
 8003d82:	f883 2042 	strb.w	r2, [r3, #66]	@ 0x42
 8003d86:	687b      	ldr	r3, [r7, #4]
 8003d88:	2201      	movs	r2, #1
 8003d8a:	f883 2043 	strb.w	r2, [r3, #67]	@ 0x43
 8003d8e:	687b      	ldr	r3, [r7, #4]
 8003d90:	2201      	movs	r2, #1
 8003d92:	f883 2044 	strb.w	r2, [r3, #68]	@ 0x44
 8003d96:	687b      	ldr	r3, [r7, #4]
 8003d98:	2201      	movs	r2, #1
 8003d9a:	f883 2045 	strb.w	r2, [r3, #69]	@ 0x45
 8003d9e:	687b      	ldr	r3, [r7, #4]
 8003da0:	2201      	movs	r2, #1
 8003da2:	f883 2046 	strb.w	r2, [r3, #70]	@ 0x46
 8003da6:	687b      	ldr	r3, [r7, #4]
 8003da8:	2201      	movs	r2, #1
 8003daa:	f883 2047 	strb.w	r2, [r3, #71]	@ 0x47
 8003dae:	687b      	ldr	r3, [r7, #4]
 8003db0:	2201      	movs	r2, #1
 8003db2:	f883 203d 	strb.w	r2, [r3, #61]	@ 0x3d
 8003db6:	2300      	movs	r3, #0
 8003db8:	4618      	mov	r0, r3
 8003dba:	3708      	adds	r7, #8
 8003dbc:	46bd      	mov	sp, r7
 8003dbe:	bd80      	pop	{r7, pc}

08003dc0 <HAL_TIM_PWM_MspInit>:
 8003dc0:	b480      	push	{r7}
 8003dc2:	b083      	sub	sp, #12
 8003dc4:	af00      	add	r7, sp, #0
 8003dc6:	6078      	str	r0, [r7, #4]
 8003dc8:	bf00      	nop
 8003dca:	370c      	adds	r7, #12
 8003dcc:	46bd      	mov	sp, r7
 8003dce:	f85d 7b04 	ldr.w	r7, [sp], #4
 8003dd2:	4770      	bx	lr

08003dd4 <HAL_TIM_PWM_Start>:
 8003dd4:	b580      	push	{r7, lr}
 8003dd6:	b084      	sub	sp, #16
 8003dd8:	af00      	add	r7, sp, #0
 8003dda:	6078      	str	r0, [r7, #4]
 8003ddc:	6039      	str	r1, [r7, #0]
 8003dde:	683b      	ldr	r3, [r7, #0]
 8003de0:	2b00      	cmp	r3, #0
 8003de2:	d109      	bne.n	8003df8 <HAL_TIM_PWM_Start+0x24>
 8003de4:	687b      	ldr	r3, [r7, #4]
 8003de6:	f893 303e 	ldrb.w	r3, [r3, #62]	@ 0x3e
 8003dea:	b2db      	uxtb	r3, r3
 8003dec:	2b01      	cmp	r3, #1
 8003dee:	bf14      	ite	ne
 8003df0:	2301      	movne	r3, #1
 8003df2:	2300      	moveq	r3, #0
 8003df4:	b2db      	uxtb	r3, r3
 8003df6:	e03c      	b.n	8003e72 <HAL_TIM_PWM_Start+0x9e>
 8003df8:	683b      	ldr	r3, [r7, #0]
 8003dfa:	2b04      	cmp	r3, #4
 8003dfc:	d109      	bne.n	8003e12 <HAL_TIM_PWM_Start+0x3e>
 8003dfe:	687b      	ldr	r3, [r7, #4]
 8003e00:	f893 303f 	ldrb.w	r3, [r3, #63]	@ 0x3f
 8003e04:	b2db      	uxtb	r3, r3
 8003e06:	2b01      	cmp	r3, #1
 8003e08:	bf14      	ite	ne
 8003e0a:	2301      	movne	r3, #1
 8003e0c:	2300      	moveq	r3, #0
 8003e0e:	b2db      	uxtb	r3, r3
 8003e10:	e02f      	b.n	8003e72 <HAL_TIM_PWM_Start+0x9e>
 8003e12:	683b      	ldr	r3, [r7, #0]
 8003e14:	2b08      	cmp	r3, #8
 8003e16:	d109      	bne.n	8003e2c <HAL_TIM_PWM_Start+0x58>
 8003e18:	687b      	ldr	r3, [r7, #4]
 8003e1a:	f893 3040 	ldrb.w	r3, [r3, #64]	@ 0x40
 8003e1e:	b2db      	uxtb	r3, r3
 8003e20:	2b01      	cmp	r3, #1
 8003e22:	bf14      	ite	ne
 8003e24:	2301      	movne	r3, #1
 8003e26:	2300      	moveq	r3, #0
 8003e28:	b2db      	uxtb	r3, r3
 8003e2a:	e022      	b.n	8003e72 <HAL_TIM_PWM_Start+0x9e>
 8003e2c:	683b      	ldr	r3, [r7, #0]
 8003e2e:	2b0c      	cmp	r3, #12
 8003e30:	d109      	bne.n	8003e46 <HAL_TIM_PWM_Start+0x72>
 8003e32:	687b      	ldr	r3, [r7, #4]
 8003e34:	f893 3041 	ldrb.w	r3, [r3, #65]	@ 0x41
 8003e38:	b2db      	uxtb	r3, r3
 8003e3a:	2b01      	cmp	r3, #1
 8003e3c:	bf14      	ite	ne
 8003e3e:	2301      	movne	r3, #1
 8003e40:	2300      	moveq	r3, #0
 8003e42:	b2db      	uxtb	r3, r3
 8003e44:	e015      	b.n	8003e72 <HAL_TIM_PWM_Start+0x9e>
 8003e46:	683b      	ldr	r3, [r7, #0]
 8003e48:	2b10      	cmp	r3, #16
 8003e4a:	d109      	bne.n	8003e60 <HAL_TIM_PWM_Start+0x8c>
 8003e4c:	687b      	ldr	r3, [r7, #4]
 8003e4e:	f893 3042 	ldrb.w	r3, [r3, #66]	@ 0x42
 8003e52:	b2db      	uxtb	r3, r3
 8003e54:	2b01      	cmp	r3, #1
 8003e56:	bf14      	ite	ne
 8003e58:	2301      	movne	r3, #1
 8003e5a:	2300      	moveq	r3, #0
 8003e5c:	b2db      	uxtb	r3, r3
 8003e5e:	e008      	b.n	8003e72 <HAL_TIM_PWM_Start+0x9e>
 8003e60:	687b      	ldr	r3, [r7, #4]
 8003e62:	f893 3043 	ldrb.w	r3, [r3, #67]	@ 0x43
 8003e66:	b2db      	uxtb	r3, r3
 8003e68:	2b01      	cmp	r3, #1
 8003e6a:	bf14      	ite	ne
 8003e6c:	2301      	movne	r3, #1
 8003e6e:	2300      	moveq	r3, #0
 8003e70:	b2db      	uxtb	r3, r3
 8003e72:	2b00      	cmp	r3, #0
 8003e74:	d001      	beq.n	8003e7a <HAL_TIM_PWM_Start+0xa6>
 8003e76:	2301      	movs	r3, #1
 8003e78:	e097      	b.n	8003faa <HAL_TIM_PWM_Start+0x1d6>
 8003e7a:	683b      	ldr	r3, [r7, #0]
 8003e7c:	2b00      	cmp	r3, #0
 8003e7e:	d104      	bne.n	8003e8a <HAL_TIM_PWM_Start+0xb6>
 8003e80:	687b      	ldr	r3, [r7, #4]
 8003e82:	2202      	movs	r2, #2
 8003e84:	f883 203e 	strb.w	r2, [r3, #62]	@ 0x3e
 8003e88:	e023      	b.n	8003ed2 <HAL_TIM_PWM_Start+0xfe>
 8003e8a:	683b      	ldr	r3, [r7, #0]
 8003e8c:	2b04      	cmp	r3, #4
 8003e8e:	d104      	bne.n	8003e9a <HAL_TIM_PWM_Start+0xc6>
 8003e90:	687b      	ldr	r3, [r7, #4]
 8003e92:	2202      	movs	r2, #2
 8003e94:	f883 203f 	strb.w	r2, [r3, #63]	@ 0x3f
 8003e98:	e01b      	b.n	8003ed2 <HAL_TIM_PWM_Start+0xfe>
 8003e9a:	683b      	ldr	r3, [r7, #0]
 8003e9c:	2b08      	cmp	r3, #8
 8003e9e:	d104      	bne.n	8003eaa <HAL_TIM_PWM_Start+0xd6>
 8003ea0:	687b      	ldr	r3, [r7, #4]
 8003ea2:	2202      	movs	r2, #2
 8003ea4:	f883 2040 	strb.w	r2, [r3, #64]	@ 0x40
 8003ea8:	e013      	b.n	8003ed2 <HAL_TIM_PWM_Start+0xfe>
 8003eaa:	683b      	ldr	r3, [r7, #0]
 8003eac:	2b0c      	cmp	r3, #12
 8003eae:	d104      	bne.n	8003eba <HAL_TIM_PWM_Start+0xe6>
 8003eb0:	687b      	ldr	r3, [r7, #4]
 8003eb2:	2202      	movs	r2, #2
 8003eb4:	f883 2041 	strb.w	r2, [r3, #65]	@ 0x41
 8003eb8:	e00b      	b.n	8003ed2 <HAL_TIM_PWM_Start+0xfe>
 8003eba:	683b      	ldr	r3, [r7, #0]
 8003ebc:	2b10      	cmp	r3, #16
 8003ebe:	d104      	bne.n	8003eca <HAL_TIM_PWM_Start+0xf6>
 8003ec0:	687b      	ldr	r3, [r7, #4]
 8003ec2:	2202      	movs	r2, #2
 8003ec4:	f883 2042 	strb.w	r2, [r3, #66]	@ 0x42
 8003ec8:	e003      	b.n	8003ed2 <HAL_TIM_PWM_Start+0xfe>
 8003eca:	687b      	ldr	r3, [r7, #4]
 8003ecc:	2202      	movs	r2, #2
 8003ece:	f883 2043 	strb.w	r2, [r3, #67]	@ 0x43
 8003ed2:	687b      	ldr	r3, [r7, #4]
 8003ed4:	681b      	ldr	r3, [r3, #0]
 8003ed6:	2201      	movs	r2, #1
 8003ed8:	6839      	ldr	r1, [r7, #0]
 8003eda:	4618      	mov	r0, r3
 8003edc:	f001 f838 	bl	8004f50 <TIM_CCxChannelCmd>
 8003ee0:	687b      	ldr	r3, [r7, #4]
 8003ee2:	681b      	ldr	r3, [r3, #0]
 8003ee4:	4a33      	ldr	r2, [pc, #204]	@ (8003fb4 <HAL_TIM_PWM_Start+0x1e0>)
 8003ee6:	4293      	cmp	r3, r2
 8003ee8:	d013      	beq.n	8003f12 <HAL_TIM_PWM_Start+0x13e>
 8003eea:	687b      	ldr	r3, [r7, #4]
 8003eec:	681b      	ldr	r3, [r3, #0]
 8003eee:	4a32      	ldr	r2, [pc, #200]	@ (8003fb8 <HAL_TIM_PWM_Start+0x1e4>)
 8003ef0:	4293      	cmp	r3, r2
 8003ef2:	d00e      	beq.n	8003f12 <HAL_TIM_PWM_Start+0x13e>
 8003ef4:	687b      	ldr	r3, [r7, #4]
 8003ef6:	681b      	ldr	r3, [r3, #0]
 8003ef8:	4a30      	ldr	r2, [pc, #192]	@ (8003fbc <HAL_TIM_PWM_Start+0x1e8>)
 8003efa:	4293      	cmp	r3, r2
 8003efc:	d009      	beq.n	8003f12 <HAL_TIM_PWM_Start+0x13e>
 8003efe:	687b      	ldr	r3, [r7, #4]
 8003f00:	681b      	ldr	r3, [r3, #0]
 8003f02:	4a2f      	ldr	r2, [pc, #188]	@ (8003fc0 <HAL_TIM_PWM_Start+0x1ec>)
 8003f04:	4293      	cmp	r3, r2
 8003f06:	d004      	beq.n	8003f12 <HAL_TIM_PWM_Start+0x13e>
 8003f08:	687b      	ldr	r3, [r7, #4]
 8003f0a:	681b      	ldr	r3, [r3, #0]
 8003f0c:	4a2d      	ldr	r2, [pc, #180]	@ (8003fc4 <HAL_TIM_PWM_Start+0x1f0>)
 8003f0e:	4293      	cmp	r3, r2
 8003f10:	d101      	bne.n	8003f16 <HAL_TIM_PWM_Start+0x142>
 8003f12:	2301      	movs	r3, #1
 8003f14:	e000      	b.n	8003f18 <HAL_TIM_PWM_Start+0x144>
 8003f16:	2300      	movs	r3, #0
 8003f18:	2b00      	cmp	r3, #0
 8003f1a:	d007      	beq.n	8003f2c <HAL_TIM_PWM_Start+0x158>
 8003f1c:	687b      	ldr	r3, [r7, #4]
 8003f1e:	681b      	ldr	r3, [r3, #0]
 8003f20:	6c5a      	ldr	r2, [r3, #68]	@ 0x44
 8003f22:	687b      	ldr	r3, [r7, #4]
 8003f24:	681b      	ldr	r3, [r3, #0]
 8003f26:	f442 4200 	orr.w	r2, r2, #32768	@ 0x8000
 8003f2a:	645a      	str	r2, [r3, #68]	@ 0x44
 8003f2c:	687b      	ldr	r3, [r7, #4]
 8003f2e:	681b      	ldr	r3, [r3, #0]
 8003f30:	4a20      	ldr	r2, [pc, #128]	@ (8003fb4 <HAL_TIM_PWM_Start+0x1e0>)
 8003f32:	4293      	cmp	r3, r2
 8003f34:	d018      	beq.n	8003f68 <HAL_TIM_PWM_Start+0x194>
 8003f36:	687b      	ldr	r3, [r7, #4]
 8003f38:	681b      	ldr	r3, [r3, #0]
 8003f3a:	f1b3 4f80 	cmp.w	r3, #1073741824	@ 0x40000000
 8003f3e:	d013      	beq.n	8003f68 <HAL_TIM_PWM_Start+0x194>
 8003f40:	687b      	ldr	r3, [r7, #4]
 8003f42:	681b      	ldr	r3, [r3, #0]
 8003f44:	4a20      	ldr	r2, [pc, #128]	@ (8003fc8 <HAL_TIM_PWM_Start+0x1f4>)
 8003f46:	4293      	cmp	r3, r2
 8003f48:	d00e      	beq.n	8003f68 <HAL_TIM_PWM_Start+0x194>
 8003f4a:	687b      	ldr	r3, [r7, #4]
 8003f4c:	681b      	ldr	r3, [r3, #0]
 8003f4e:	4a1f      	ldr	r2, [pc, #124]	@ (8003fcc <HAL_TIM_PWM_Start+0x1f8>)
 8003f50:	4293      	cmp	r3, r2
 8003f52:	d009      	beq.n	8003f68 <HAL_TIM_PWM_Start+0x194>
 8003f54:	687b      	ldr	r3, [r7, #4]
 8003f56:	681b      	ldr	r3, [r3, #0]
 8003f58:	4a17      	ldr	r2, [pc, #92]	@ (8003fb8 <HAL_TIM_PWM_Start+0x1e4>)
 8003f5a:	4293      	cmp	r3, r2
 8003f5c:	d004      	beq.n	8003f68 <HAL_TIM_PWM_Start+0x194>
 8003f5e:	687b      	ldr	r3, [r7, #4]
 8003f60:	681b      	ldr	r3, [r3, #0]
 8003f62:	4a16      	ldr	r2, [pc, #88]	@ (8003fbc <HAL_TIM_PWM_Start+0x1e8>)
 8003f64:	4293      	cmp	r3, r2
 8003f66:	d115      	bne.n	8003f94 <HAL_TIM_PWM_Start+0x1c0>
 8003f68:	687b      	ldr	r3, [r7, #4]
 8003f6a:	681b      	ldr	r3, [r3, #0]
 8003f6c:	689a      	ldr	r2, [r3, #8]
 8003f6e:	4b18      	ldr	r3, [pc, #96]	@ (8003fd0 <HAL_TIM_PWM_Start+0x1fc>)
 8003f70:	4013      	ands	r3, r2
 8003f72:	60fb      	str	r3, [r7, #12]
 8003f74:	68fb      	ldr	r3, [r7, #12]
 8003f76:	2b06      	cmp	r3, #6
 8003f78:	d015      	beq.n	8003fa6 <HAL_TIM_PWM_Start+0x1d2>
 8003f7a:	68fb      	ldr	r3, [r7, #12]
 8003f7c:	f5b3 3f80 	cmp.w	r3, #65536	@ 0x10000
 8003f80:	d011      	beq.n	8003fa6 <HAL_TIM_PWM_Start+0x1d2>
 8003f82:	687b      	ldr	r3, [r7, #4]
 8003f84:	681b      	ldr	r3, [r3, #0]
 8003f86:	681a      	ldr	r2, [r3, #0]
 8003f88:	687b      	ldr	r3, [r7, #4]
 8003f8a:	681b      	ldr	r3, [r3, #0]
 8003f8c:	f042 0201 	orr.w	r2, r2, #1
 8003f90:	601a      	str	r2, [r3, #0]
 8003f92:	e008      	b.n	8003fa6 <HAL_TIM_PWM_Start+0x1d2>
 8003f94:	687b      	ldr	r3, [r7, #4]
 8003f96:	681b      	ldr	r3, [r3, #0]
 8003f98:	681a      	ldr	r2, [r3, #0]
 8003f9a:	687b      	ldr	r3, [r7, #4]
 8003f9c:	681b      	ldr	r3, [r3, #0]
 8003f9e:	f042 0201 	orr.w	r2, r2, #1
 8003fa2:	601a      	str	r2, [r3, #0]
 8003fa4:	e000      	b.n	8003fa8 <HAL_TIM_PWM_Start+0x1d4>
 8003fa6:	bf00      	nop
 8003fa8:	2300      	movs	r3, #0
 8003faa:	4618      	mov	r0, r3
 8003fac:	3710      	adds	r7, #16
 8003fae:	46bd      	mov	sp, r7
 8003fb0:	bd80      	pop	{r7, pc}
 8003fb2:	bf00      	nop
 8003fb4:	40012c00 	.word	0x40012c00
 8003fb8:	40013400 	.word	0x40013400
 8003fbc:	40014000 	.word	0x40014000
 8003fc0:	40014400 	.word	0x40014400
 8003fc4:	40014800 	.word	0x40014800
 8003fc8:	40000400 	.word	0x40000400
 8003fcc:	40000800 	.word	0x40000800
 8003fd0:	00010007 	.word	0x00010007

08003fd4 <HAL_TIM_IRQHandler>:
 8003fd4:	b580      	push	{r7, lr}
 8003fd6:	b084      	sub	sp, #16
 8003fd8:	af00      	add	r7, sp, #0
 8003fda:	6078      	str	r0, [r7, #4]
 8003fdc:	687b      	ldr	r3, [r7, #4]
 8003fde:	681b      	ldr	r3, [r3, #0]
 8003fe0:	68db      	ldr	r3, [r3, #12]
 8003fe2:	60fb      	str	r3, [r7, #12]
 8003fe4:	687b      	ldr	r3, [r7, #4]
 8003fe6:	681b      	ldr	r3, [r3, #0]
 8003fe8:	691b      	ldr	r3, [r3, #16]
 8003fea:	60bb      	str	r3, [r7, #8]
 8003fec:	68bb      	ldr	r3, [r7, #8]
 8003fee:	f003 0302 	and.w	r3, r3, #2
 8003ff2:	2b00      	cmp	r3, #0
 8003ff4:	d020      	beq.n	8004038 <HAL_TIM_IRQHandler+0x64>
 8003ff6:	68fb      	ldr	r3, [r7, #12]
 8003ff8:	f003 0302 	and.w	r3, r3, #2
 8003ffc:	2b00      	cmp	r3, #0
 8003ffe:	d01b      	beq.n	8004038 <HAL_TIM_IRQHandler+0x64>
 8004000:	687b      	ldr	r3, [r7, #4]
 8004002:	681b      	ldr	r3, [r3, #0]
 8004004:	f06f 0202 	mvn.w	r2, #2
 8004008:	611a      	str	r2, [r3, #16]
 800400a:	687b      	ldr	r3, [r7, #4]
 800400c:	2201      	movs	r2, #1
 800400e:	771a      	strb	r2, [r3, #28]
 8004010:	687b      	ldr	r3, [r7, #4]
 8004012:	681b      	ldr	r3, [r3, #0]
 8004014:	699b      	ldr	r3, [r3, #24]
 8004016:	f003 0303 	and.w	r3, r3, #3
 800401a:	2b00      	cmp	r3, #0
 800401c:	d003      	beq.n	8004026 <HAL_TIM_IRQHandler+0x52>
 800401e:	6878      	ldr	r0, [r7, #4]
 8004020:	f000 fb4a 	bl	80046b8 <HAL_TIM_IC_CaptureCallback>
 8004024:	e005      	b.n	8004032 <HAL_TIM_IRQHandler+0x5e>
 8004026:	6878      	ldr	r0, [r7, #4]
 8004028:	f000 fb3c 	bl	80046a4 <HAL_TIM_OC_DelayElapsedCallback>
 800402c:	6878      	ldr	r0, [r7, #4]
 800402e:	f000 fb4d 	bl	80046cc <HAL_TIM_PWM_PulseFinishedCallback>
 8004032:	687b      	ldr	r3, [r7, #4]
 8004034:	2200      	movs	r2, #0
 8004036:	771a      	strb	r2, [r3, #28]
 8004038:	68bb      	ldr	r3, [r7, #8]
 800403a:	f003 0304 	and.w	r3, r3, #4
 800403e:	2b00      	cmp	r3, #0
 8004040:	d020      	beq.n	8004084 <HAL_TIM_IRQHandler+0xb0>
 8004042:	68fb      	ldr	r3, [r7, #12]
 8004044:	f003 0304 	and.w	r3, r3, #4
 8004048:	2b00      	cmp	r3, #0
 800404a:	d01b      	beq.n	8004084 <HAL_TIM_IRQHandler+0xb0>
 800404c:	687b      	ldr	r3, [r7, #4]
 800404e:	681b      	ldr	r3, [r3, #0]
 8004050:	f06f 0204 	mvn.w	r2, #4
 8004054:	611a      	str	r2, [r3, #16]
 8004056:	687b      	ldr	r3, [r7, #4]
 8004058:	2202      	movs	r2, #2
 800405a:	771a      	strb	r2, [r3, #28]
 800405c:	687b      	ldr	r3, [r7, #4]
 800405e:	681b      	ldr	r3, [r3, #0]
 8004060:	699b      	ldr	r3, [r3, #24]
 8004062:	f403 7340 	and.w	r3, r3, #768	@ 0x300
 8004066:	2b00      	cmp	r3, #0
 8004068:	d003      	beq.n	8004072 <HAL_TIM_IRQHandler+0x9e>
 800406a:	6878      	ldr	r0, [r7, #4]
 800406c:	f000 fb24 	bl	80046b8 <HAL_TIM_IC_CaptureCallback>
 8004070:	e005      	b.n	800407e <HAL_TIM_IRQHandler+0xaa>
 8004072:	6878      	ldr	r0, [r7, #4]
 8004074:	f000 fb16 	bl	80046a4 <HAL_TIM_OC_DelayElapsedCallback>
 8004078:	6878      	ldr	r0, [r7, #4]
 800407a:	f000 fb27 	bl	80046cc <HAL_TIM_PWM_PulseFinishedCallback>
 800407e:	687b      	ldr	r3, [r7, #4]
 8004080:	2200      	movs	r2, #0
 8004082:	771a      	strb	r2, [r3, #28]
 8004084:	68bb      	ldr	r3, [r7, #8]
 8004086:	f003 0308 	and.w	r3, r3, #8
 800408a:	2b00      	cmp	r3, #0
 800408c:	d020      	beq.n	80040d0 <HAL_TIM_IRQHandler+0xfc>
 800408e:	68fb      	ldr	r3, [r7, #12]
 8004090:	f003 0308 	and.w	r3, r3, #8
 8004094:	2b00      	cmp	r3, #0
 8004096:	d01b      	beq.n	80040d0 <HAL_TIM_IRQHandler+0xfc>
 8004098:	687b      	ldr	r3, [r7, #4]
 800409a:	681b      	ldr	r3, [r3, #0]
 800409c:	f06f 0208 	mvn.w	r2, #8
 80040a0:	611a      	str	r2, [r3, #16]
 80040a2:	687b      	ldr	r3, [r7, #4]
 80040a4:	2204      	movs	r2, #4
 80040a6:	771a      	strb	r2, [r3, #28]
 80040a8:	687b      	ldr	r3, [r7, #4]
 80040aa:	681b      	ldr	r3, [r3, #0]
 80040ac:	69db      	ldr	r3, [r3, #28]
 80040ae:	f003 0303 	and.w	r3, r3, #3
 80040b2:	2b00      	cmp	r3, #0
 80040b4:	d003      	beq.n	80040be <HAL_TIM_IRQHandler+0xea>
 80040b6:	6878      	ldr	r0, [r7, #4]
 80040b8:	f000 fafe 	bl	80046b8 <HAL_TIM_IC_CaptureCallback>
 80040bc:	e005      	b.n	80040ca <HAL_TIM_IRQHandler+0xf6>
 80040be:	6878      	ldr	r0, [r7, #4]
 80040c0:	f000 faf0 	bl	80046a4 <HAL_TIM_OC_DelayElapsedCallback>
 80040c4:	6878      	ldr	r0, [r7, #4]
 80040c6:	f000 fb01 	bl	80046cc <HAL_TIM_PWM_PulseFinishedCallback>
 80040ca:	687b      	ldr	r3, [r7, #4]
 80040cc:	2200      	movs	r2, #0
 80040ce:	771a      	strb	r2, [r3, #28]
 80040d0:	68bb      	ldr	r3, [r7, #8]
 80040d2:	f003 0310 	and.w	r3, r3, #16
 80040d6:	2b00      	cmp	r3, #0
 80040d8:	d020      	beq.n	800411c <HAL_TIM_IRQHandler+0x148>
 80040da:	68fb      	ldr	r3, [r7, #12]
 80040dc:	f003 0310 	and.w	r3, r3, #16
 80040e0:	2b00      	cmp	r3, #0
 80040e2:	d01b      	beq.n	800411c <HAL_TIM_IRQHandler+0x148>
 80040e4:	687b      	ldr	r3, [r7, #4]
 80040e6:	681b      	ldr	r3, [r3, #0]
 80040e8:	f06f 0210 	mvn.w	r2, #16
 80040ec:	611a      	str	r2, [r3, #16]
 80040ee:	687b      	ldr	r3, [r7, #4]
 80040f0:	2208      	movs	r2, #8
 80040f2:	771a      	strb	r2, [r3, #28]
 80040f4:	687b      	ldr	r3, [r7, #4]
 80040f6:	681b      	ldr	r3, [r3, #0]
 80040f8:	69db      	ldr	r3, [r3, #28]
 80040fa:	f403 7340 	and.w	r3, r3, #768	@ 0x300
 80040fe:	2b00      	cmp	r3, #0
 8004100:	d003      	beq.n	800410a <HAL_TIM_IRQHandler+0x136>
 8004102:	6878      	ldr	r0, [r7, #4]
 8004104:	f000 fad8 	bl	80046b8 <HAL_TIM_IC_CaptureCallback>
 8004108:	e005      	b.n	8004116 <HAL_TIM_IRQHandler+0x142>
 800410a:	6878      	ldr	r0, [r7, #4]
 800410c:	f000 faca 	bl	80046a4 <HAL_TIM_OC_DelayElapsedCallback>
 8004110:	6878      	ldr	r0, [r7, #4]
 8004112:	f000 fadb 	bl	80046cc <HAL_TIM_PWM_PulseFinishedCallback>
 8004116:	687b      	ldr	r3, [r7, #4]
 8004118:	2200      	movs	r2, #0
 800411a:	771a      	strb	r2, [r3, #28]
 800411c:	68bb      	ldr	r3, [r7, #8]
 800411e:	f003 0301 	and.w	r3, r3, #1
 8004122:	2b00      	cmp	r3, #0
 8004124:	d00c      	beq.n	8004140 <HAL_TIM_IRQHandler+0x16c>
 8004126:	68fb      	ldr	r3, [r7, #12]
 8004128:	f003 0301 	and.w	r3, r3, #1
 800412c:	2b00      	cmp	r3, #0
 800412e:	d007      	beq.n	8004140 <HAL_TIM_IRQHandler+0x16c>
 8004130:	687b      	ldr	r3, [r7, #4]
 8004132:	681b      	ldr	r3, [r3, #0]
 8004134:	f06f 0201 	mvn.w	r2, #1
 8004138:	611a      	str	r2, [r3, #16]
 800413a:	6878      	ldr	r0, [r7, #4]
 800413c:	f000 faa8 	bl	8004690 <HAL_TIM_PeriodElapsedCallback>
 8004140:	68bb      	ldr	r3, [r7, #8]
 8004142:	f003 0380 	and.w	r3, r3, #128	@ 0x80
 8004146:	2b00      	cmp	r3, #0
 8004148:	d104      	bne.n	8004154 <HAL_TIM_IRQHandler+0x180>
 800414a:	68bb      	ldr	r3, [r7, #8]
 800414c:	f403 5300 	and.w	r3, r3, #8192	@ 0x2000
 8004150:	2b00      	cmp	r3, #0
 8004152:	d00c      	beq.n	800416e <HAL_TIM_IRQHandler+0x19a>
 8004154:	68fb      	ldr	r3, [r7, #12]
 8004156:	f003 0380 	and.w	r3, r3, #128	@ 0x80
 800415a:	2b00      	cmp	r3, #0
 800415c:	d007      	beq.n	800416e <HAL_TIM_IRQHandler+0x19a>
 800415e:	687b      	ldr	r3, [r7, #4]
 8004160:	681b      	ldr	r3, [r3, #0]
 8004162:	f46f 5202 	mvn.w	r2, #8320	@ 0x2080
 8004166:	611a      	str	r2, [r3, #16]
 8004168:	6878      	ldr	r0, [r7, #4]
 800416a:	f000 ffa3 	bl	80050b4 <HAL_TIMEx_BreakCallback>
 800416e:	68bb      	ldr	r3, [r7, #8]
 8004170:	f403 7380 	and.w	r3, r3, #256	@ 0x100
 8004174:	2b00      	cmp	r3, #0
 8004176:	d00c      	beq.n	8004192 <HAL_TIM_IRQHandler+0x1be>
 8004178:	68fb      	ldr	r3, [r7, #12]
 800417a:	f003 0380 	and.w	r3, r3, #128	@ 0x80
 800417e:	2b00      	cmp	r3, #0
 8004180:	d007      	beq.n	8004192 <HAL_TIM_IRQHandler+0x1be>
 8004182:	687b      	ldr	r3, [r7, #4]
 8004184:	681b      	ldr	r3, [r3, #0]
 8004186:	f46f 7280 	mvn.w	r2, #256	@ 0x100
 800418a:	611a      	str	r2, [r3, #16]
 800418c:	6878      	ldr	r0, [r7, #4]
 800418e:	f000 ff9b 	bl	80050c8 <HAL_TIMEx_Break2Callback>
 8004192:	68bb      	ldr	r3, [r7, #8]
 8004194:	f003 0340 	and.w	r3, r3, #64	@ 0x40
 8004198:	2b00      	cmp	r3, #0
 800419a:	d00c      	beq.n	80041b6 <HAL_TIM_IRQHandler+0x1e2>
 800419c:	68fb      	ldr	r3, [r7, #12]
 800419e:	f003 0340 	and.w	r3, r3, #64	@ 0x40
 80041a2:	2b00      	cmp	r3, #0
 80041a4:	d007      	beq.n	80041b6 <HAL_TIM_IRQHandler+0x1e2>
 80041a6:	687b      	ldr	r3, [r7, #4]
 80041a8:	681b      	ldr	r3, [r3, #0]
 80041aa:	f06f 0240 	mvn.w	r2, #64	@ 0x40
 80041ae:	611a      	str	r2, [r3, #16]
 80041b0:	6878      	ldr	r0, [r7, #4]
 80041b2:	f000 fa95 	bl	80046e0 <HAL_TIM_TriggerCallback>
 80041b6:	68bb      	ldr	r3, [r7, #8]
 80041b8:	f003 0320 	and.w	r3, r3, #32
 80041bc:	2b00      	cmp	r3, #0
 80041be:	d00c      	beq.n	80041da <HAL_TIM_IRQHandler+0x206>
 80041c0:	68fb      	ldr	r3, [r7, #12]
 80041c2:	f003 0320 	and.w	r3, r3, #32
 80041c6:	2b00      	cmp	r3, #0
 80041c8:	d007      	beq.n	80041da <HAL_TIM_IRQHandler+0x206>
 80041ca:	687b      	ldr	r3, [r7, #4]
 80041cc:	681b      	ldr	r3, [r3, #0]
 80041ce:	f06f 0220 	mvn.w	r2, #32
 80041d2:	611a      	str	r2, [r3, #16]
 80041d4:	6878      	ldr	r0, [r7, #4]
 80041d6:	f000 ff63 	bl	80050a0 <HAL_TIMEx_CommutCallback>
 80041da:	68bb      	ldr	r3, [r7, #8]
 80041dc:	f403 1380 	and.w	r3, r3, #1048576	@ 0x100000
 80041e0:	2b00      	cmp	r3, #0
 80041e2:	d00c      	beq.n	80041fe <HAL_TIM_IRQHandler+0x22a>
 80041e4:	68fb      	ldr	r3, [r7, #12]
 80041e6:	f403 1380 	and.w	r3, r3, #1048576	@ 0x100000
 80041ea:	2b00      	cmp	r3, #0
 80041ec:	d007      	beq.n	80041fe <HAL_TIM_IRQHandler+0x22a>
 80041ee:	687b      	ldr	r3, [r7, #4]
 80041f0:	681b      	ldr	r3, [r3, #0]
 80041f2:	f46f 1280 	mvn.w	r2, #1048576	@ 0x100000
 80041f6:	611a      	str	r2, [r3, #16]
 80041f8:	6878      	ldr	r0, [r7, #4]
 80041fa:	f000 ff6f 	bl	80050dc <HAL_TIMEx_EncoderIndexCallback>
 80041fe:	68bb      	ldr	r3, [r7, #8]
 8004200:	f403 1300 	and.w	r3, r3, #2097152	@ 0x200000
 8004204:	2b00      	cmp	r3, #0
 8004206:	d00c      	beq.n	8004222 <HAL_TIM_IRQHandler+0x24e>
 8004208:	68fb      	ldr	r3, [r7, #12]
 800420a:	f403 1300 	and.w	r3, r3, #2097152	@ 0x200000
 800420e:	2b00      	cmp	r3, #0
 8004210:	d007      	beq.n	8004222 <HAL_TIM_IRQHandler+0x24e>
 8004212:	687b      	ldr	r3, [r7, #4]
 8004214:	681b      	ldr	r3, [r3, #0]
 8004216:	f46f 1200 	mvn.w	r2, #2097152	@ 0x200000
 800421a:	611a      	str	r2, [r3, #16]
 800421c:	6878      	ldr	r0, [r7, #4]
 800421e:	f000 ff67 	bl	80050f0 <HAL_TIMEx_DirectionChangeCallback>
 8004222:	68bb      	ldr	r3, [r7, #8]
 8004224:	f403 0380 	and.w	r3, r3, #4194304	@ 0x400000
 8004228:	2b00      	cmp	r3, #0
 800422a:	d00c      	beq.n	8004246 <HAL_TIM_IRQHandler+0x272>
 800422c:	68fb      	ldr	r3, [r7, #12]
 800422e:	f403 0380 	and.w	r3, r3, #4194304	@ 0x400000
 8004232:	2b00      	cmp	r3, #0
 8004234:	d007      	beq.n	8004246 <HAL_TIM_IRQHandler+0x272>
 8004236:	687b      	ldr	r3, [r7, #4]
 8004238:	681b      	ldr	r3, [r3, #0]
 800423a:	f46f 0280 	mvn.w	r2, #4194304	@ 0x400000
 800423e:	611a      	str	r2, [r3, #16]
 8004240:	6878      	ldr	r0, [r7, #4]
 8004242:	f000 ff5f 	bl	8005104 <HAL_TIMEx_IndexErrorCallback>
 8004246:	68bb      	ldr	r3, [r7, #8]
 8004248:	f403 0300 	and.w	r3, r3, #8388608	@ 0x800000
 800424c:	2b00      	cmp	r3, #0
 800424e:	d00c      	beq.n	800426a <HAL_TIM_IRQHandler+0x296>
 8004250:	68fb      	ldr	r3, [r7, #12]
 8004252:	f403 0300 	and.w	r3, r3, #8388608	@ 0x800000
 8004256:	2b00      	cmp	r3, #0
 8004258:	d007      	beq.n	800426a <HAL_TIM_IRQHandler+0x296>
 800425a:	687b      	ldr	r3, [r7, #4]
 800425c:	681b      	ldr	r3, [r3, #0]
 800425e:	f46f 0200 	mvn.w	r2, #8388608	@ 0x800000
 8004262:	611a      	str	r2, [r3, #16]
 8004264:	6878      	ldr	r0, [r7, #4]
 8004266:	f000 ff57 	bl	8005118 <HAL_TIMEx_TransitionErrorCallback>
 800426a:	bf00      	nop
 800426c:	3710      	adds	r7, #16
 800426e:	46bd      	mov	sp, r7
 8004270:	bd80      	pop	{r7, pc}
	...

08004274 <HAL_TIM_PWM_ConfigChannel>:
 8004274:	b580      	push	{r7, lr}
 8004276:	b086      	sub	sp, #24
 8004278:	af00      	add	r7, sp, #0
 800427a:	60f8      	str	r0, [r7, #12]
 800427c:	60b9      	str	r1, [r7, #8]
 800427e:	607a      	str	r2, [r7, #4]
 8004280:	2300      	movs	r3, #0
 8004282:	75fb      	strb	r3, [r7, #23]
 8004284:	68fb      	ldr	r3, [r7, #12]
 8004286:	f893 303c 	ldrb.w	r3, [r3, #60]	@ 0x3c
 800428a:	2b01      	cmp	r3, #1
 800428c:	d101      	bne.n	8004292 <HAL_TIM_PWM_ConfigChannel+0x1e>
 800428e:	2302      	movs	r3, #2
 8004290:	e0ff      	b.n	8004492 <HAL_TIM_PWM_ConfigChannel+0x21e>
 8004292:	68fb      	ldr	r3, [r7, #12]
 8004294:	2201      	movs	r2, #1
 8004296:	f883 203c 	strb.w	r2, [r3, #60]	@ 0x3c
 800429a:	687b      	ldr	r3, [r7, #4]
 800429c:	2b14      	cmp	r3, #20
 800429e:	f200 80f0 	bhi.w	8004482 <HAL_TIM_PWM_ConfigChannel+0x20e>
 80042a2:	a201      	add	r2, pc, #4	@ (adr r2, 80042a8 <HAL_TIM_PWM_ConfigChannel+0x34>)
 80042a4:	f852 f023 	ldr.w	pc, [r2, r3, lsl #2]
 80042a8:	080042fd 	.word	0x080042fd
 80042ac:	08004483 	.word	0x08004483
 80042b0:	08004483 	.word	0x08004483
 80042b4:	08004483 	.word	0x08004483
 80042b8:	0800433d 	.word	0x0800433d
 80042bc:	08004483 	.word	0x08004483
 80042c0:	08004483 	.word	0x08004483
 80042c4:	08004483 	.word	0x08004483
 80042c8:	0800437f 	.word	0x0800437f
 80042cc:	08004483 	.word	0x08004483
 80042d0:	08004483 	.word	0x08004483
 80042d4:	08004483 	.word	0x08004483
 80042d8:	080043bf 	.word	0x080043bf
 80042dc:	08004483 	.word	0x08004483
 80042e0:	08004483 	.word	0x08004483
 80042e4:	08004483 	.word	0x08004483
 80042e8:	08004401 	.word	0x08004401
 80042ec:	08004483 	.word	0x08004483
 80042f0:	08004483 	.word	0x08004483
 80042f4:	08004483 	.word	0x08004483
 80042f8:	08004441 	.word	0x08004441
 80042fc:	68fb      	ldr	r3, [r7, #12]
 80042fe:	681b      	ldr	r3, [r3, #0]
 8004300:	68b9      	ldr	r1, [r7, #8]
 8004302:	4618      	mov	r0, r3
 8004304:	f000 fa92 	bl	800482c <TIM_OC1_SetConfig>
 8004308:	68fb      	ldr	r3, [r7, #12]
 800430a:	681b      	ldr	r3, [r3, #0]
 800430c:	699a      	ldr	r2, [r3, #24]
 800430e:	68fb      	ldr	r3, [r7, #12]
 8004310:	681b      	ldr	r3, [r3, #0]
 8004312:	f042 0208 	orr.w	r2, r2, #8
 8004316:	619a      	str	r2, [r3, #24]
 8004318:	68fb      	ldr	r3, [r7, #12]
 800431a:	681b      	ldr	r3, [r3, #0]
 800431c:	699a      	ldr	r2, [r3, #24]
 800431e:	68fb      	ldr	r3, [r7, #12]
 8004320:	681b      	ldr	r3, [r3, #0]
 8004322:	f022 0204 	bic.w	r2, r2, #4
 8004326:	619a      	str	r2, [r3, #24]
 8004328:	68fb      	ldr	r3, [r7, #12]
 800432a:	681b      	ldr	r3, [r3, #0]
 800432c:	6999      	ldr	r1, [r3, #24]
 800432e:	68bb      	ldr	r3, [r7, #8]
 8004330:	691a      	ldr	r2, [r3, #16]
 8004332:	68fb      	ldr	r3, [r7, #12]
 8004334:	681b      	ldr	r3, [r3, #0]
 8004336:	430a      	orrs	r2, r1
 8004338:	619a      	str	r2, [r3, #24]
 800433a:	e0a5      	b.n	8004488 <HAL_TIM_PWM_ConfigChannel+0x214>
 800433c:	68fb      	ldr	r3, [r7, #12]
 800433e:	681b      	ldr	r3, [r3, #0]
 8004340:	68b9      	ldr	r1, [r7, #8]
 8004342:	4618      	mov	r0, r3
 8004344:	f000 fb02 	bl	800494c <TIM_OC2_SetConfig>
 8004348:	68fb      	ldr	r3, [r7, #12]
 800434a:	681b      	ldr	r3, [r3, #0]
 800434c:	699a      	ldr	r2, [r3, #24]
 800434e:	68fb      	ldr	r3, [r7, #12]
 8004350:	681b      	ldr	r3, [r3, #0]
 8004352:	f442 6200 	orr.w	r2, r2, #2048	@ 0x800
 8004356:	619a      	str	r2, [r3, #24]
 8004358:	68fb      	ldr	r3, [r7, #12]
 800435a:	681b      	ldr	r3, [r3, #0]
 800435c:	699a      	ldr	r2, [r3, #24]
 800435e:	68fb      	ldr	r3, [r7, #12]
 8004360:	681b      	ldr	r3, [r3, #0]
 8004362:	f422 6280 	bic.w	r2, r2, #1024	@ 0x400
 8004366:	619a      	str	r2, [r3, #24]
 8004368:	68fb      	ldr	r3, [r7, #12]
 800436a:	681b      	ldr	r3, [r3, #0]
 800436c:	6999      	ldr	r1, [r3, #24]
 800436e:	68bb      	ldr	r3, [r7, #8]
 8004370:	691b      	ldr	r3, [r3, #16]
 8004372:	021a      	lsls	r2, r3, #8
 8004374:	68fb      	ldr	r3, [r7, #12]
 8004376:	681b      	ldr	r3, [r3, #0]
 8004378:	430a      	orrs	r2, r1
 800437a:	619a      	str	r2, [r3, #24]
 800437c:	e084      	b.n	8004488 <HAL_TIM_PWM_ConfigChannel+0x214>
 800437e:	68fb      	ldr	r3, [r7, #12]
 8004380:	681b      	ldr	r3, [r3, #0]
 8004382:	68b9      	ldr	r1, [r7, #8]
 8004384:	4618      	mov	r0, r3
 8004386:	f000 fb6b 	bl	8004a60 <TIM_OC3_SetConfig>
 800438a:	68fb      	ldr	r3, [r7, #12]
 800438c:	681b      	ldr	r3, [r3, #0]
 800438e:	69da      	ldr	r2, [r3, #28]
 8004390:	68fb      	ldr	r3, [r7, #12]
 8004392:	681b      	ldr	r3, [r3, #0]
 8004394:	f042 0208 	orr.w	r2, r2, #8
 8004398:	61da      	str	r2, [r3, #28]
 800439a:	68fb      	ldr	r3, [r7, #12]
 800439c:	681b      	ldr	r3, [r3, #0]
 800439e:	69da      	ldr	r2, [r3, #28]
 80043a0:	68fb      	ldr	r3, [r7, #12]
 80043a2:	681b      	ldr	r3, [r3, #0]
 80043a4:	f022 0204 	bic.w	r2, r2, #4
 80043a8:	61da      	str	r2, [r3, #28]
 80043aa:	68fb      	ldr	r3, [r7, #12]
 80043ac:	681b      	ldr	r3, [r3, #0]
 80043ae:	69d9      	ldr	r1, [r3, #28]
 80043b0:	68bb      	ldr	r3, [r7, #8]
 80043b2:	691a      	ldr	r2, [r3, #16]
 80043b4:	68fb      	ldr	r3, [r7, #12]
 80043b6:	681b      	ldr	r3, [r3, #0]
 80043b8:	430a      	orrs	r2, r1
 80043ba:	61da      	str	r2, [r3, #28]
 80043bc:	e064      	b.n	8004488 <HAL_TIM_PWM_ConfigChannel+0x214>
 80043be:	68fb      	ldr	r3, [r7, #12]
 80043c0:	681b      	ldr	r3, [r3, #0]
 80043c2:	68b9      	ldr	r1, [r7, #8]
 80043c4:	4618      	mov	r0, r3
 80043c6:	f000 fbd3 	bl	8004b70 <TIM_OC4_SetConfig>
 80043ca:	68fb      	ldr	r3, [r7, #12]
 80043cc:	681b      	ldr	r3, [r3, #0]
 80043ce:	69da      	ldr	r2, [r3, #28]
 80043d0:	68fb      	ldr	r3, [r7, #12]
 80043d2:	681b      	ldr	r3, [r3, #0]
 80043d4:	f442 6200 	orr.w	r2, r2, #2048	@ 0x800
 80043d8:	61da      	str	r2, [r3, #28]
 80043da:	68fb      	ldr	r3, [r7, #12]
 80043dc:	681b      	ldr	r3, [r3, #0]
 80043de:	69da      	ldr	r2, [r3, #28]
 80043e0:	68fb      	ldr	r3, [r7, #12]
 80043e2:	681b      	ldr	r3, [r3, #0]
 80043e4:	f422 6280 	bic.w	r2, r2, #1024	@ 0x400
 80043e8:	61da      	str	r2, [r3, #28]
 80043ea:	68fb      	ldr	r3, [r7, #12]
 80043ec:	681b      	ldr	r3, [r3, #0]
 80043ee:	69d9      	ldr	r1, [r3, #28]
 80043f0:	68bb      	ldr	r3, [r7, #8]
 80043f2:	691b      	ldr	r3, [r3, #16]
 80043f4:	021a      	lsls	r2, r3, #8
 80043f6:	68fb      	ldr	r3, [r7, #12]
 80043f8:	681b      	ldr	r3, [r3, #0]
 80043fa:	430a      	orrs	r2, r1
 80043fc:	61da      	str	r2, [r3, #28]
 80043fe:	e043      	b.n	8004488 <HAL_TIM_PWM_ConfigChannel+0x214>
 8004400:	68fb      	ldr	r3, [r7, #12]
 8004402:	681b      	ldr	r3, [r3, #0]
 8004404:	68b9      	ldr	r1, [r7, #8]
 8004406:	4618      	mov	r0, r3
 8004408:	f000 fc3c 	bl	8004c84 <TIM_OC5_SetConfig>
 800440c:	68fb      	ldr	r3, [r7, #12]
 800440e:	681b      	ldr	r3, [r3, #0]
 8004410:	6d1a      	ldr	r2, [r3, #80]	@ 0x50
 8004412:	68fb      	ldr	r3, [r7, #12]
 8004414:	681b      	ldr	r3, [r3, #0]
 8004416:	f042 0208 	orr.w	r2, r2, #8
 800441a:	651a      	str	r2, [r3, #80]	@ 0x50
 800441c:	68fb      	ldr	r3, [r7, #12]
 800441e:	681b      	ldr	r3, [r3, #0]
 8004420:	6d1a      	ldr	r2, [r3, #80]	@ 0x50
 8004422:	68fb      	ldr	r3, [r7, #12]
 8004424:	681b      	ldr	r3, [r3, #0]
 8004426:	f022 0204 	bic.w	r2, r2, #4
 800442a:	651a      	str	r2, [r3, #80]	@ 0x50
 800442c:	68fb      	ldr	r3, [r7, #12]
 800442e:	681b      	ldr	r3, [r3, #0]
 8004430:	6d19      	ldr	r1, [r3, #80]	@ 0x50
 8004432:	68bb      	ldr	r3, [r7, #8]
 8004434:	691a      	ldr	r2, [r3, #16]
 8004436:	68fb      	ldr	r3, [r7, #12]
 8004438:	681b      	ldr	r3, [r3, #0]
 800443a:	430a      	orrs	r2, r1
 800443c:	651a      	str	r2, [r3, #80]	@ 0x50
 800443e:	e023      	b.n	8004488 <HAL_TIM_PWM_ConfigChannel+0x214>
 8004440:	68fb      	ldr	r3, [r7, #12]
 8004442:	681b      	ldr	r3, [r3, #0]
 8004444:	68b9      	ldr	r1, [r7, #8]
 8004446:	4618      	mov	r0, r3
 8004448:	f000 fc80 	bl	8004d4c <TIM_OC6_SetConfig>
 800444c:	68fb      	ldr	r3, [r7, #12]
 800444e:	681b      	ldr	r3, [r3, #0]
 8004450:	6d1a      	ldr	r2, [r3, #80]	@ 0x50
 8004452:	68fb      	ldr	r3, [r7, #12]
 8004454:	681b      	ldr	r3, [r3, #0]
 8004456:	f442 6200 	orr.w	r2, r2, #2048	@ 0x800
 800445a:	651a      	str	r2, [r3, #80]	@ 0x50
 800445c:	68fb      	ldr	r3, [r7, #12]
 800445e:	681b      	ldr	r3, [r3, #0]
 8004460:	6d1a      	ldr	r2, [r3, #80]	@ 0x50
 8004462:	68fb      	ldr	r3, [r7, #12]
 8004464:	681b      	ldr	r3, [r3, #0]
 8004466:	f422 6280 	bic.w	r2, r2, #1024	@ 0x400
 800446a:	651a      	str	r2, [r3, #80]	@ 0x50
 800446c:	68fb      	ldr	r3, [r7, #12]
 800446e:	681b      	ldr	r3, [r3, #0]
 8004470:	6d19      	ldr	r1, [r3, #80]	@ 0x50
 8004472:	68bb      	ldr	r3, [r7, #8]
 8004474:	691b      	ldr	r3, [r3, #16]
 8004476:	021a      	lsls	r2, r3, #8
 8004478:	68fb      	ldr	r3, [r7, #12]
 800447a:	681b      	ldr	r3, [r3, #0]
 800447c:	430a      	orrs	r2, r1
 800447e:	651a      	str	r2, [r3, #80]	@ 0x50
 8004480:	e002      	b.n	8004488 <HAL_TIM_PWM_ConfigChannel+0x214>
 8004482:	2301      	movs	r3, #1
 8004484:	75fb      	strb	r3, [r7, #23]
 8004486:	bf00      	nop
 8004488:	68fb      	ldr	r3, [r7, #12]
 800448a:	2200      	movs	r2, #0
 800448c:	f883 203c 	strb.w	r2, [r3, #60]	@ 0x3c
 8004490:	7dfb      	ldrb	r3, [r7, #23]
 8004492:	4618      	mov	r0, r3
 8004494:	3718      	adds	r7, #24
 8004496:	46bd      	mov	sp, r7
 8004498:	bd80      	pop	{r7, pc}
 800449a:	bf00      	nop

0800449c <HAL_TIM_ConfigClockSource>:
 800449c:	b580      	push	{r7, lr}
 800449e:	b084      	sub	sp, #16
 80044a0:	af00      	add	r7, sp, #0
 80044a2:	6078      	str	r0, [r7, #4]
 80044a4:	6039      	str	r1, [r7, #0]
 80044a6:	2300      	movs	r3, #0
 80044a8:	73fb      	strb	r3, [r7, #15]
 80044aa:	687b      	ldr	r3, [r7, #4]
 80044ac:	f893 303c 	ldrb.w	r3, [r3, #60]	@ 0x3c
 80044b0:	2b01      	cmp	r3, #1
 80044b2:	d101      	bne.n	80044b8 <HAL_TIM_ConfigClockSource+0x1c>
 80044b4:	2302      	movs	r3, #2
 80044b6:	e0de      	b.n	8004676 <HAL_TIM_ConfigClockSource+0x1da>
 80044b8:	687b      	ldr	r3, [r7, #4]
 80044ba:	2201      	movs	r2, #1
 80044bc:	f883 203c 	strb.w	r2, [r3, #60]	@ 0x3c
 80044c0:	687b      	ldr	r3, [r7, #4]
 80044c2:	2202      	movs	r2, #2
 80044c4:	f883 203d 	strb.w	r2, [r3, #61]	@ 0x3d
 80044c8:	687b      	ldr	r3, [r7, #4]
 80044ca:	681b      	ldr	r3, [r3, #0]
 80044cc:	689b      	ldr	r3, [r3, #8]
 80044ce:	60bb      	str	r3, [r7, #8]
 80044d0:	68bb      	ldr	r3, [r7, #8]
 80044d2:	f423 1344 	bic.w	r3, r3, #3211264	@ 0x310000
 80044d6:	f023 0377 	bic.w	r3, r3, #119	@ 0x77
 80044da:	60bb      	str	r3, [r7, #8]
 80044dc:	68bb      	ldr	r3, [r7, #8]
 80044de:	f423 437f 	bic.w	r3, r3, #65280	@ 0xff00
 80044e2:	60bb      	str	r3, [r7, #8]
 80044e4:	687b      	ldr	r3, [r7, #4]
 80044e6:	681b      	ldr	r3, [r3, #0]
 80044e8:	68ba      	ldr	r2, [r7, #8]
 80044ea:	609a      	str	r2, [r3, #8]
 80044ec:	683b      	ldr	r3, [r7, #0]
 80044ee:	681b      	ldr	r3, [r3, #0]
 80044f0:	4a63      	ldr	r2, [pc, #396]	@ (8004680 <HAL_TIM_ConfigClockSource+0x1e4>)
 80044f2:	4293      	cmp	r3, r2
 80044f4:	f000 80a9 	beq.w	800464a <HAL_TIM_ConfigClockSource+0x1ae>
 80044f8:	4a61      	ldr	r2, [pc, #388]	@ (8004680 <HAL_TIM_ConfigClockSource+0x1e4>)
 80044fa:	4293      	cmp	r3, r2
 80044fc:	f200 80ae 	bhi.w	800465c <HAL_TIM_ConfigClockSource+0x1c0>
 8004500:	4a60      	ldr	r2, [pc, #384]	@ (8004684 <HAL_TIM_ConfigClockSource+0x1e8>)
 8004502:	4293      	cmp	r3, r2
 8004504:	f000 80a1 	beq.w	800464a <HAL_TIM_ConfigClockSource+0x1ae>
 8004508:	4a5e      	ldr	r2, [pc, #376]	@ (8004684 <HAL_TIM_ConfigClockSource+0x1e8>)
 800450a:	4293      	cmp	r3, r2
 800450c:	f200 80a6 	bhi.w	800465c <HAL_TIM_ConfigClockSource+0x1c0>
 8004510:	4a5d      	ldr	r2, [pc, #372]	@ (8004688 <HAL_TIM_ConfigClockSource+0x1ec>)
 8004512:	4293      	cmp	r3, r2
 8004514:	f000 8099 	beq.w	800464a <HAL_TIM_ConfigClockSource+0x1ae>
 8004518:	4a5b      	ldr	r2, [pc, #364]	@ (8004688 <HAL_TIM_ConfigClockSource+0x1ec>)
 800451a:	4293      	cmp	r3, r2
 800451c:	f200 809e 	bhi.w	800465c <HAL_TIM_ConfigClockSource+0x1c0>
 8004520:	4a5a      	ldr	r2, [pc, #360]	@ (800468c <HAL_TIM_ConfigClockSource+0x1f0>)
 8004522:	4293      	cmp	r3, r2
 8004524:	f000 8091 	beq.w	800464a <HAL_TIM_ConfigClockSource+0x1ae>
 8004528:	4a58      	ldr	r2, [pc, #352]	@ (800468c <HAL_TIM_ConfigClockSource+0x1f0>)
 800452a:	4293      	cmp	r3, r2
 800452c:	f200 8096 	bhi.w	800465c <HAL_TIM_ConfigClockSource+0x1c0>
 8004530:	f1b3 1f10 	cmp.w	r3, #1048592	@ 0x100010
 8004534:	f000 8089 	beq.w	800464a <HAL_TIM_ConfigClockSource+0x1ae>
 8004538:	f1b3 1f10 	cmp.w	r3, #1048592	@ 0x100010
 800453c:	f200 808e 	bhi.w	800465c <HAL_TIM_ConfigClockSource+0x1c0>
 8004540:	f5b3 5f00 	cmp.w	r3, #8192	@ 0x2000
 8004544:	d03e      	beq.n	80045c4 <HAL_TIM_ConfigClockSource+0x128>
 8004546:	f5b3 5f00 	cmp.w	r3, #8192	@ 0x2000
 800454a:	f200 8087 	bhi.w	800465c <HAL_TIM_ConfigClockSource+0x1c0>
 800454e:	f5b3 5f80 	cmp.w	r3, #4096	@ 0x1000
 8004552:	f000 8086 	beq.w	8004662 <HAL_TIM_ConfigClockSource+0x1c6>
 8004556:	f5b3 5f80 	cmp.w	r3, #4096	@ 0x1000
 800455a:	d87f      	bhi.n	800465c <HAL_TIM_ConfigClockSource+0x1c0>
 800455c:	2b70      	cmp	r3, #112	@ 0x70
 800455e:	d01a      	beq.n	8004596 <HAL_TIM_ConfigClockSource+0xfa>
 8004560:	2b70      	cmp	r3, #112	@ 0x70
 8004562:	d87b      	bhi.n	800465c <HAL_TIM_ConfigClockSource+0x1c0>
 8004564:	2b60      	cmp	r3, #96	@ 0x60
 8004566:	d050      	beq.n	800460a <HAL_TIM_ConfigClockSource+0x16e>
 8004568:	2b60      	cmp	r3, #96	@ 0x60
 800456a:	d877      	bhi.n	800465c <HAL_TIM_ConfigClockSource+0x1c0>
 800456c:	2b50      	cmp	r3, #80	@ 0x50
 800456e:	d03c      	beq.n	80045ea <HAL_TIM_ConfigClockSource+0x14e>
 8004570:	2b50      	cmp	r3, #80	@ 0x50
 8004572:	d873      	bhi.n	800465c <HAL_TIM_ConfigClockSource+0x1c0>
 8004574:	2b40      	cmp	r3, #64	@ 0x40
 8004576:	d058      	beq.n	800462a <HAL_TIM_ConfigClockSource+0x18e>
 8004578:	2b40      	cmp	r3, #64	@ 0x40
 800457a:	d86f      	bhi.n	800465c <HAL_TIM_ConfigClockSource+0x1c0>
 800457c:	2b30      	cmp	r3, #48	@ 0x30
 800457e:	d064      	beq.n	800464a <HAL_TIM_ConfigClockSource+0x1ae>
 8004580:	2b30      	cmp	r3, #48	@ 0x30
 8004582:	d86b      	bhi.n	800465c <HAL_TIM_ConfigClockSource+0x1c0>
 8004584:	2b20      	cmp	r3, #32
 8004586:	d060      	beq.n	800464a <HAL_TIM_ConfigClockSource+0x1ae>
 8004588:	2b20      	cmp	r3, #32
 800458a:	d867      	bhi.n	800465c <HAL_TIM_ConfigClockSource+0x1c0>
 800458c:	2b00      	cmp	r3, #0
 800458e:	d05c      	beq.n	800464a <HAL_TIM_ConfigClockSource+0x1ae>
 8004590:	2b10      	cmp	r3, #16
 8004592:	d05a      	beq.n	800464a <HAL_TIM_ConfigClockSource+0x1ae>
 8004594:	e062      	b.n	800465c <HAL_TIM_ConfigClockSource+0x1c0>
 8004596:	687b      	ldr	r3, [r7, #4]
 8004598:	6818      	ldr	r0, [r3, #0]
 800459a:	683b      	ldr	r3, [r7, #0]
 800459c:	6899      	ldr	r1, [r3, #8]
 800459e:	683b      	ldr	r3, [r7, #0]
 80045a0:	685a      	ldr	r2, [r3, #4]
 80045a2:	683b      	ldr	r3, [r7, #0]
 80045a4:	68db      	ldr	r3, [r3, #12]
 80045a6:	f000 fcb3 	bl	8004f10 <TIM_ETR_SetConfig>
 80045aa:	687b      	ldr	r3, [r7, #4]
 80045ac:	681b      	ldr	r3, [r3, #0]
 80045ae:	689b      	ldr	r3, [r3, #8]
 80045b0:	60bb      	str	r3, [r7, #8]
 80045b2:	68bb      	ldr	r3, [r7, #8]
 80045b4:	f043 0377 	orr.w	r3, r3, #119	@ 0x77
 80045b8:	60bb      	str	r3, [r7, #8]
 80045ba:	687b      	ldr	r3, [r7, #4]
 80045bc:	681b      	ldr	r3, [r3, #0]
 80045be:	68ba      	ldr	r2, [r7, #8]
 80045c0:	609a      	str	r2, [r3, #8]
 80045c2:	e04f      	b.n	8004664 <HAL_TIM_ConfigClockSource+0x1c8>
 80045c4:	687b      	ldr	r3, [r7, #4]
 80045c6:	6818      	ldr	r0, [r3, #0]
 80045c8:	683b      	ldr	r3, [r7, #0]
 80045ca:	6899      	ldr	r1, [r3, #8]
 80045cc:	683b      	ldr	r3, [r7, #0]
 80045ce:	685a      	ldr	r2, [r3, #4]
 80045d0:	683b      	ldr	r3, [r7, #0]
 80045d2:	68db      	ldr	r3, [r3, #12]
 80045d4:	f000 fc9c 	bl	8004f10 <TIM_ETR_SetConfig>
 80045d8:	687b      	ldr	r3, [r7, #4]
 80045da:	681b      	ldr	r3, [r3, #0]
 80045dc:	689a      	ldr	r2, [r3, #8]
 80045de:	687b      	ldr	r3, [r7, #4]
 80045e0:	681b      	ldr	r3, [r3, #0]
 80045e2:	f442 4280 	orr.w	r2, r2, #16384	@ 0x4000
 80045e6:	609a      	str	r2, [r3, #8]
 80045e8:	e03c      	b.n	8004664 <HAL_TIM_ConfigClockSource+0x1c8>
 80045ea:	687b      	ldr	r3, [r7, #4]
 80045ec:	6818      	ldr	r0, [r3, #0]
 80045ee:	683b      	ldr	r3, [r7, #0]
 80045f0:	6859      	ldr	r1, [r3, #4]
 80045f2:	683b      	ldr	r3, [r7, #0]
 80045f4:	68db      	ldr	r3, [r3, #12]
 80045f6:	461a      	mov	r2, r3
 80045f8:	f000 fc0e 	bl	8004e18 <TIM_TI1_ConfigInputStage>
 80045fc:	687b      	ldr	r3, [r7, #4]
 80045fe:	681b      	ldr	r3, [r3, #0]
 8004600:	2150      	movs	r1, #80	@ 0x50
 8004602:	4618      	mov	r0, r3
 8004604:	f000 fc67 	bl	8004ed6 <TIM_ITRx_SetConfig>
 8004608:	e02c      	b.n	8004664 <HAL_TIM_ConfigClockSource+0x1c8>
 800460a:	687b      	ldr	r3, [r7, #4]
 800460c:	6818      	ldr	r0, [r3, #0]
 800460e:	683b      	ldr	r3, [r7, #0]
 8004610:	6859      	ldr	r1, [r3, #4]
 8004612:	683b      	ldr	r3, [r7, #0]
 8004614:	68db      	ldr	r3, [r3, #12]
 8004616:	461a      	mov	r2, r3
 8004618:	f000 fc2d 	bl	8004e76 <TIM_TI2_ConfigInputStage>
 800461c:	687b      	ldr	r3, [r7, #4]
 800461e:	681b      	ldr	r3, [r3, #0]
 8004620:	2160      	movs	r1, #96	@ 0x60
 8004622:	4618      	mov	r0, r3
 8004624:	f000 fc57 	bl	8004ed6 <TIM_ITRx_SetConfig>
 8004628:	e01c      	b.n	8004664 <HAL_TIM_ConfigClockSource+0x1c8>
 800462a:	687b      	ldr	r3, [r7, #4]
 800462c:	6818      	ldr	r0, [r3, #0]
 800462e:	683b      	ldr	r3, [r7, #0]
 8004630:	6859      	ldr	r1, [r3, #4]
 8004632:	683b      	ldr	r3, [r7, #0]
 8004634:	68db      	ldr	r3, [r3, #12]
 8004636:	461a      	mov	r2, r3
 8004638:	f000 fbee 	bl	8004e18 <TIM_TI1_ConfigInputStage>
 800463c:	687b      	ldr	r3, [r7, #4]
 800463e:	681b      	ldr	r3, [r3, #0]
 8004640:	2140      	movs	r1, #64	@ 0x40
 8004642:	4618      	mov	r0, r3
 8004644:	f000 fc47 	bl	8004ed6 <TIM_ITRx_SetConfig>
 8004648:	e00c      	b.n	8004664 <HAL_TIM_ConfigClockSource+0x1c8>
 800464a:	687b      	ldr	r3, [r7, #4]
 800464c:	681a      	ldr	r2, [r3, #0]
 800464e:	683b      	ldr	r3, [r7, #0]
 8004650:	681b      	ldr	r3, [r3, #0]
 8004652:	4619      	mov	r1, r3
 8004654:	4610      	mov	r0, r2
 8004656:	f000 fc3e 	bl	8004ed6 <TIM_ITRx_SetConfig>
 800465a:	e003      	b.n	8004664 <HAL_TIM_ConfigClockSource+0x1c8>
 800465c:	2301      	movs	r3, #1
 800465e:	73fb      	strb	r3, [r7, #15]
 8004660:	e000      	b.n	8004664 <HAL_TIM_ConfigClockSource+0x1c8>
 8004662:	bf00      	nop
 8004664:	687b      	ldr	r3, [r7, #4]
 8004666:	2201      	movs	r2, #1
 8004668:	f883 203d 	strb.w	r2, [r3, #61]	@ 0x3d
 800466c:	687b      	ldr	r3, [r7, #4]
 800466e:	2200      	movs	r2, #0
 8004670:	f883 203c 	strb.w	r2, [r3, #60]	@ 0x3c
 8004674:	7bfb      	ldrb	r3, [r7, #15]
 8004676:	4618      	mov	r0, r3
 8004678:	3710      	adds	r7, #16
 800467a:	46bd      	mov	sp, r7
 800467c:	bd80      	pop	{r7, pc}
 800467e:	bf00      	nop
 8004680:	00100070 	.word	0x00100070
 8004684:	00100040 	.word	0x00100040
 8004688:	00100030 	.word	0x00100030
 800468c:	00100020 	.word	0x00100020

08004690 <HAL_TIM_PeriodElapsedCallback>:
 8004690:	b480      	push	{r7}
 8004692:	b083      	sub	sp, #12
 8004694:	af00      	add	r7, sp, #0
 8004696:	6078      	str	r0, [r7, #4]
 8004698:	bf00      	nop
 800469a:	370c      	adds	r7, #12
 800469c:	46bd      	mov	sp, r7
 800469e:	f85d 7b04 	ldr.w	r7, [sp], #4
 80046a2:	4770      	bx	lr

080046a4 <HAL_TIM_OC_DelayElapsedCallback>:
 80046a4:	b480      	push	{r7}
 80046a6:	b083      	sub	sp, #12
 80046a8:	af00      	add	r7, sp, #0
 80046aa:	6078      	str	r0, [r7, #4]
 80046ac:	bf00      	nop
 80046ae:	370c      	adds	r7, #12
 80046b0:	46bd      	mov	sp, r7
 80046b2:	f85d 7b04 	ldr.w	r7, [sp], #4
 80046b6:	4770      	bx	lr

080046b8 <HAL_TIM_IC_CaptureCallback>:
 80046b8:	b480      	push	{r7}
 80046ba:	b083      	sub	sp, #12
 80046bc:	af00      	add	r7, sp, #0
 80046be:	6078      	str	r0, [r7, #4]
 80046c0:	bf00      	nop
 80046c2:	370c      	adds	r7, #12
 80046c4:	46bd      	mov	sp, r7
 80046c6:	f85d 7b04 	ldr.w	r7, [sp], #4
 80046ca:	4770      	bx	lr

080046cc <HAL_TIM_PWM_PulseFinishedCallback>:
 80046cc:	b480      	push	{r7}
 80046ce:	b083      	sub	sp, #12
 80046d0:	af00      	add	r7, sp, #0
 80046d2:	6078      	str	r0, [r7, #4]
 80046d4:	bf00      	nop
 80046d6:	370c      	adds	r7, #12
 80046d8:	46bd      	mov	sp, r7
 80046da:	f85d 7b04 	ldr.w	r7, [sp], #4
 80046de:	4770      	bx	lr

080046e0 <HAL_TIM_TriggerCallback>:
 80046e0:	b480      	push	{r7}
 80046e2:	b083      	sub	sp, #12
 80046e4:	af00      	add	r7, sp, #0
 80046e6:	6078      	str	r0, [r7, #4]
 80046e8:	bf00      	nop
 80046ea:	370c      	adds	r7, #12
 80046ec:	46bd      	mov	sp, r7
 80046ee:	f85d 7b04 	ldr.w	r7, [sp], #4
 80046f2:	4770      	bx	lr

080046f4 <TIM_Base_SetConfig>:
 80046f4:	b480      	push	{r7}
 80046f6:	b085      	sub	sp, #20
 80046f8:	af00      	add	r7, sp, #0
 80046fa:	6078      	str	r0, [r7, #4]
 80046fc:	6039      	str	r1, [r7, #0]
 80046fe:	687b      	ldr	r3, [r7, #4]
 8004700:	681b      	ldr	r3, [r3, #0]
 8004702:	60fb      	str	r3, [r7, #12]
 8004704:	687b      	ldr	r3, [r7, #4]
 8004706:	4a42      	ldr	r2, [pc, #264]	@ (8004810 <TIM_Base_SetConfig+0x11c>)
 8004708:	4293      	cmp	r3, r2
 800470a:	d00f      	beq.n	800472c <TIM_Base_SetConfig+0x38>
 800470c:	687b      	ldr	r3, [r7, #4]
 800470e:	f1b3 4f80 	cmp.w	r3, #1073741824	@ 0x40000000
 8004712:	d00b      	beq.n	800472c <TIM_Base_SetConfig+0x38>
 8004714:	687b      	ldr	r3, [r7, #4]
 8004716:	4a3f      	ldr	r2, [pc, #252]	@ (8004814 <TIM_Base_SetConfig+0x120>)
 8004718:	4293      	cmp	r3, r2
 800471a:	d007      	beq.n	800472c <TIM_Base_SetConfig+0x38>
 800471c:	687b      	ldr	r3, [r7, #4]
 800471e:	4a3e      	ldr	r2, [pc, #248]	@ (8004818 <TIM_Base_SetConfig+0x124>)
 8004720:	4293      	cmp	r3, r2
 8004722:	d003      	beq.n	800472c <TIM_Base_SetConfig+0x38>
 8004724:	687b      	ldr	r3, [r7, #4]
 8004726:	4a3d      	ldr	r2, [pc, #244]	@ (800481c <TIM_Base_SetConfig+0x128>)
 8004728:	4293      	cmp	r3, r2
 800472a:	d108      	bne.n	800473e <TIM_Base_SetConfig+0x4a>
 800472c:	68fb      	ldr	r3, [r7, #12]
 800472e:	f023 0370 	bic.w	r3, r3, #112	@ 0x70
 8004732:	60fb      	str	r3, [r7, #12]
 8004734:	683b      	ldr	r3, [r7, #0]
 8004736:	685b      	ldr	r3, [r3, #4]
 8004738:	68fa      	ldr	r2, [r7, #12]
 800473a:	4313      	orrs	r3, r2
 800473c:	60fb      	str	r3, [r7, #12]
 800473e:	687b      	ldr	r3, [r7, #4]
 8004740:	4a33      	ldr	r2, [pc, #204]	@ (8004810 <TIM_Base_SetConfig+0x11c>)
 8004742:	4293      	cmp	r3, r2
 8004744:	d01b      	beq.n	800477e <TIM_Base_SetConfig+0x8a>
 8004746:	687b      	ldr	r3, [r7, #4]
 8004748:	f1b3 4f80 	cmp.w	r3, #1073741824	@ 0x40000000
 800474c:	d017      	beq.n	800477e <TIM_Base_SetConfig+0x8a>
 800474e:	687b      	ldr	r3, [r7, #4]
 8004750:	4a30      	ldr	r2, [pc, #192]	@ (8004814 <TIM_Base_SetConfig+0x120>)
 8004752:	4293      	cmp	r3, r2
 8004754:	d013      	beq.n	800477e <TIM_Base_SetConfig+0x8a>
 8004756:	687b      	ldr	r3, [r7, #4]
 8004758:	4a2f      	ldr	r2, [pc, #188]	@ (8004818 <TIM_Base_SetConfig+0x124>)
 800475a:	4293      	cmp	r3, r2
 800475c:	d00f      	beq.n	800477e <TIM_Base_SetConfig+0x8a>
 800475e:	687b      	ldr	r3, [r7, #4]
 8004760:	4a2e      	ldr	r2, [pc, #184]	@ (800481c <TIM_Base_SetConfig+0x128>)
 8004762:	4293      	cmp	r3, r2
 8004764:	d00b      	beq.n	800477e <TIM_Base_SetConfig+0x8a>
 8004766:	687b      	ldr	r3, [r7, #4]
 8004768:	4a2d      	ldr	r2, [pc, #180]	@ (8004820 <TIM_Base_SetConfig+0x12c>)
 800476a:	4293      	cmp	r3, r2
 800476c:	d007      	beq.n	800477e <TIM_Base_SetConfig+0x8a>
 800476e:	687b      	ldr	r3, [r7, #4]
 8004770:	4a2c      	ldr	r2, [pc, #176]	@ (8004824 <TIM_Base_SetConfig+0x130>)
 8004772:	4293      	cmp	r3, r2
 8004774:	d003      	beq.n	800477e <TIM_Base_SetConfig+0x8a>
 8004776:	687b      	ldr	r3, [r7, #4]
 8004778:	4a2b      	ldr	r2, [pc, #172]	@ (8004828 <TIM_Base_SetConfig+0x134>)
 800477a:	4293      	cmp	r3, r2
 800477c:	d108      	bne.n	8004790 <TIM_Base_SetConfig+0x9c>
 800477e:	68fb      	ldr	r3, [r7, #12]
 8004780:	f423 7340 	bic.w	r3, r3, #768	@ 0x300
 8004784:	60fb      	str	r3, [r7, #12]
 8004786:	683b      	ldr	r3, [r7, #0]
 8004788:	68db      	ldr	r3, [r3, #12]
 800478a:	68fa      	ldr	r2, [r7, #12]
 800478c:	4313      	orrs	r3, r2
 800478e:	60fb      	str	r3, [r7, #12]
 8004790:	68fb      	ldr	r3, [r7, #12]
 8004792:	f023 0280 	bic.w	r2, r3, #128	@ 0x80
 8004796:	683b      	ldr	r3, [r7, #0]
 8004798:	695b      	ldr	r3, [r3, #20]
 800479a:	4313      	orrs	r3, r2
 800479c:	60fb      	str	r3, [r7, #12]
 800479e:	687b      	ldr	r3, [r7, #4]
 80047a0:	68fa      	ldr	r2, [r7, #12]
 80047a2:	601a      	str	r2, [r3, #0]
 80047a4:	683b      	ldr	r3, [r7, #0]
 80047a6:	689a      	ldr	r2, [r3, #8]
 80047a8:	687b      	ldr	r3, [r7, #4]
 80047aa:	62da      	str	r2, [r3, #44]	@ 0x2c
 80047ac:	683b      	ldr	r3, [r7, #0]
 80047ae:	681a      	ldr	r2, [r3, #0]
 80047b0:	687b      	ldr	r3, [r7, #4]
 80047b2:	629a      	str	r2, [r3, #40]	@ 0x28
 80047b4:	687b      	ldr	r3, [r7, #4]
 80047b6:	4a16      	ldr	r2, [pc, #88]	@ (8004810 <TIM_Base_SetConfig+0x11c>)
 80047b8:	4293      	cmp	r3, r2
 80047ba:	d00f      	beq.n	80047dc <TIM_Base_SetConfig+0xe8>
 80047bc:	687b      	ldr	r3, [r7, #4]
 80047be:	4a17      	ldr	r2, [pc, #92]	@ (800481c <TIM_Base_SetConfig+0x128>)
 80047c0:	4293      	cmp	r3, r2
 80047c2:	d00b      	beq.n	80047dc <TIM_Base_SetConfig+0xe8>
 80047c4:	687b      	ldr	r3, [r7, #4]
 80047c6:	4a16      	ldr	r2, [pc, #88]	@ (8004820 <TIM_Base_SetConfig+0x12c>)
 80047c8:	4293      	cmp	r3, r2
 80047ca:	d007      	beq.n	80047dc <TIM_Base_SetConfig+0xe8>
 80047cc:	687b      	ldr	r3, [r7, #4]
 80047ce:	4a15      	ldr	r2, [pc, #84]	@ (8004824 <TIM_Base_SetConfig+0x130>)
 80047d0:	4293      	cmp	r3, r2
 80047d2:	d003      	beq.n	80047dc <TIM_Base_SetConfig+0xe8>
 80047d4:	687b      	ldr	r3, [r7, #4]
 80047d6:	4a14      	ldr	r2, [pc, #80]	@ (8004828 <TIM_Base_SetConfig+0x134>)
 80047d8:	4293      	cmp	r3, r2
 80047da:	d103      	bne.n	80047e4 <TIM_Base_SetConfig+0xf0>
 80047dc:	683b      	ldr	r3, [r7, #0]
 80047de:	691a      	ldr	r2, [r3, #16]
 80047e0:	687b      	ldr	r3, [r7, #4]
 80047e2:	631a      	str	r2, [r3, #48]	@ 0x30
 80047e4:	687b      	ldr	r3, [r7, #4]
 80047e6:	2201      	movs	r2, #1
 80047e8:	615a      	str	r2, [r3, #20]
 80047ea:	687b      	ldr	r3, [r7, #4]
 80047ec:	691b      	ldr	r3, [r3, #16]
 80047ee:	f003 0301 	and.w	r3, r3, #1
 80047f2:	2b01      	cmp	r3, #1
 80047f4:	d105      	bne.n	8004802 <TIM_Base_SetConfig+0x10e>
 80047f6:	687b      	ldr	r3, [r7, #4]
 80047f8:	691b      	ldr	r3, [r3, #16]
 80047fa:	f023 0201 	bic.w	r2, r3, #1
 80047fe:	687b      	ldr	r3, [r7, #4]
 8004800:	611a      	str	r2, [r3, #16]
 8004802:	bf00      	nop
 8004804:	3714      	adds	r7, #20
 8004806:	46bd      	mov	sp, r7
 8004808:	f85d 7b04 	ldr.w	r7, [sp], #4
 800480c:	4770      	bx	lr
 800480e:	bf00      	nop
 8004810:	40012c00 	.word	0x40012c00
 8004814:	40000400 	.word	0x40000400
 8004818:	40000800 	.word	0x40000800
 800481c:	40013400 	.word	0x40013400
 8004820:	40014000 	.word	0x40014000
 8004824:	40014400 	.word	0x40014400
 8004828:	40014800 	.word	0x40014800

0800482c <TIM_OC1_SetConfig>:
 800482c:	b480      	push	{r7}
 800482e:	b087      	sub	sp, #28
 8004830:	af00      	add	r7, sp, #0
 8004832:	6078      	str	r0, [r7, #4]
 8004834:	6039      	str	r1, [r7, #0]
 8004836:	687b      	ldr	r3, [r7, #4]
 8004838:	6a1b      	ldr	r3, [r3, #32]
 800483a:	617b      	str	r3, [r7, #20]
 800483c:	687b      	ldr	r3, [r7, #4]
 800483e:	6a1b      	ldr	r3, [r3, #32]
 8004840:	f023 0201 	bic.w	r2, r3, #1
 8004844:	687b      	ldr	r3, [r7, #4]
 8004846:	621a      	str	r2, [r3, #32]
 8004848:	687b      	ldr	r3, [r7, #4]
 800484a:	685b      	ldr	r3, [r3, #4]
 800484c:	613b      	str	r3, [r7, #16]
 800484e:	687b      	ldr	r3, [r7, #4]
 8004850:	699b      	ldr	r3, [r3, #24]
 8004852:	60fb      	str	r3, [r7, #12]
 8004854:	68fb      	ldr	r3, [r7, #12]
 8004856:	f423 3380 	bic.w	r3, r3, #65536	@ 0x10000
 800485a:	f023 0370 	bic.w	r3, r3, #112	@ 0x70
 800485e:	60fb      	str	r3, [r7, #12]
 8004860:	68fb      	ldr	r3, [r7, #12]
 8004862:	f023 0303 	bic.w	r3, r3, #3
 8004866:	60fb      	str	r3, [r7, #12]
 8004868:	683b      	ldr	r3, [r7, #0]
 800486a:	681b      	ldr	r3, [r3, #0]
 800486c:	68fa      	ldr	r2, [r7, #12]
 800486e:	4313      	orrs	r3, r2
 8004870:	60fb      	str	r3, [r7, #12]
 8004872:	697b      	ldr	r3, [r7, #20]
 8004874:	f023 0302 	bic.w	r3, r3, #2
 8004878:	617b      	str	r3, [r7, #20]
 800487a:	683b      	ldr	r3, [r7, #0]
 800487c:	689b      	ldr	r3, [r3, #8]
 800487e:	697a      	ldr	r2, [r7, #20]
 8004880:	4313      	orrs	r3, r2
 8004882:	617b      	str	r3, [r7, #20]
 8004884:	687b      	ldr	r3, [r7, #4]
 8004886:	4a2c      	ldr	r2, [pc, #176]	@ (8004938 <TIM_OC1_SetConfig+0x10c>)
 8004888:	4293      	cmp	r3, r2
 800488a:	d00f      	beq.n	80048ac <TIM_OC1_SetConfig+0x80>
 800488c:	687b      	ldr	r3, [r7, #4]
 800488e:	4a2b      	ldr	r2, [pc, #172]	@ (800493c <TIM_OC1_SetConfig+0x110>)
 8004890:	4293      	cmp	r3, r2
 8004892:	d00b      	beq.n	80048ac <TIM_OC1_SetConfig+0x80>
 8004894:	687b      	ldr	r3, [r7, #4]
 8004896:	4a2a      	ldr	r2, [pc, #168]	@ (8004940 <TIM_OC1_SetConfig+0x114>)
 8004898:	4293      	cmp	r3, r2
 800489a:	d007      	beq.n	80048ac <TIM_OC1_SetConfig+0x80>
 800489c:	687b      	ldr	r3, [r7, #4]
 800489e:	4a29      	ldr	r2, [pc, #164]	@ (8004944 <TIM_OC1_SetConfig+0x118>)
 80048a0:	4293      	cmp	r3, r2
 80048a2:	d003      	beq.n	80048ac <TIM_OC1_SetConfig+0x80>
 80048a4:	687b      	ldr	r3, [r7, #4]
 80048a6:	4a28      	ldr	r2, [pc, #160]	@ (8004948 <TIM_OC1_SetConfig+0x11c>)
 80048a8:	4293      	cmp	r3, r2
 80048aa:	d10c      	bne.n	80048c6 <TIM_OC1_SetConfig+0x9a>
 80048ac:	697b      	ldr	r3, [r7, #20]
 80048ae:	f023 0308 	bic.w	r3, r3, #8
 80048b2:	617b      	str	r3, [r7, #20]
 80048b4:	683b      	ldr	r3, [r7, #0]
 80048b6:	68db      	ldr	r3, [r3, #12]
 80048b8:	697a      	ldr	r2, [r7, #20]
 80048ba:	4313      	orrs	r3, r2
 80048bc:	617b      	str	r3, [r7, #20]
 80048be:	697b      	ldr	r3, [r7, #20]
 80048c0:	f023 0304 	bic.w	r3, r3, #4
 80048c4:	617b      	str	r3, [r7, #20]
 80048c6:	687b      	ldr	r3, [r7, #4]
 80048c8:	4a1b      	ldr	r2, [pc, #108]	@ (8004938 <TIM_OC1_SetConfig+0x10c>)
 80048ca:	4293      	cmp	r3, r2
 80048cc:	d00f      	beq.n	80048ee <TIM_OC1_SetConfig+0xc2>
 80048ce:	687b      	ldr	r3, [r7, #4]
 80048d0:	4a1a      	ldr	r2, [pc, #104]	@ (800493c <TIM_OC1_SetConfig+0x110>)
 80048d2:	4293      	cmp	r3, r2
 80048d4:	d00b      	beq.n	80048ee <TIM_OC1_SetConfig+0xc2>
 80048d6:	687b      	ldr	r3, [r7, #4]
 80048d8:	4a19      	ldr	r2, [pc, #100]	@ (8004940 <TIM_OC1_SetConfig+0x114>)
 80048da:	4293      	cmp	r3, r2
 80048dc:	d007      	beq.n	80048ee <TIM_OC1_SetConfig+0xc2>
 80048de:	687b      	ldr	r3, [r7, #4]
 80048e0:	4a18      	ldr	r2, [pc, #96]	@ (8004944 <TIM_OC1_SetConfig+0x118>)
 80048e2:	4293      	cmp	r3, r2
 80048e4:	d003      	beq.n	80048ee <TIM_OC1_SetConfig+0xc2>
 80048e6:	687b      	ldr	r3, [r7, #4]
 80048e8:	4a17      	ldr	r2, [pc, #92]	@ (8004948 <TIM_OC1_SetConfig+0x11c>)
 80048ea:	4293      	cmp	r3, r2
 80048ec:	d111      	bne.n	8004912 <TIM_OC1_SetConfig+0xe6>
 80048ee:	693b      	ldr	r3, [r7, #16]
 80048f0:	f423 7380 	bic.w	r3, r3, #256	@ 0x100
 80048f4:	613b      	str	r3, [r7, #16]
 80048f6:	693b      	ldr	r3, [r7, #16]
 80048f8:	f423 7300 	bic.w	r3, r3, #512	@ 0x200
 80048fc:	613b      	str	r3, [r7, #16]
 80048fe:	683b      	ldr	r3, [r7, #0]
 8004900:	695b      	ldr	r3, [r3, #20]
 8004902:	693a      	ldr	r2, [r7, #16]
 8004904:	4313      	orrs	r3, r2
 8004906:	613b      	str	r3, [r7, #16]
 8004908:	683b      	ldr	r3, [r7, #0]
 800490a:	699b      	ldr	r3, [r3, #24]
 800490c:	693a      	ldr	r2, [r7, #16]
 800490e:	4313      	orrs	r3, r2
 8004910:	613b      	str	r3, [r7, #16]
 8004912:	687b      	ldr	r3, [r7, #4]
 8004914:	693a      	ldr	r2, [r7, #16]
 8004916:	605a      	str	r2, [r3, #4]
 8004918:	687b      	ldr	r3, [r7, #4]
 800491a:	68fa      	ldr	r2, [r7, #12]
 800491c:	619a      	str	r2, [r3, #24]
 800491e:	683b      	ldr	r3, [r7, #0]
 8004920:	685a      	ldr	r2, [r3, #4]
 8004922:	687b      	ldr	r3, [r7, #4]
 8004924:	635a      	str	r2, [r3, #52]	@ 0x34
 8004926:	687b      	ldr	r3, [r7, #4]
 8004928:	697a      	ldr	r2, [r7, #20]
 800492a:	621a      	str	r2, [r3, #32]
 800492c:	bf00      	nop
 800492e:	371c      	adds	r7, #28
 8004930:	46bd      	mov	sp, r7
 8004932:	f85d 7b04 	ldr.w	r7, [sp], #4
 8004936:	4770      	bx	lr
 8004938:	40012c00 	.word	0x40012c00
 800493c:	40013400 	.word	0x40013400
 8004940:	40014000 	.word	0x40014000
 8004944:	40014400 	.word	0x40014400
 8004948:	40014800 	.word	0x40014800

0800494c <TIM_OC2_SetConfig>:
 800494c:	b480      	push	{r7}
 800494e:	b087      	sub	sp, #28
 8004950:	af00      	add	r7, sp, #0
 8004952:	6078      	str	r0, [r7, #4]
 8004954:	6039      	str	r1, [r7, #0]
 8004956:	687b      	ldr	r3, [r7, #4]
 8004958:	6a1b      	ldr	r3, [r3, #32]
 800495a:	617b      	str	r3, [r7, #20]
 800495c:	687b      	ldr	r3, [r7, #4]
 800495e:	6a1b      	ldr	r3, [r3, #32]
 8004960:	f023 0210 	bic.w	r2, r3, #16
 8004964:	687b      	ldr	r3, [r7, #4]
 8004966:	621a      	str	r2, [r3, #32]
 8004968:	687b      	ldr	r3, [r7, #4]
 800496a:	685b      	ldr	r3, [r3, #4]
 800496c:	613b      	str	r3, [r7, #16]
 800496e:	687b      	ldr	r3, [r7, #4]
 8004970:	699b      	ldr	r3, [r3, #24]
 8004972:	60fb      	str	r3, [r7, #12]
 8004974:	68fb      	ldr	r3, [r7, #12]
 8004976:	f023 7380 	bic.w	r3, r3, #16777216	@ 0x1000000
 800497a:	f423 43e0 	bic.w	r3, r3, #28672	@ 0x7000
 800497e:	60fb      	str	r3, [r7, #12]
 8004980:	68fb      	ldr	r3, [r7, #12]
 8004982:	f423 7340 	bic.w	r3, r3, #768	@ 0x300
 8004986:	60fb      	str	r3, [r7, #12]
 8004988:	683b      	ldr	r3, [r7, #0]
 800498a:	681b      	ldr	r3, [r3, #0]
 800498c:	021b      	lsls	r3, r3, #8
 800498e:	68fa      	ldr	r2, [r7, #12]
 8004990:	4313      	orrs	r3, r2
 8004992:	60fb      	str	r3, [r7, #12]
 8004994:	697b      	ldr	r3, [r7, #20]
 8004996:	f023 0320 	bic.w	r3, r3, #32
 800499a:	617b      	str	r3, [r7, #20]
 800499c:	683b      	ldr	r3, [r7, #0]
 800499e:	689b      	ldr	r3, [r3, #8]
 80049a0:	011b      	lsls	r3, r3, #4
 80049a2:	697a      	ldr	r2, [r7, #20]
 80049a4:	4313      	orrs	r3, r2
 80049a6:	617b      	str	r3, [r7, #20]
 80049a8:	687b      	ldr	r3, [r7, #4]
 80049aa:	4a28      	ldr	r2, [pc, #160]	@ (8004a4c <TIM_OC2_SetConfig+0x100>)
 80049ac:	4293      	cmp	r3, r2
 80049ae:	d003      	beq.n	80049b8 <TIM_OC2_SetConfig+0x6c>
 80049b0:	687b      	ldr	r3, [r7, #4]
 80049b2:	4a27      	ldr	r2, [pc, #156]	@ (8004a50 <TIM_OC2_SetConfig+0x104>)
 80049b4:	4293      	cmp	r3, r2
 80049b6:	d10d      	bne.n	80049d4 <TIM_OC2_SetConfig+0x88>
 80049b8:	697b      	ldr	r3, [r7, #20]
 80049ba:	f023 0380 	bic.w	r3, r3, #128	@ 0x80
 80049be:	617b      	str	r3, [r7, #20]
 80049c0:	683b      	ldr	r3, [r7, #0]
 80049c2:	68db      	ldr	r3, [r3, #12]
 80049c4:	011b      	lsls	r3, r3, #4
 80049c6:	697a      	ldr	r2, [r7, #20]
 80049c8:	4313      	orrs	r3, r2
 80049ca:	617b      	str	r3, [r7, #20]
 80049cc:	697b      	ldr	r3, [r7, #20]
 80049ce:	f023 0340 	bic.w	r3, r3, #64	@ 0x40
 80049d2:	617b      	str	r3, [r7, #20]
 80049d4:	687b      	ldr	r3, [r7, #4]
 80049d6:	4a1d      	ldr	r2, [pc, #116]	@ (8004a4c <TIM_OC2_SetConfig+0x100>)
 80049d8:	4293      	cmp	r3, r2
 80049da:	d00f      	beq.n	80049fc <TIM_OC2_SetConfig+0xb0>
 80049dc:	687b      	ldr	r3, [r7, #4]
 80049de:	4a1c      	ldr	r2, [pc, #112]	@ (8004a50 <TIM_OC2_SetConfig+0x104>)
 80049e0:	4293      	cmp	r3, r2
 80049e2:	d00b      	beq.n	80049fc <TIM_OC2_SetConfig+0xb0>
 80049e4:	687b      	ldr	r3, [r7, #4]
 80049e6:	4a1b      	ldr	r2, [pc, #108]	@ (8004a54 <TIM_OC2_SetConfig+0x108>)
 80049e8:	4293      	cmp	r3, r2
 80049ea:	d007      	beq.n	80049fc <TIM_OC2_SetConfig+0xb0>
 80049ec:	687b      	ldr	r3, [r7, #4]
 80049ee:	4a1a      	ldr	r2, [pc, #104]	@ (8004a58 <TIM_OC2_SetConfig+0x10c>)
 80049f0:	4293      	cmp	r3, r2
 80049f2:	d003      	beq.n	80049fc <TIM_OC2_SetConfig+0xb0>
 80049f4:	687b      	ldr	r3, [r7, #4]
 80049f6:	4a19      	ldr	r2, [pc, #100]	@ (8004a5c <TIM_OC2_SetConfig+0x110>)
 80049f8:	4293      	cmp	r3, r2
 80049fa:	d113      	bne.n	8004a24 <TIM_OC2_SetConfig+0xd8>
 80049fc:	693b      	ldr	r3, [r7, #16]
 80049fe:	f423 6380 	bic.w	r3, r3, #1024	@ 0x400
 8004a02:	613b      	str	r3, [r7, #16]
 8004a04:	693b      	ldr	r3, [r7, #16]
 8004a06:	f423 6300 	bic.w	r3, r3, #2048	@ 0x800
 8004a0a:	613b      	str	r3, [r7, #16]
 8004a0c:	683b      	ldr	r3, [r7, #0]
 8004a0e:	695b      	ldr	r3, [r3, #20]
 8004a10:	009b      	lsls	r3, r3, #2
 8004a12:	693a      	ldr	r2, [r7, #16]
 8004a14:	4313      	orrs	r3, r2
 8004a16:	613b      	str	r3, [r7, #16]
 8004a18:	683b      	ldr	r3, [r7, #0]
 8004a1a:	699b      	ldr	r3, [r3, #24]
 8004a1c:	009b      	lsls	r3, r3, #2
 8004a1e:	693a      	ldr	r2, [r7, #16]
 8004a20:	4313      	orrs	r3, r2
 8004a22:	613b      	str	r3, [r7, #16]
 8004a24:	687b      	ldr	r3, [r7, #4]
 8004a26:	693a      	ldr	r2, [r7, #16]
 8004a28:	605a      	str	r2, [r3, #4]
 8004a2a:	687b      	ldr	r3, [r7, #4]
 8004a2c:	68fa      	ldr	r2, [r7, #12]
 8004a2e:	619a      	str	r2, [r3, #24]
 8004a30:	683b      	ldr	r3, [r7, #0]
 8004a32:	685a      	ldr	r2, [r3, #4]
 8004a34:	687b      	ldr	r3, [r7, #4]
 8004a36:	639a      	str	r2, [r3, #56]	@ 0x38
 8004a38:	687b      	ldr	r3, [r7, #4]
 8004a3a:	697a      	ldr	r2, [r7, #20]
 8004a3c:	621a      	str	r2, [r3, #32]
 8004a3e:	bf00      	nop
 8004a40:	371c      	adds	r7, #28
 8004a42:	46bd      	mov	sp, r7
 8004a44:	f85d 7b04 	ldr.w	r7, [sp], #4
 8004a48:	4770      	bx	lr
 8004a4a:	bf00      	nop
 8004a4c:	40012c00 	.word	0x40012c00
 8004a50:	40013400 	.word	0x40013400
 8004a54:	40014000 	.word	0x40014000
 8004a58:	40014400 	.word	0x40014400
 8004a5c:	40014800 	.word	0x40014800

08004a60 <TIM_OC3_SetConfig>:
 8004a60:	b480      	push	{r7}
 8004a62:	b087      	sub	sp, #28
 8004a64:	af00      	add	r7, sp, #0
 8004a66:	6078      	str	r0, [r7, #4]
 8004a68:	6039      	str	r1, [r7, #0]
 8004a6a:	687b      	ldr	r3, [r7, #4]
 8004a6c:	6a1b      	ldr	r3, [r3, #32]
 8004a6e:	617b      	str	r3, [r7, #20]
 8004a70:	687b      	ldr	r3, [r7, #4]
 8004a72:	6a1b      	ldr	r3, [r3, #32]
 8004a74:	f423 7280 	bic.w	r2, r3, #256	@ 0x100
 8004a78:	687b      	ldr	r3, [r7, #4]
 8004a7a:	621a      	str	r2, [r3, #32]
 8004a7c:	687b      	ldr	r3, [r7, #4]
 8004a7e:	685b      	ldr	r3, [r3, #4]
 8004a80:	613b      	str	r3, [r7, #16]
 8004a82:	687b      	ldr	r3, [r7, #4]
 8004a84:	69db      	ldr	r3, [r3, #28]
 8004a86:	60fb      	str	r3, [r7, #12]
 8004a88:	68fb      	ldr	r3, [r7, #12]
 8004a8a:	f423 3380 	bic.w	r3, r3, #65536	@ 0x10000
 8004a8e:	f023 0370 	bic.w	r3, r3, #112	@ 0x70
 8004a92:	60fb      	str	r3, [r7, #12]
 8004a94:	68fb      	ldr	r3, [r7, #12]
 8004a96:	f023 0303 	bic.w	r3, r3, #3
 8004a9a:	60fb      	str	r3, [r7, #12]
 8004a9c:	683b      	ldr	r3, [r7, #0]
 8004a9e:	681b      	ldr	r3, [r3, #0]
 8004aa0:	68fa      	ldr	r2, [r7, #12]
 8004aa2:	4313      	orrs	r3, r2
 8004aa4:	60fb      	str	r3, [r7, #12]
 8004aa6:	697b      	ldr	r3, [r7, #20]
 8004aa8:	f423 7300 	bic.w	r3, r3, #512	@ 0x200
 8004aac:	617b      	str	r3, [r7, #20]
 8004aae:	683b      	ldr	r3, [r7, #0]
 8004ab0:	689b      	ldr	r3, [r3, #8]
 8004ab2:	021b      	lsls	r3, r3, #8
 8004ab4:	697a      	ldr	r2, [r7, #20]
 8004ab6:	4313      	orrs	r3, r2
 8004ab8:	617b      	str	r3, [r7, #20]
 8004aba:	687b      	ldr	r3, [r7, #4]
 8004abc:	4a27      	ldr	r2, [pc, #156]	@ (8004b5c <TIM_OC3_SetConfig+0xfc>)
 8004abe:	4293      	cmp	r3, r2
 8004ac0:	d003      	beq.n	8004aca <TIM_OC3_SetConfig+0x6a>
 8004ac2:	687b      	ldr	r3, [r7, #4]
 8004ac4:	4a26      	ldr	r2, [pc, #152]	@ (8004b60 <TIM_OC3_SetConfig+0x100>)
 8004ac6:	4293      	cmp	r3, r2
 8004ac8:	d10d      	bne.n	8004ae6 <TIM_OC3_SetConfig+0x86>
 8004aca:	697b      	ldr	r3, [r7, #20]
 8004acc:	f423 6300 	bic.w	r3, r3, #2048	@ 0x800
 8004ad0:	617b      	str	r3, [r7, #20]
 8004ad2:	683b      	ldr	r3, [r7, #0]
 8004ad4:	68db      	ldr	r3, [r3, #12]
 8004ad6:	021b      	lsls	r3, r3, #8
 8004ad8:	697a      	ldr	r2, [r7, #20]
 8004ada:	4313      	orrs	r3, r2
 8004adc:	617b      	str	r3, [r7, #20]
 8004ade:	697b      	ldr	r3, [r7, #20]
 8004ae0:	f423 6380 	bic.w	r3, r3, #1024	@ 0x400
 8004ae4:	617b      	str	r3, [r7, #20]
 8004ae6:	687b      	ldr	r3, [r7, #4]
 8004ae8:	4a1c      	ldr	r2, [pc, #112]	@ (8004b5c <TIM_OC3_SetConfig+0xfc>)
 8004aea:	4293      	cmp	r3, r2
 8004aec:	d00f      	beq.n	8004b0e <TIM_OC3_SetConfig+0xae>
 8004aee:	687b      	ldr	r3, [r7, #4]
 8004af0:	4a1b      	ldr	r2, [pc, #108]	@ (8004b60 <TIM_OC3_SetConfig+0x100>)
 8004af2:	4293      	cmp	r3, r2
 8004af4:	d00b      	beq.n	8004b0e <TIM_OC3_SetConfig+0xae>
 8004af6:	687b      	ldr	r3, [r7, #4]
 8004af8:	4a1a      	ldr	r2, [pc, #104]	@ (8004b64 <TIM_OC3_SetConfig+0x104>)
 8004afa:	4293      	cmp	r3, r2
 8004afc:	d007      	beq.n	8004b0e <TIM_OC3_SetConfig+0xae>
 8004afe:	687b      	ldr	r3, [r7, #4]
 8004b00:	4a19      	ldr	r2, [pc, #100]	@ (8004b68 <TIM_OC3_SetConfig+0x108>)
 8004b02:	4293      	cmp	r3, r2
 8004b04:	d003      	beq.n	8004b0e <TIM_OC3_SetConfig+0xae>
 8004b06:	687b      	ldr	r3, [r7, #4]
 8004b08:	4a18      	ldr	r2, [pc, #96]	@ (8004b6c <TIM_OC3_SetConfig+0x10c>)
 8004b0a:	4293      	cmp	r3, r2
 8004b0c:	d113      	bne.n	8004b36 <TIM_OC3_SetConfig+0xd6>
 8004b0e:	693b      	ldr	r3, [r7, #16]
 8004b10:	f423 5380 	bic.w	r3, r3, #4096	@ 0x1000
 8004b14:	613b      	str	r3, [r7, #16]
 8004b16:	693b      	ldr	r3, [r7, #16]
 8004b18:	f423 5300 	bic.w	r3, r3, #8192	@ 0x2000
 8004b1c:	613b      	str	r3, [r7, #16]
 8004b1e:	683b      	ldr	r3, [r7, #0]
 8004b20:	695b      	ldr	r3, [r3, #20]
 8004b22:	011b      	lsls	r3, r3, #4
 8004b24:	693a      	ldr	r2, [r7, #16]
 8004b26:	4313      	orrs	r3, r2
 8004b28:	613b      	str	r3, [r7, #16]
 8004b2a:	683b      	ldr	r3, [r7, #0]
 8004b2c:	699b      	ldr	r3, [r3, #24]
 8004b2e:	011b      	lsls	r3, r3, #4
 8004b30:	693a      	ldr	r2, [r7, #16]
 8004b32:	4313      	orrs	r3, r2
 8004b34:	613b      	str	r3, [r7, #16]
 8004b36:	687b      	ldr	r3, [r7, #4]
 8004b38:	693a      	ldr	r2, [r7, #16]
 8004b3a:	605a      	str	r2, [r3, #4]
 8004b3c:	687b      	ldr	r3, [r7, #4]
 8004b3e:	68fa      	ldr	r2, [r7, #12]
 8004b40:	61da      	str	r2, [r3, #28]
 8004b42:	683b      	ldr	r3, [r7, #0]
 8004b44:	685a      	ldr	r2, [r3, #4]
 8004b46:	687b      	ldr	r3, [r7, #4]
 8004b48:	63da      	str	r2, [r3, #60]	@ 0x3c
 8004b4a:	687b      	ldr	r3, [r7, #4]
 8004b4c:	697a      	ldr	r2, [r7, #20]
 8004b4e:	621a      	str	r2, [r3, #32]
 8004b50:	bf00      	nop
 8004b52:	371c      	adds	r7, #28
 8004b54:	46bd      	mov	sp, r7
 8004b56:	f85d 7b04 	ldr.w	r7, [sp], #4
 8004b5a:	4770      	bx	lr
 8004b5c:	40012c00 	.word	0x40012c00
 8004b60:	40013400 	.word	0x40013400
 8004b64:	40014000 	.word	0x40014000
 8004b68:	40014400 	.word	0x40014400
 8004b6c:	40014800 	.word	0x40014800

08004b70 <TIM_OC4_SetConfig>:
 8004b70:	b480      	push	{r7}
 8004b72:	b087      	sub	sp, #28
 8004b74:	af00      	add	r7, sp, #0
 8004b76:	6078      	str	r0, [r7, #4]
 8004b78:	6039      	str	r1, [r7, #0]
 8004b7a:	687b      	ldr	r3, [r7, #4]
 8004b7c:	6a1b      	ldr	r3, [r3, #32]
 8004b7e:	617b      	str	r3, [r7, #20]
 8004b80:	687b      	ldr	r3, [r7, #4]
 8004b82:	6a1b      	ldr	r3, [r3, #32]
 8004b84:	f423 5280 	bic.w	r2, r3, #4096	@ 0x1000
 8004b88:	687b      	ldr	r3, [r7, #4]
 8004b8a:	621a      	str	r2, [r3, #32]
 8004b8c:	687b      	ldr	r3, [r7, #4]
 8004b8e:	685b      	ldr	r3, [r3, #4]
 8004b90:	613b      	str	r3, [r7, #16]
 8004b92:	687b      	ldr	r3, [r7, #4]
 8004b94:	69db      	ldr	r3, [r3, #28]
 8004b96:	60fb      	str	r3, [r7, #12]
 8004b98:	68fb      	ldr	r3, [r7, #12]
 8004b9a:	f023 7380 	bic.w	r3, r3, #16777216	@ 0x1000000
 8004b9e:	f423 43e0 	bic.w	r3, r3, #28672	@ 0x7000
 8004ba2:	60fb      	str	r3, [r7, #12]
 8004ba4:	68fb      	ldr	r3, [r7, #12]
 8004ba6:	f423 7340 	bic.w	r3, r3, #768	@ 0x300
 8004baa:	60fb      	str	r3, [r7, #12]
 8004bac:	683b      	ldr	r3, [r7, #0]
 8004bae:	681b      	ldr	r3, [r3, #0]
 8004bb0:	021b      	lsls	r3, r3, #8
 8004bb2:	68fa      	ldr	r2, [r7, #12]
 8004bb4:	4313      	orrs	r3, r2
 8004bb6:	60fb      	str	r3, [r7, #12]
 8004bb8:	697b      	ldr	r3, [r7, #20]
 8004bba:	f423 5300 	bic.w	r3, r3, #8192	@ 0x2000
 8004bbe:	617b      	str	r3, [r7, #20]
 8004bc0:	683b      	ldr	r3, [r7, #0]
 8004bc2:	689b      	ldr	r3, [r3, #8]
 8004bc4:	031b      	lsls	r3, r3, #12
 8004bc6:	697a      	ldr	r2, [r7, #20]
 8004bc8:	4313      	orrs	r3, r2
 8004bca:	617b      	str	r3, [r7, #20]
 8004bcc:	687b      	ldr	r3, [r7, #4]
 8004bce:	4a28      	ldr	r2, [pc, #160]	@ (8004c70 <TIM_OC4_SetConfig+0x100>)
 8004bd0:	4293      	cmp	r3, r2
 8004bd2:	d003      	beq.n	8004bdc <TIM_OC4_SetConfig+0x6c>
 8004bd4:	687b      	ldr	r3, [r7, #4]
 8004bd6:	4a27      	ldr	r2, [pc, #156]	@ (8004c74 <TIM_OC4_SetConfig+0x104>)
 8004bd8:	4293      	cmp	r3, r2
 8004bda:	d10d      	bne.n	8004bf8 <TIM_OC4_SetConfig+0x88>
 8004bdc:	697b      	ldr	r3, [r7, #20]
 8004bde:	f423 4300 	bic.w	r3, r3, #32768	@ 0x8000
 8004be2:	617b      	str	r3, [r7, #20]
 8004be4:	683b      	ldr	r3, [r7, #0]
 8004be6:	68db      	ldr	r3, [r3, #12]
 8004be8:	031b      	lsls	r3, r3, #12
 8004bea:	697a      	ldr	r2, [r7, #20]
 8004bec:	4313      	orrs	r3, r2
 8004bee:	617b      	str	r3, [r7, #20]
 8004bf0:	697b      	ldr	r3, [r7, #20]
 8004bf2:	f423 4380 	bic.w	r3, r3, #16384	@ 0x4000
 8004bf6:	617b      	str	r3, [r7, #20]
 8004bf8:	687b      	ldr	r3, [r7, #4]
 8004bfa:	4a1d      	ldr	r2, [pc, #116]	@ (8004c70 <TIM_OC4_SetConfig+0x100>)
 8004bfc:	4293      	cmp	r3, r2
 8004bfe:	d00f      	beq.n	8004c20 <TIM_OC4_SetConfig+0xb0>
 8004c00:	687b      	ldr	r3, [r7, #4]
 8004c02:	4a1c      	ldr	r2, [pc, #112]	@ (8004c74 <TIM_OC4_SetConfig+0x104>)
 8004c04:	4293      	cmp	r3, r2
 8004c06:	d00b      	beq.n	8004c20 <TIM_OC4_SetConfig+0xb0>
 8004c08:	687b      	ldr	r3, [r7, #4]
 8004c0a:	4a1b      	ldr	r2, [pc, #108]	@ (8004c78 <TIM_OC4_SetConfig+0x108>)
 8004c0c:	4293      	cmp	r3, r2
 8004c0e:	d007      	beq.n	8004c20 <TIM_OC4_SetConfig+0xb0>
 8004c10:	687b      	ldr	r3, [r7, #4]
 8004c12:	4a1a      	ldr	r2, [pc, #104]	@ (8004c7c <TIM_OC4_SetConfig+0x10c>)
 8004c14:	4293      	cmp	r3, r2
 8004c16:	d003      	beq.n	8004c20 <TIM_OC4_SetConfig+0xb0>
 8004c18:	687b      	ldr	r3, [r7, #4]
 8004c1a:	4a19      	ldr	r2, [pc, #100]	@ (8004c80 <TIM_OC4_SetConfig+0x110>)
 8004c1c:	4293      	cmp	r3, r2
 8004c1e:	d113      	bne.n	8004c48 <TIM_OC4_SetConfig+0xd8>
 8004c20:	693b      	ldr	r3, [r7, #16]
 8004c22:	f423 4380 	bic.w	r3, r3, #16384	@ 0x4000
 8004c26:	613b      	str	r3, [r7, #16]
 8004c28:	693b      	ldr	r3, [r7, #16]
 8004c2a:	f423 4300 	bic.w	r3, r3, #32768	@ 0x8000
 8004c2e:	613b      	str	r3, [r7, #16]
 8004c30:	683b      	ldr	r3, [r7, #0]
 8004c32:	695b      	ldr	r3, [r3, #20]
 8004c34:	019b      	lsls	r3, r3, #6
 8004c36:	693a      	ldr	r2, [r7, #16]
 8004c38:	4313      	orrs	r3, r2
 8004c3a:	613b      	str	r3, [r7, #16]
 8004c3c:	683b      	ldr	r3, [r7, #0]
 8004c3e:	699b      	ldr	r3, [r3, #24]
 8004c40:	019b      	lsls	r3, r3, #6
 8004c42:	693a      	ldr	r2, [r7, #16]
 8004c44:	4313      	orrs	r3, r2
 8004c46:	613b      	str	r3, [r7, #16]
 8004c48:	687b      	ldr	r3, [r7, #4]
 8004c4a:	693a      	ldr	r2, [r7, #16]
 8004c4c:	605a      	str	r2, [r3, #4]
 8004c4e:	687b      	ldr	r3, [r7, #4]
 8004c50:	68fa      	ldr	r2, [r7, #12]
 8004c52:	61da      	str	r2, [r3, #28]
 8004c54:	683b      	ldr	r3, [r7, #0]
 8004c56:	685a      	ldr	r2, [r3, #4]
 8004c58:	687b      	ldr	r3, [r7, #4]
 8004c5a:	641a      	str	r2, [r3, #64]	@ 0x40
 8004c5c:	687b      	ldr	r3, [r7, #4]
 8004c5e:	697a      	ldr	r2, [r7, #20]
 8004c60:	621a      	str	r2, [r3, #32]
 8004c62:	bf00      	nop
 8004c64:	371c      	adds	r7, #28
 8004c66:	46bd      	mov	sp, r7
 8004c68:	f85d 7b04 	ldr.w	r7, [sp], #4
 8004c6c:	4770      	bx	lr
 8004c6e:	bf00      	nop
 8004c70:	40012c00 	.word	0x40012c00
 8004c74:	40013400 	.word	0x40013400
 8004c78:	40014000 	.word	0x40014000
 8004c7c:	40014400 	.word	0x40014400
 8004c80:	40014800 	.word	0x40014800

08004c84 <TIM_OC5_SetConfig>:
 8004c84:	b480      	push	{r7}
 8004c86:	b087      	sub	sp, #28
 8004c88:	af00      	add	r7, sp, #0
 8004c8a:	6078      	str	r0, [r7, #4]
 8004c8c:	6039      	str	r1, [r7, #0]
 8004c8e:	687b      	ldr	r3, [r7, #4]
 8004c90:	6a1b      	ldr	r3, [r3, #32]
 8004c92:	613b      	str	r3, [r7, #16]
 8004c94:	687b      	ldr	r3, [r7, #4]
 8004c96:	6a1b      	ldr	r3, [r3, #32]
 8004c98:	f423 3280 	bic.w	r2, r3, #65536	@ 0x10000
 8004c9c:	687b      	ldr	r3, [r7, #4]
 8004c9e:	621a      	str	r2, [r3, #32]
 8004ca0:	687b      	ldr	r3, [r7, #4]
 8004ca2:	685b      	ldr	r3, [r3, #4]
 8004ca4:	617b      	str	r3, [r7, #20]
 8004ca6:	687b      	ldr	r3, [r7, #4]
 8004ca8:	6d1b      	ldr	r3, [r3, #80]	@ 0x50
 8004caa:	60fb      	str	r3, [r7, #12]
 8004cac:	68fb      	ldr	r3, [r7, #12]
 8004cae:	f423 3380 	bic.w	r3, r3, #65536	@ 0x10000
 8004cb2:	f023 0370 	bic.w	r3, r3, #112	@ 0x70
 8004cb6:	60fb      	str	r3, [r7, #12]
 8004cb8:	683b      	ldr	r3, [r7, #0]
 8004cba:	681b      	ldr	r3, [r3, #0]
 8004cbc:	68fa      	ldr	r2, [r7, #12]
 8004cbe:	4313      	orrs	r3, r2
 8004cc0:	60fb      	str	r3, [r7, #12]
 8004cc2:	693b      	ldr	r3, [r7, #16]
 8004cc4:	f423 3300 	bic.w	r3, r3, #131072	@ 0x20000
 8004cc8:	613b      	str	r3, [r7, #16]
 8004cca:	683b      	ldr	r3, [r7, #0]
 8004ccc:	689b      	ldr	r3, [r3, #8]
 8004cce:	041b      	lsls	r3, r3, #16
 8004cd0:	693a      	ldr	r2, [r7, #16]
 8004cd2:	4313      	orrs	r3, r2
 8004cd4:	613b      	str	r3, [r7, #16]
 8004cd6:	687b      	ldr	r3, [r7, #4]
 8004cd8:	4a17      	ldr	r2, [pc, #92]	@ (8004d38 <TIM_OC5_SetConfig+0xb4>)
 8004cda:	4293      	cmp	r3, r2
 8004cdc:	d00f      	beq.n	8004cfe <TIM_OC5_SetConfig+0x7a>
 8004cde:	687b      	ldr	r3, [r7, #4]
 8004ce0:	4a16      	ldr	r2, [pc, #88]	@ (8004d3c <TIM_OC5_SetConfig+0xb8>)
 8004ce2:	4293      	cmp	r3, r2
 8004ce4:	d00b      	beq.n	8004cfe <TIM_OC5_SetConfig+0x7a>
 8004ce6:	687b      	ldr	r3, [r7, #4]
 8004ce8:	4a15      	ldr	r2, [pc, #84]	@ (8004d40 <TIM_OC5_SetConfig+0xbc>)
 8004cea:	4293      	cmp	r3, r2
 8004cec:	d007      	beq.n	8004cfe <TIM_OC5_SetConfig+0x7a>
 8004cee:	687b      	ldr	r3, [r7, #4]
 8004cf0:	4a14      	ldr	r2, [pc, #80]	@ (8004d44 <TIM_OC5_SetConfig+0xc0>)
 8004cf2:	4293      	cmp	r3, r2
 8004cf4:	d003      	beq.n	8004cfe <TIM_OC5_SetConfig+0x7a>
 8004cf6:	687b      	ldr	r3, [r7, #4]
 8004cf8:	4a13      	ldr	r2, [pc, #76]	@ (8004d48 <TIM_OC5_SetConfig+0xc4>)
 8004cfa:	4293      	cmp	r3, r2
 8004cfc:	d109      	bne.n	8004d12 <TIM_OC5_SetConfig+0x8e>
 8004cfe:	697b      	ldr	r3, [r7, #20]
 8004d00:	f423 3380 	bic.w	r3, r3, #65536	@ 0x10000
 8004d04:	617b      	str	r3, [r7, #20]
 8004d06:	683b      	ldr	r3, [r7, #0]
 8004d08:	695b      	ldr	r3, [r3, #20]
 8004d0a:	021b      	lsls	r3, r3, #8
 8004d0c:	697a      	ldr	r2, [r7, #20]
 8004d0e:	4313      	orrs	r3, r2
 8004d10:	617b      	str	r3, [r7, #20]
 8004d12:	687b      	ldr	r3, [r7, #4]
 8004d14:	697a      	ldr	r2, [r7, #20]
 8004d16:	605a      	str	r2, [r3, #4]
 8004d18:	687b      	ldr	r3, [r7, #4]
 8004d1a:	68fa      	ldr	r2, [r7, #12]
 8004d1c:	651a      	str	r2, [r3, #80]	@ 0x50
 8004d1e:	683b      	ldr	r3, [r7, #0]
 8004d20:	685a      	ldr	r2, [r3, #4]
 8004d22:	687b      	ldr	r3, [r7, #4]
 8004d24:	649a      	str	r2, [r3, #72]	@ 0x48
 8004d26:	687b      	ldr	r3, [r7, #4]
 8004d28:	693a      	ldr	r2, [r7, #16]
 8004d2a:	621a      	str	r2, [r3, #32]
 8004d2c:	bf00      	nop
 8004d2e:	371c      	adds	r7, #28
 8004d30:	46bd      	mov	sp, r7
 8004d32:	f85d 7b04 	ldr.w	r7, [sp], #4
 8004d36:	4770      	bx	lr
 8004d38:	40012c00 	.word	0x40012c00
 8004d3c:	40013400 	.word	0x40013400
 8004d40:	40014000 	.word	0x40014000
 8004d44:	40014400 	.word	0x40014400
 8004d48:	40014800 	.word	0x40014800

08004d4c <TIM_OC6_SetConfig>:
 8004d4c:	b480      	push	{r7}
 8004d4e:	b087      	sub	sp, #28
 8004d50:	af00      	add	r7, sp, #0
 8004d52:	6078      	str	r0, [r7, #4]
 8004d54:	6039      	str	r1, [r7, #0]
 8004d56:	687b      	ldr	r3, [r7, #4]
 8004d58:	6a1b      	ldr	r3, [r3, #32]
 8004d5a:	613b      	str	r3, [r7, #16]
 8004d5c:	687b      	ldr	r3, [r7, #4]
 8004d5e:	6a1b      	ldr	r3, [r3, #32]
 8004d60:	f423 1280 	bic.w	r2, r3, #1048576	@ 0x100000
 8004d64:	687b      	ldr	r3, [r7, #4]
 8004d66:	621a      	str	r2, [r3, #32]
 8004d68:	687b      	ldr	r3, [r7, #4]
 8004d6a:	685b      	ldr	r3, [r3, #4]
 8004d6c:	617b      	str	r3, [r7, #20]
 8004d6e:	687b      	ldr	r3, [r7, #4]
 8004d70:	6d1b      	ldr	r3, [r3, #80]	@ 0x50
 8004d72:	60fb      	str	r3, [r7, #12]
 8004d74:	68fb      	ldr	r3, [r7, #12]
 8004d76:	f023 7380 	bic.w	r3, r3, #16777216	@ 0x1000000
 8004d7a:	f423 43e0 	bic.w	r3, r3, #28672	@ 0x7000
 8004d7e:	60fb      	str	r3, [r7, #12]
 8004d80:	683b      	ldr	r3, [r7, #0]
 8004d82:	681b      	ldr	r3, [r3, #0]
 8004d84:	021b      	lsls	r3, r3, #8
 8004d86:	68fa      	ldr	r2, [r7, #12]
 8004d88:	4313      	orrs	r3, r2
 8004d8a:	60fb      	str	r3, [r7, #12]
 8004d8c:	693b      	ldr	r3, [r7, #16]
 8004d8e:	f423 1300 	bic.w	r3, r3, #2097152	@ 0x200000
 8004d92:	613b      	str	r3, [r7, #16]
 8004d94:	683b      	ldr	r3, [r7, #0]
 8004d96:	689b      	ldr	r3, [r3, #8]
 8004d98:	051b      	lsls	r3, r3, #20
 8004d9a:	693a      	ldr	r2, [r7, #16]
 8004d9c:	4313      	orrs	r3, r2
 8004d9e:	613b      	str	r3, [r7, #16]
 8004da0:	687b      	ldr	r3, [r7, #4]
 8004da2:	4a18      	ldr	r2, [pc, #96]	@ (8004e04 <TIM_OC6_SetConfig+0xb8>)
 8004da4:	4293      	cmp	r3, r2
 8004da6:	d00f      	beq.n	8004dc8 <TIM_OC6_SetConfig+0x7c>
 8004da8:	687b      	ldr	r3, [r7, #4]
 8004daa:	4a17      	ldr	r2, [pc, #92]	@ (8004e08 <TIM_OC6_SetConfig+0xbc>)
 8004dac:	4293      	cmp	r3, r2
 8004dae:	d00b      	beq.n	8004dc8 <TIM_OC6_SetConfig+0x7c>
 8004db0:	687b      	ldr	r3, [r7, #4]
 8004db2:	4a16      	ldr	r2, [pc, #88]	@ (8004e0c <TIM_OC6_SetConfig+0xc0>)
 8004db4:	4293      	cmp	r3, r2
 8004db6:	d007      	beq.n	8004dc8 <TIM_OC6_SetConfig+0x7c>
 8004db8:	687b      	ldr	r3, [r7, #4]
 8004dba:	4a15      	ldr	r2, [pc, #84]	@ (8004e10 <TIM_OC6_SetConfig+0xc4>)
 8004dbc:	4293      	cmp	r3, r2
 8004dbe:	d003      	beq.n	8004dc8 <TIM_OC6_SetConfig+0x7c>
 8004dc0:	687b      	ldr	r3, [r7, #4]
 8004dc2:	4a14      	ldr	r2, [pc, #80]	@ (8004e14 <TIM_OC6_SetConfig+0xc8>)
 8004dc4:	4293      	cmp	r3, r2
 8004dc6:	d109      	bne.n	8004ddc <TIM_OC6_SetConfig+0x90>
 8004dc8:	697b      	ldr	r3, [r7, #20]
 8004dca:	f423 2380 	bic.w	r3, r3, #262144	@ 0x40000
 8004dce:	617b      	str	r3, [r7, #20]
 8004dd0:	683b      	ldr	r3, [r7, #0]
 8004dd2:	695b      	ldr	r3, [r3, #20]
 8004dd4:	029b      	lsls	r3, r3, #10
 8004dd6:	697a      	ldr	r2, [r7, #20]
 8004dd8:	4313      	orrs	r3, r2
 8004dda:	617b      	str	r3, [r7, #20]
 8004ddc:	687b      	ldr	r3, [r7, #4]
 8004dde:	697a      	ldr	r2, [r7, #20]
 8004de0:	605a      	str	r2, [r3, #4]
 8004de2:	687b      	ldr	r3, [r7, #4]
 8004de4:	68fa      	ldr	r2, [r7, #12]
 8004de6:	651a      	str	r2, [r3, #80]	@ 0x50
 8004de8:	683b      	ldr	r3, [r7, #0]
 8004dea:	685a      	ldr	r2, [r3, #4]
 8004dec:	687b      	ldr	r3, [r7, #4]
 8004dee:	64da      	str	r2, [r3, #76]	@ 0x4c
 8004df0:	687b      	ldr	r3, [r7, #4]
 8004df2:	693a      	ldr	r2, [r7, #16]
 8004df4:	621a      	str	r2, [r3, #32]
 8004df6:	bf00      	nop
 8004df8:	371c      	adds	r7, #28
 8004dfa:	46bd      	mov	sp, r7
 8004dfc:	f85d 7b04 	ldr.w	r7, [sp], #4
 8004e00:	4770      	bx	lr
 8004e02:	bf00      	nop
 8004e04:	40012c00 	.word	0x40012c00
 8004e08:	40013400 	.word	0x40013400
 8004e0c:	40014000 	.word	0x40014000
 8004e10:	40014400 	.word	0x40014400
 8004e14:	40014800 	.word	0x40014800

08004e18 <TIM_TI1_ConfigInputStage>:
 8004e18:	b480      	push	{r7}
 8004e1a:	b087      	sub	sp, #28
 8004e1c:	af00      	add	r7, sp, #0
 8004e1e:	60f8      	str	r0, [r7, #12]
 8004e20:	60b9      	str	r1, [r7, #8]
 8004e22:	607a      	str	r2, [r7, #4]
 8004e24:	68fb      	ldr	r3, [r7, #12]
 8004e26:	6a1b      	ldr	r3, [r3, #32]
 8004e28:	617b      	str	r3, [r7, #20]
 8004e2a:	68fb      	ldr	r3, [r7, #12]
 8004e2c:	6a1b      	ldr	r3, [r3, #32]
 8004e2e:	f023 0201 	bic.w	r2, r3, #1
 8004e32:	68fb      	ldr	r3, [r7, #12]
 8004e34:	621a      	str	r2, [r3, #32]
 8004e36:	68fb      	ldr	r3, [r7, #12]
 8004e38:	699b      	ldr	r3, [r3, #24]
 8004e3a:	613b      	str	r3, [r7, #16]
 8004e3c:	693b      	ldr	r3, [r7, #16]
 8004e3e:	f023 03f0 	bic.w	r3, r3, #240	@ 0xf0
 8004e42:	613b      	str	r3, [r7, #16]
 8004e44:	687b      	ldr	r3, [r7, #4]
 8004e46:	011b      	lsls	r3, r3, #4
 8004e48:	693a      	ldr	r2, [r7, #16]
 8004e4a:	4313      	orrs	r3, r2
 8004e4c:	613b      	str	r3, [r7, #16]
 8004e4e:	697b      	ldr	r3, [r7, #20]
 8004e50:	f023 030a 	bic.w	r3, r3, #10
 8004e54:	617b      	str	r3, [r7, #20]
 8004e56:	697a      	ldr	r2, [r7, #20]
 8004e58:	68bb      	ldr	r3, [r7, #8]
 8004e5a:	4313      	orrs	r3, r2
 8004e5c:	617b      	str	r3, [r7, #20]
 8004e5e:	68fb      	ldr	r3, [r7, #12]
 8004e60:	693a      	ldr	r2, [r7, #16]
 8004e62:	619a      	str	r2, [r3, #24]
 8004e64:	68fb      	ldr	r3, [r7, #12]
 8004e66:	697a      	ldr	r2, [r7, #20]
 8004e68:	621a      	str	r2, [r3, #32]
 8004e6a:	bf00      	nop
 8004e6c:	371c      	adds	r7, #28
 8004e6e:	46bd      	mov	sp, r7
 8004e70:	f85d 7b04 	ldr.w	r7, [sp], #4
 8004e74:	4770      	bx	lr

08004e76 <TIM_TI2_ConfigInputStage>:
 8004e76:	b480      	push	{r7}
 8004e78:	b087      	sub	sp, #28
 8004e7a:	af00      	add	r7, sp, #0
 8004e7c:	60f8      	str	r0, [r7, #12]
 8004e7e:	60b9      	str	r1, [r7, #8]
 8004e80:	607a      	str	r2, [r7, #4]
 8004e82:	68fb      	ldr	r3, [r7, #12]
 8004e84:	6a1b      	ldr	r3, [r3, #32]
 8004e86:	617b      	str	r3, [r7, #20]
 8004e88:	68fb      	ldr	r3, [r7, #12]
 8004e8a:	6a1b      	ldr	r3, [r3, #32]
 8004e8c:	f023 0210 	bic.w	r2, r3, #16
 8004e90:	68fb      	ldr	r3, [r7, #12]
 8004e92:	621a      	str	r2, [r3, #32]
 8004e94:	68fb      	ldr	r3, [r7, #12]
 8004e96:	699b      	ldr	r3, [r3, #24]
 8004e98:	613b      	str	r3, [r7, #16]
 8004e9a:	693b      	ldr	r3, [r7, #16]
 8004e9c:	f423 4370 	bic.w	r3, r3, #61440	@ 0xf000
 8004ea0:	613b      	str	r3, [r7, #16]
 8004ea2:	687b      	ldr	r3, [r7, #4]
 8004ea4:	031b      	lsls	r3, r3, #12
 8004ea6:	693a      	ldr	r2, [r7, #16]
 8004ea8:	4313      	orrs	r3, r2
 8004eaa:	613b      	str	r3, [r7, #16]
 8004eac:	697b      	ldr	r3, [r7, #20]
 8004eae:	f023 03a0 	bic.w	r3, r3, #160	@ 0xa0
 8004eb2:	617b      	str	r3, [r7, #20]
 8004eb4:	68bb      	ldr	r3, [r7, #8]
 8004eb6:	011b      	lsls	r3, r3, #4
 8004eb8:	697a      	ldr	r2, [r7, #20]
 8004eba:	4313      	orrs	r3, r2
 8004ebc:	617b      	str	r3, [r7, #20]
 8004ebe:	68fb      	ldr	r3, [r7, #12]
 8004ec0:	693a      	ldr	r2, [r7, #16]
 8004ec2:	619a      	str	r2, [r3, #24]
 8004ec4:	68fb      	ldr	r3, [r7, #12]
 8004ec6:	697a      	ldr	r2, [r7, #20]
 8004ec8:	621a      	str	r2, [r3, #32]
 8004eca:	bf00      	nop
 8004ecc:	371c      	adds	r7, #28
 8004ece:	46bd      	mov	sp, r7
 8004ed0:	f85d 7b04 	ldr.w	r7, [sp], #4
 8004ed4:	4770      	bx	lr

08004ed6 <TIM_ITRx_SetConfig>:
 8004ed6:	b480      	push	{r7}
 8004ed8:	b085      	sub	sp, #20
 8004eda:	af00      	add	r7, sp, #0
 8004edc:	6078      	str	r0, [r7, #4]
 8004ede:	6039      	str	r1, [r7, #0]
 8004ee0:	687b      	ldr	r3, [r7, #4]
 8004ee2:	689b      	ldr	r3, [r3, #8]
 8004ee4:	60fb      	str	r3, [r7, #12]
 8004ee6:	68fb      	ldr	r3, [r7, #12]
 8004ee8:	f423 1340 	bic.w	r3, r3, #3145728	@ 0x300000
 8004eec:	f023 0370 	bic.w	r3, r3, #112	@ 0x70
 8004ef0:	60fb      	str	r3, [r7, #12]
 8004ef2:	683a      	ldr	r2, [r7, #0]
 8004ef4:	68fb      	ldr	r3, [r7, #12]
 8004ef6:	4313      	orrs	r3, r2
 8004ef8:	f043 0307 	orr.w	r3, r3, #7
 8004efc:	60fb      	str	r3, [r7, #12]
 8004efe:	687b      	ldr	r3, [r7, #4]
 8004f00:	68fa      	ldr	r2, [r7, #12]
 8004f02:	609a      	str	r2, [r3, #8]
 8004f04:	bf00      	nop
 8004f06:	3714      	adds	r7, #20
 8004f08:	46bd      	mov	sp, r7
 8004f0a:	f85d 7b04 	ldr.w	r7, [sp], #4
 8004f0e:	4770      	bx	lr

08004f10 <TIM_ETR_SetConfig>:
 8004f10:	b480      	push	{r7}
 8004f12:	b087      	sub	sp, #28
 8004f14:	af00      	add	r7, sp, #0
 8004f16:	60f8      	str	r0, [r7, #12]
 8004f18:	60b9      	str	r1, [r7, #8]
 8004f1a:	607a      	str	r2, [r7, #4]
 8004f1c:	603b      	str	r3, [r7, #0]
 8004f1e:	68fb      	ldr	r3, [r7, #12]
 8004f20:	689b      	ldr	r3, [r3, #8]
 8004f22:	617b      	str	r3, [r7, #20]
 8004f24:	697b      	ldr	r3, [r7, #20]
 8004f26:	f423 437f 	bic.w	r3, r3, #65280	@ 0xff00
 8004f2a:	617b      	str	r3, [r7, #20]
 8004f2c:	683b      	ldr	r3, [r7, #0]
 8004f2e:	021a      	lsls	r2, r3, #8
 8004f30:	687b      	ldr	r3, [r7, #4]
 8004f32:	431a      	orrs	r2, r3
 8004f34:	68bb      	ldr	r3, [r7, #8]
 8004f36:	4313      	orrs	r3, r2
 8004f38:	697a      	ldr	r2, [r7, #20]
 8004f3a:	4313      	orrs	r3, r2
 8004f3c:	617b      	str	r3, [r7, #20]
 8004f3e:	68fb      	ldr	r3, [r7, #12]
 8004f40:	697a      	ldr	r2, [r7, #20]
 8004f42:	609a      	str	r2, [r3, #8]
 8004f44:	bf00      	nop
 8004f46:	371c      	adds	r7, #28
 8004f48:	46bd      	mov	sp, r7
 8004f4a:	f85d 7b04 	ldr.w	r7, [sp], #4
 8004f4e:	4770      	bx	lr

08004f50 <TIM_CCxChannelCmd>:
 8004f50:	b480      	push	{r7}
 8004f52:	b087      	sub	sp, #28
 8004f54:	af00      	add	r7, sp, #0
 8004f56:	60f8      	str	r0, [r7, #12]
 8004f58:	60b9      	str	r1, [r7, #8]
 8004f5a:	607a      	str	r2, [r7, #4]
 8004f5c:	68bb      	ldr	r3, [r7, #8]
 8004f5e:	f003 031f 	and.w	r3, r3, #31
 8004f62:	2201      	movs	r2, #1
 8004f64:	fa02 f303 	lsl.w	r3, r2, r3
 8004f68:	617b      	str	r3, [r7, #20]
 8004f6a:	68fb      	ldr	r3, [r7, #12]
 8004f6c:	6a1a      	ldr	r2, [r3, #32]
 8004f6e:	697b      	ldr	r3, [r7, #20]
 8004f70:	43db      	mvns	r3, r3
 8004f72:	401a      	ands	r2, r3
 8004f74:	68fb      	ldr	r3, [r7, #12]
 8004f76:	621a      	str	r2, [r3, #32]
 8004f78:	68fb      	ldr	r3, [r7, #12]
 8004f7a:	6a1a      	ldr	r2, [r3, #32]
 8004f7c:	68bb      	ldr	r3, [r7, #8]
 8004f7e:	f003 031f 	and.w	r3, r3, #31
 8004f82:	6879      	ldr	r1, [r7, #4]
 8004f84:	fa01 f303 	lsl.w	r3, r1, r3
 8004f88:	431a      	orrs	r2, r3
 8004f8a:	68fb      	ldr	r3, [r7, #12]
 8004f8c:	621a      	str	r2, [r3, #32]
 8004f8e:	bf00      	nop
 8004f90:	371c      	adds	r7, #28
 8004f92:	46bd      	mov	sp, r7
 8004f94:	f85d 7b04 	ldr.w	r7, [sp], #4
 8004f98:	4770      	bx	lr
	...

08004f9c <HAL_TIMEx_MasterConfigSynchronization>:
 8004f9c:	b480      	push	{r7}
 8004f9e:	b085      	sub	sp, #20
 8004fa0:	af00      	add	r7, sp, #0
 8004fa2:	6078      	str	r0, [r7, #4]
 8004fa4:	6039      	str	r1, [r7, #0]
 8004fa6:	687b      	ldr	r3, [r7, #4]
 8004fa8:	f893 303c 	ldrb.w	r3, [r3, #60]	@ 0x3c
 8004fac:	2b01      	cmp	r3, #1
 8004fae:	d101      	bne.n	8004fb4 <HAL_TIMEx_MasterConfigSynchronization+0x18>
 8004fb0:	2302      	movs	r3, #2
 8004fb2:	e065      	b.n	8005080 <HAL_TIMEx_MasterConfigSynchronization+0xe4>
 8004fb4:	687b      	ldr	r3, [r7, #4]
 8004fb6:	2201      	movs	r2, #1
 8004fb8:	f883 203c 	strb.w	r2, [r3, #60]	@ 0x3c
 8004fbc:	687b      	ldr	r3, [r7, #4]
 8004fbe:	2202      	movs	r2, #2
 8004fc0:	f883 203d 	strb.w	r2, [r3, #61]	@ 0x3d
 8004fc4:	687b      	ldr	r3, [r7, #4]
 8004fc6:	681b      	ldr	r3, [r3, #0]
 8004fc8:	685b      	ldr	r3, [r3, #4]
 8004fca:	60fb      	str	r3, [r7, #12]
 8004fcc:	687b      	ldr	r3, [r7, #4]
 8004fce:	681b      	ldr	r3, [r3, #0]
 8004fd0:	689b      	ldr	r3, [r3, #8]
 8004fd2:	60bb      	str	r3, [r7, #8]
 8004fd4:	687b      	ldr	r3, [r7, #4]
 8004fd6:	681b      	ldr	r3, [r3, #0]
 8004fd8:	4a2c      	ldr	r2, [pc, #176]	@ (800508c <HAL_TIMEx_MasterConfigSynchronization+0xf0>)
 8004fda:	4293      	cmp	r3, r2
 8004fdc:	d004      	beq.n	8004fe8 <HAL_TIMEx_MasterConfigSynchronization+0x4c>
 8004fde:	687b      	ldr	r3, [r7, #4]
 8004fe0:	681b      	ldr	r3, [r3, #0]
 8004fe2:	4a2b      	ldr	r2, [pc, #172]	@ (8005090 <HAL_TIMEx_MasterConfigSynchronization+0xf4>)
 8004fe4:	4293      	cmp	r3, r2
 8004fe6:	d108      	bne.n	8004ffa <HAL_TIMEx_MasterConfigSynchronization+0x5e>
 8004fe8:	68fb      	ldr	r3, [r7, #12]
 8004fea:	f423 0370 	bic.w	r3, r3, #15728640	@ 0xf00000
 8004fee:	60fb      	str	r3, [r7, #12]
 8004ff0:	683b      	ldr	r3, [r7, #0]
 8004ff2:	685b      	ldr	r3, [r3, #4]
 8004ff4:	68fa      	ldr	r2, [r7, #12]
 8004ff6:	4313      	orrs	r3, r2
 8004ff8:	60fb      	str	r3, [r7, #12]
 8004ffa:	68fb      	ldr	r3, [r7, #12]
 8004ffc:	f023 7300 	bic.w	r3, r3, #33554432	@ 0x2000000
 8005000:	f023 0370 	bic.w	r3, r3, #112	@ 0x70
 8005004:	60fb      	str	r3, [r7, #12]
 8005006:	683b      	ldr	r3, [r7, #0]
 8005008:	681b      	ldr	r3, [r3, #0]
 800500a:	68fa      	ldr	r2, [r7, #12]
 800500c:	4313      	orrs	r3, r2
 800500e:	60fb      	str	r3, [r7, #12]
 8005010:	687b      	ldr	r3, [r7, #4]
 8005012:	681b      	ldr	r3, [r3, #0]
 8005014:	68fa      	ldr	r2, [r7, #12]
 8005016:	605a      	str	r2, [r3, #4]
 8005018:	687b      	ldr	r3, [r7, #4]
 800501a:	681b      	ldr	r3, [r3, #0]
 800501c:	4a1b      	ldr	r2, [pc, #108]	@ (800508c <HAL_TIMEx_MasterConfigSynchronization+0xf0>)
 800501e:	4293      	cmp	r3, r2
 8005020:	d018      	beq.n	8005054 <HAL_TIMEx_MasterConfigSynchronization+0xb8>
 8005022:	687b      	ldr	r3, [r7, #4]
 8005024:	681b      	ldr	r3, [r3, #0]
 8005026:	f1b3 4f80 	cmp.w	r3, #1073741824	@ 0x40000000
 800502a:	d013      	beq.n	8005054 <HAL_TIMEx_MasterConfigSynchronization+0xb8>
 800502c:	687b      	ldr	r3, [r7, #4]
 800502e:	681b      	ldr	r3, [r3, #0]
 8005030:	4a18      	ldr	r2, [pc, #96]	@ (8005094 <HAL_TIMEx_MasterConfigSynchronization+0xf8>)
 8005032:	4293      	cmp	r3, r2
 8005034:	d00e      	beq.n	8005054 <HAL_TIMEx_MasterConfigSynchronization+0xb8>
 8005036:	687b      	ldr	r3, [r7, #4]
 8005038:	681b      	ldr	r3, [r3, #0]
 800503a:	4a17      	ldr	r2, [pc, #92]	@ (8005098 <HAL_TIMEx_MasterConfigSynchronization+0xfc>)
 800503c:	4293      	cmp	r3, r2
 800503e:	d009      	beq.n	8005054 <HAL_TIMEx_MasterConfigSynchronization+0xb8>
 8005040:	687b      	ldr	r3, [r7, #4]
 8005042:	681b      	ldr	r3, [r3, #0]
 8005044:	4a12      	ldr	r2, [pc, #72]	@ (8005090 <HAL_TIMEx_MasterConfigSynchronization+0xf4>)
 8005046:	4293      	cmp	r3, r2
 8005048:	d004      	beq.n	8005054 <HAL_TIMEx_MasterConfigSynchronization+0xb8>
 800504a:	687b      	ldr	r3, [r7, #4]
 800504c:	681b      	ldr	r3, [r3, #0]
 800504e:	4a13      	ldr	r2, [pc, #76]	@ (800509c <HAL_TIMEx_MasterConfigSynchronization+0x100>)
 8005050:	4293      	cmp	r3, r2
 8005052:	d10c      	bne.n	800506e <HAL_TIMEx_MasterConfigSynchronization+0xd2>
 8005054:	68bb      	ldr	r3, [r7, #8]
 8005056:	f023 0380 	bic.w	r3, r3, #128	@ 0x80
 800505a:	60bb      	str	r3, [r7, #8]
 800505c:	683b      	ldr	r3, [r7, #0]
 800505e:	689b      	ldr	r3, [r3, #8]
 8005060:	68ba      	ldr	r2, [r7, #8]
 8005062:	4313      	orrs	r3, r2
 8005064:	60bb      	str	r3, [r7, #8]
 8005066:	687b      	ldr	r3, [r7, #4]
 8005068:	681b      	ldr	r3, [r3, #0]
 800506a:	68ba      	ldr	r2, [r7, #8]
 800506c:	609a      	str	r2, [r3, #8]
 800506e:	687b      	ldr	r3, [r7, #4]
 8005070:	2201      	movs	r2, #1
 8005072:	f883 203d 	strb.w	r2, [r3, #61]	@ 0x3d
 8005076:	687b      	ldr	r3, [r7, #4]
 8005078:	2200      	movs	r2, #0
 800507a:	f883 203c 	strb.w	r2, [r3, #60]	@ 0x3c
 800507e:	2300      	movs	r3, #0
 8005080:	4618      	mov	r0, r3
 8005082:	3714      	adds	r7, #20
 8005084:	46bd      	mov	sp, r7
 8005086:	f85d 7b04 	ldr.w	r7, [sp], #4
 800508a:	4770      	bx	lr
 800508c:	40012c00 	.word	0x40012c00
 8005090:	40013400 	.word	0x40013400
 8005094:	40000400 	.word	0x40000400
 8005098:	40000800 	.word	0x40000800
 800509c:	40014000 	.word	0x40014000

080050a0 <HAL_TIMEx_CommutCallback>:
 80050a0:	b480      	push	{r7}
 80050a2:	b083      	sub	sp, #12
 80050a4:	af00      	add	r7, sp, #0
 80050a6:	6078      	str	r0, [r7, #4]
 80050a8:	bf00      	nop
 80050aa:	370c      	adds	r7, #12
 80050ac:	46bd      	mov	sp, r7
 80050ae:	f85d 7b04 	ldr.w	r7, [sp], #4
 80050b2:	4770      	bx	lr

080050b4 <HAL_TIMEx_BreakCallback>:
 80050b4:	b480      	push	{r7}
 80050b6:	b083      	sub	sp, #12
 80050b8:	af00      	add	r7, sp, #0
 80050ba:	6078      	str	r0, [r7, #4]
 80050bc:	bf00      	nop
 80050be:	370c      	adds	r7, #12
 80050c0:	46bd      	mov	sp, r7
 80050c2:	f85d 7b04 	ldr.w	r7, [sp], #4
 80050c6:	4770      	bx	lr

080050c8 <HAL_TIMEx_Break2Callback>:
 80050c8:	b480      	push	{r7}
 80050ca:	b083      	sub	sp, #12
 80050cc:	af00      	add	r7, sp, #0
 80050ce:	6078      	str	r0, [r7, #4]
 80050d0:	bf00      	nop
 80050d2:	370c      	adds	r7, #12
 80050d4:	46bd      	mov	sp, r7
 80050d6:	f85d 7b04 	ldr.w	r7, [sp], #4
 80050da:	4770      	bx	lr

080050dc <HAL_TIMEx_EncoderIndexCallback>:
 80050dc:	b480      	push	{r7}
 80050de:	b083      	sub	sp, #12
 80050e0:	af00      	add	r7, sp, #0
 80050e2:	6078      	str	r0, [r7, #4]
 80050e4:	bf00      	nop
 80050e6:	370c      	adds	r7, #12
 80050e8:	46bd      	mov	sp, r7
 80050ea:	f85d 7b04 	ldr.w	r7, [sp], #4
 80050ee:	4770      	bx	lr

080050f0 <HAL_TIMEx_DirectionChangeCallback>:
 80050f0:	b480      	push	{r7}
 80050f2:	b083      	sub	sp, #12
 80050f4:	af00      	add	r7, sp, #0
 80050f6:	6078      	str	r0, [r7, #4]
 80050f8:	bf00      	nop
 80050fa:	370c      	adds	r7, #12
 80050fc:	46bd      	mov	sp, r7
 80050fe:	f85d 7b04 	ldr.w	r7, [sp], #4
 8005102:	4770      	bx	lr

08005104 <HAL_TIMEx_IndexErrorCallback>:
 8005104:	b480      	push	{r7}
 8005106:	b083      	sub	sp, #12
 8005108:	af00      	add	r7, sp, #0
 800510a:	6078      	str	r0, [r7, #4]
 800510c:	bf00      	nop
 800510e:	370c      	adds	r7, #12
 8005110:	46bd      	mov	sp, r7
 8005112:	f85d 7b04 	ldr.w	r7, [sp], #4
 8005116:	4770      	bx	lr

08005118 <HAL_TIMEx_TransitionErrorCallback>:
 8005118:	b480      	push	{r7}
 800511a:	b083      	sub	sp, #12
 800511c:	af00      	add	r7, sp, #0
 800511e:	6078      	str	r0, [r7, #4]
 8005120:	bf00      	nop
 8005122:	370c      	adds	r7, #12
 8005124:	46bd      	mov	sp, r7
 8005126:	f85d 7b04 	ldr.w	r7, [sp], #4
 800512a:	4770      	bx	lr

0800512c <HAL_UART_Init>:
 800512c:	b580      	push	{r7, lr}
 800512e:	b082      	sub	sp, #8
 8005130:	af00      	add	r7, sp, #0
 8005132:	6078      	str	r0, [r7, #4]
 8005134:	687b      	ldr	r3, [r7, #4]
 8005136:	2b00      	cmp	r3, #0
 8005138:	d101      	bne.n	800513e <HAL_UART_Init+0x12>
 800513a:	2301      	movs	r3, #1
 800513c:	e042      	b.n	80051c4 <HAL_UART_Init+0x98>
 800513e:	687b      	ldr	r3, [r7, #4]
 8005140:	f8d3 3088 	ldr.w	r3, [r3, #136]	@ 0x88
 8005144:	2b00      	cmp	r3, #0
 8005146:	d106      	bne.n	8005156 <HAL_UART_Init+0x2a>
 8005148:	687b      	ldr	r3, [r7, #4]
 800514a:	2200      	movs	r2, #0
 800514c:	f883 2084 	strb.w	r2, [r3, #132]	@ 0x84
 8005150:	6878      	ldr	r0, [r7, #4]
 8005152:	f7fb fe69 	bl	8000e28 <HAL_UART_MspInit>
 8005156:	687b      	ldr	r3, [r7, #4]
 8005158:	2224      	movs	r2, #36	@ 0x24
 800515a:	f8c3 2088 	str.w	r2, [r3, #136]	@ 0x88
 800515e:	687b      	ldr	r3, [r7, #4]
 8005160:	681b      	ldr	r3, [r3, #0]
 8005162:	681a      	ldr	r2, [r3, #0]
 8005164:	687b      	ldr	r3, [r7, #4]
 8005166:	681b      	ldr	r3, [r3, #0]
 8005168:	f022 0201 	bic.w	r2, r2, #1
 800516c:	601a      	str	r2, [r3, #0]
 800516e:	687b      	ldr	r3, [r7, #4]
 8005170:	6a9b      	ldr	r3, [r3, #40]	@ 0x28
 8005172:	2b00      	cmp	r3, #0
 8005174:	d002      	beq.n	800517c <HAL_UART_Init+0x50>
 8005176:	6878      	ldr	r0, [r7, #4]
 8005178:	f000 fb82 	bl	8005880 <UART_AdvFeatureConfig>
 800517c:	6878      	ldr	r0, [r7, #4]
 800517e:	f000 f8b3 	bl	80052e8 <UART_SetConfig>
 8005182:	4603      	mov	r3, r0
 8005184:	2b01      	cmp	r3, #1
 8005186:	d101      	bne.n	800518c <HAL_UART_Init+0x60>
 8005188:	2301      	movs	r3, #1
 800518a:	e01b      	b.n	80051c4 <HAL_UART_Init+0x98>
 800518c:	687b      	ldr	r3, [r7, #4]
 800518e:	681b      	ldr	r3, [r3, #0]
 8005190:	685a      	ldr	r2, [r3, #4]
 8005192:	687b      	ldr	r3, [r7, #4]
 8005194:	681b      	ldr	r3, [r3, #0]
 8005196:	f422 4290 	bic.w	r2, r2, #18432	@ 0x4800
 800519a:	605a      	str	r2, [r3, #4]
 800519c:	687b      	ldr	r3, [r7, #4]
 800519e:	681b      	ldr	r3, [r3, #0]
 80051a0:	689a      	ldr	r2, [r3, #8]
 80051a2:	687b      	ldr	r3, [r7, #4]
 80051a4:	681b      	ldr	r3, [r3, #0]
 80051a6:	f022 022a 	bic.w	r2, r2, #42	@ 0x2a
 80051aa:	609a      	str	r2, [r3, #8]
 80051ac:	687b      	ldr	r3, [r7, #4]
 80051ae:	681b      	ldr	r3, [r3, #0]
 80051b0:	681a      	ldr	r2, [r3, #0]
 80051b2:	687b      	ldr	r3, [r7, #4]
 80051b4:	681b      	ldr	r3, [r3, #0]
 80051b6:	f042 0201 	orr.w	r2, r2, #1
 80051ba:	601a      	str	r2, [r3, #0]
 80051bc:	6878      	ldr	r0, [r7, #4]
 80051be:	f000 fc01 	bl	80059c4 <UART_CheckIdleState>
 80051c2:	4603      	mov	r3, r0
 80051c4:	4618      	mov	r0, r3
 80051c6:	3708      	adds	r7, #8
 80051c8:	46bd      	mov	sp, r7
 80051ca:	bd80      	pop	{r7, pc}

080051cc <HAL_UART_Transmit>:
 80051cc:	b580      	push	{r7, lr}
 80051ce:	b08a      	sub	sp, #40	@ 0x28
 80051d0:	af02      	add	r7, sp, #8
 80051d2:	60f8      	str	r0, [r7, #12]
 80051d4:	60b9      	str	r1, [r7, #8]
 80051d6:	603b      	str	r3, [r7, #0]
 80051d8:	4613      	mov	r3, r2
 80051da:	80fb      	strh	r3, [r7, #6]
 80051dc:	68fb      	ldr	r3, [r7, #12]
 80051de:	f8d3 3088 	ldr.w	r3, [r3, #136]	@ 0x88
 80051e2:	2b20      	cmp	r3, #32
 80051e4:	d17b      	bne.n	80052de <HAL_UART_Transmit+0x112>
 80051e6:	68bb      	ldr	r3, [r7, #8]
 80051e8:	2b00      	cmp	r3, #0
 80051ea:	d002      	beq.n	80051f2 <HAL_UART_Transmit+0x26>
 80051ec:	88fb      	ldrh	r3, [r7, #6]
 80051ee:	2b00      	cmp	r3, #0
 80051f0:	d101      	bne.n	80051f6 <HAL_UART_Transmit+0x2a>
 80051f2:	2301      	movs	r3, #1
 80051f4:	e074      	b.n	80052e0 <HAL_UART_Transmit+0x114>
 80051f6:	68fb      	ldr	r3, [r7, #12]
 80051f8:	2200      	movs	r2, #0
 80051fa:	f8c3 2090 	str.w	r2, [r3, #144]	@ 0x90
 80051fe:	68fb      	ldr	r3, [r7, #12]
 8005200:	2221      	movs	r2, #33	@ 0x21
 8005202:	f8c3 2088 	str.w	r2, [r3, #136]	@ 0x88
 8005206:	f7fb fef5 	bl	8000ff4 <HAL_GetTick>
 800520a:	6178      	str	r0, [r7, #20]
 800520c:	68fb      	ldr	r3, [r7, #12]
 800520e:	88fa      	ldrh	r2, [r7, #6]
 8005210:	f8a3 2054 	strh.w	r2, [r3, #84]	@ 0x54
 8005214:	68fb      	ldr	r3, [r7, #12]
 8005216:	88fa      	ldrh	r2, [r7, #6]
 8005218:	f8a3 2056 	strh.w	r2, [r3, #86]	@ 0x56
 800521c:	68fb      	ldr	r3, [r7, #12]
 800521e:	689b      	ldr	r3, [r3, #8]
 8005220:	f5b3 5f80 	cmp.w	r3, #4096	@ 0x1000
 8005224:	d108      	bne.n	8005238 <HAL_UART_Transmit+0x6c>
 8005226:	68fb      	ldr	r3, [r7, #12]
 8005228:	691b      	ldr	r3, [r3, #16]
 800522a:	2b00      	cmp	r3, #0
 800522c:	d104      	bne.n	8005238 <HAL_UART_Transmit+0x6c>
 800522e:	2300      	movs	r3, #0
 8005230:	61fb      	str	r3, [r7, #28]
 8005232:	68bb      	ldr	r3, [r7, #8]
 8005234:	61bb      	str	r3, [r7, #24]
 8005236:	e003      	b.n	8005240 <HAL_UART_Transmit+0x74>
 8005238:	68bb      	ldr	r3, [r7, #8]
 800523a:	61fb      	str	r3, [r7, #28]
 800523c:	2300      	movs	r3, #0
 800523e:	61bb      	str	r3, [r7, #24]
 8005240:	e030      	b.n	80052a4 <HAL_UART_Transmit+0xd8>
 8005242:	683b      	ldr	r3, [r7, #0]
 8005244:	9300      	str	r3, [sp, #0]
 8005246:	697b      	ldr	r3, [r7, #20]
 8005248:	2200      	movs	r2, #0
 800524a:	2180      	movs	r1, #128	@ 0x80
 800524c:	68f8      	ldr	r0, [r7, #12]
 800524e:	f000 fc63 	bl	8005b18 <UART_WaitOnFlagUntilTimeout>
 8005252:	4603      	mov	r3, r0
 8005254:	2b00      	cmp	r3, #0
 8005256:	d005      	beq.n	8005264 <HAL_UART_Transmit+0x98>
 8005258:	68fb      	ldr	r3, [r7, #12]
 800525a:	2220      	movs	r2, #32
 800525c:	f8c3 2088 	str.w	r2, [r3, #136]	@ 0x88
 8005260:	2303      	movs	r3, #3
 8005262:	e03d      	b.n	80052e0 <HAL_UART_Transmit+0x114>
 8005264:	69fb      	ldr	r3, [r7, #28]
 8005266:	2b00      	cmp	r3, #0
 8005268:	d10b      	bne.n	8005282 <HAL_UART_Transmit+0xb6>
 800526a:	69bb      	ldr	r3, [r7, #24]
 800526c:	881b      	ldrh	r3, [r3, #0]
 800526e:	461a      	mov	r2, r3
 8005270:	68fb      	ldr	r3, [r7, #12]
 8005272:	681b      	ldr	r3, [r3, #0]
 8005274:	f3c2 0208 	ubfx	r2, r2, #0, #9
 8005278:	629a      	str	r2, [r3, #40]	@ 0x28
 800527a:	69bb      	ldr	r3, [r7, #24]
 800527c:	3302      	adds	r3, #2
 800527e:	61bb      	str	r3, [r7, #24]
 8005280:	e007      	b.n	8005292 <HAL_UART_Transmit+0xc6>
 8005282:	69fb      	ldr	r3, [r7, #28]
 8005284:	781a      	ldrb	r2, [r3, #0]
 8005286:	68fb      	ldr	r3, [r7, #12]
 8005288:	681b      	ldr	r3, [r3, #0]
 800528a:	629a      	str	r2, [r3, #40]	@ 0x28
 800528c:	69fb      	ldr	r3, [r7, #28]
 800528e:	3301      	adds	r3, #1
 8005290:	61fb      	str	r3, [r7, #28]
 8005292:	68fb      	ldr	r3, [r7, #12]
 8005294:	f8b3 3056 	ldrh.w	r3, [r3, #86]	@ 0x56
 8005298:	b29b      	uxth	r3, r3
 800529a:	3b01      	subs	r3, #1
 800529c:	b29a      	uxth	r2, r3
 800529e:	68fb      	ldr	r3, [r7, #12]
 80052a0:	f8a3 2056 	strh.w	r2, [r3, #86]	@ 0x56
 80052a4:	68fb      	ldr	r3, [r7, #12]
 80052a6:	f8b3 3056 	ldrh.w	r3, [r3, #86]	@ 0x56
 80052aa:	b29b      	uxth	r3, r3
 80052ac:	2b00      	cmp	r3, #0
 80052ae:	d1c8      	bne.n	8005242 <HAL_UART_Transmit+0x76>
 80052b0:	683b      	ldr	r3, [r7, #0]
 80052b2:	9300      	str	r3, [sp, #0]
 80052b4:	697b      	ldr	r3, [r7, #20]
 80052b6:	2200      	movs	r2, #0
 80052b8:	2140      	movs	r1, #64	@ 0x40
 80052ba:	68f8      	ldr	r0, [r7, #12]
 80052bc:	f000 fc2c 	bl	8005b18 <UART_WaitOnFlagUntilTimeout>
 80052c0:	4603      	mov	r3, r0
 80052c2:	2b00      	cmp	r3, #0
 80052c4:	d005      	beq.n	80052d2 <HAL_UART_Transmit+0x106>
 80052c6:	68fb      	ldr	r3, [r7, #12]
 80052c8:	2220      	movs	r2, #32
 80052ca:	f8c3 2088 	str.w	r2, [r3, #136]	@ 0x88
 80052ce:	2303      	movs	r3, #3
 80052d0:	e006      	b.n	80052e0 <HAL_UART_Transmit+0x114>
 80052d2:	68fb      	ldr	r3, [r7, #12]
 80052d4:	2220      	movs	r2, #32
 80052d6:	f8c3 2088 	str.w	r2, [r3, #136]	@ 0x88
 80052da:	2300      	movs	r3, #0
 80052dc:	e000      	b.n	80052e0 <HAL_UART_Transmit+0x114>
 80052de:	2302      	movs	r3, #2
 80052e0:	4618      	mov	r0, r3
 80052e2:	3720      	adds	r7, #32
 80052e4:	46bd      	mov	sp, r7
 80052e6:	bd80      	pop	{r7, pc}

080052e8 <UART_SetConfig>:
 80052e8:	e92d 4fb0 	stmdb	sp!, {r4, r5, r7, r8, r9, sl, fp, lr}
 80052ec:	b08c      	sub	sp, #48	@ 0x30
 80052ee:	af00      	add	r7, sp, #0
 80052f0:	6178      	str	r0, [r7, #20]
 80052f2:	2300      	movs	r3, #0
 80052f4:	f887 302a 	strb.w	r3, [r7, #42]	@ 0x2a
 80052f8:	697b      	ldr	r3, [r7, #20]
 80052fa:	689a      	ldr	r2, [r3, #8]
 80052fc:	697b      	ldr	r3, [r7, #20]
 80052fe:	691b      	ldr	r3, [r3, #16]
 8005300:	431a      	orrs	r2, r3
 8005302:	697b      	ldr	r3, [r7, #20]
 8005304:	695b      	ldr	r3, [r3, #20]
 8005306:	431a      	orrs	r2, r3
 8005308:	697b      	ldr	r3, [r7, #20]
 800530a:	69db      	ldr	r3, [r3, #28]
 800530c:	4313      	orrs	r3, r2
 800530e:	62fb      	str	r3, [r7, #44]	@ 0x2c
 8005310:	697b      	ldr	r3, [r7, #20]
 8005312:	681b      	ldr	r3, [r3, #0]
 8005314:	681a      	ldr	r2, [r3, #0]
 8005316:	4bab      	ldr	r3, [pc, #684]	@ (80055c4 <UART_SetConfig+0x2dc>)
 8005318:	4013      	ands	r3, r2
 800531a:	697a      	ldr	r2, [r7, #20]
 800531c:	6812      	ldr	r2, [r2, #0]
 800531e:	6af9      	ldr	r1, [r7, #44]	@ 0x2c
 8005320:	430b      	orrs	r3, r1
 8005322:	6013      	str	r3, [r2, #0]
 8005324:	697b      	ldr	r3, [r7, #20]
 8005326:	681b      	ldr	r3, [r3, #0]
 8005328:	685b      	ldr	r3, [r3, #4]
 800532a:	f423 5140 	bic.w	r1, r3, #12288	@ 0x3000
 800532e:	697b      	ldr	r3, [r7, #20]
 8005330:	68da      	ldr	r2, [r3, #12]
 8005332:	697b      	ldr	r3, [r7, #20]
 8005334:	681b      	ldr	r3, [r3, #0]
 8005336:	430a      	orrs	r2, r1
 8005338:	605a      	str	r2, [r3, #4]
 800533a:	697b      	ldr	r3, [r7, #20]
 800533c:	699b      	ldr	r3, [r3, #24]
 800533e:	62fb      	str	r3, [r7, #44]	@ 0x2c
 8005340:	697b      	ldr	r3, [r7, #20]
 8005342:	681b      	ldr	r3, [r3, #0]
 8005344:	4aa0      	ldr	r2, [pc, #640]	@ (80055c8 <UART_SetConfig+0x2e0>)
 8005346:	4293      	cmp	r3, r2
 8005348:	d004      	beq.n	8005354 <UART_SetConfig+0x6c>
 800534a:	697b      	ldr	r3, [r7, #20]
 800534c:	6a1b      	ldr	r3, [r3, #32]
 800534e:	6afa      	ldr	r2, [r7, #44]	@ 0x2c
 8005350:	4313      	orrs	r3, r2
 8005352:	62fb      	str	r3, [r7, #44]	@ 0x2c
 8005354:	697b      	ldr	r3, [r7, #20]
 8005356:	681b      	ldr	r3, [r3, #0]
 8005358:	689b      	ldr	r3, [r3, #8]
 800535a:	f023 436e 	bic.w	r3, r3, #3992977408	@ 0xee000000
 800535e:	f423 6330 	bic.w	r3, r3, #2816	@ 0xb00
 8005362:	697a      	ldr	r2, [r7, #20]
 8005364:	6812      	ldr	r2, [r2, #0]
 8005366:	6af9      	ldr	r1, [r7, #44]	@ 0x2c
 8005368:	430b      	orrs	r3, r1
 800536a:	6093      	str	r3, [r2, #8]
 800536c:	697b      	ldr	r3, [r7, #20]
 800536e:	681b      	ldr	r3, [r3, #0]
 8005370:	6adb      	ldr	r3, [r3, #44]	@ 0x2c
 8005372:	f023 010f 	bic.w	r1, r3, #15
 8005376:	697b      	ldr	r3, [r7, #20]
 8005378:	6a5a      	ldr	r2, [r3, #36]	@ 0x24
 800537a:	697b      	ldr	r3, [r7, #20]
 800537c:	681b      	ldr	r3, [r3, #0]
 800537e:	430a      	orrs	r2, r1
 8005380:	62da      	str	r2, [r3, #44]	@ 0x2c
 8005382:	697b      	ldr	r3, [r7, #20]
 8005384:	681b      	ldr	r3, [r3, #0]
 8005386:	4a91      	ldr	r2, [pc, #580]	@ (80055cc <UART_SetConfig+0x2e4>)
 8005388:	4293      	cmp	r3, r2
 800538a:	d125      	bne.n	80053d8 <UART_SetConfig+0xf0>
 800538c:	4b90      	ldr	r3, [pc, #576]	@ (80055d0 <UART_SetConfig+0x2e8>)
 800538e:	f8d3 3088 	ldr.w	r3, [r3, #136]	@ 0x88
 8005392:	f003 0303 	and.w	r3, r3, #3
 8005396:	2b03      	cmp	r3, #3
 8005398:	d81a      	bhi.n	80053d0 <UART_SetConfig+0xe8>
 800539a:	a201      	add	r2, pc, #4	@ (adr r2, 80053a0 <UART_SetConfig+0xb8>)
 800539c:	f852 f023 	ldr.w	pc, [r2, r3, lsl #2]
 80053a0:	080053b1 	.word	0x080053b1
 80053a4:	080053c1 	.word	0x080053c1
 80053a8:	080053b9 	.word	0x080053b9
 80053ac:	080053c9 	.word	0x080053c9
 80053b0:	2301      	movs	r3, #1
 80053b2:	f887 302b 	strb.w	r3, [r7, #43]	@ 0x2b
 80053b6:	e0d6      	b.n	8005566 <UART_SetConfig+0x27e>
 80053b8:	2302      	movs	r3, #2
 80053ba:	f887 302b 	strb.w	r3, [r7, #43]	@ 0x2b
 80053be:	e0d2      	b.n	8005566 <UART_SetConfig+0x27e>
 80053c0:	2304      	movs	r3, #4
 80053c2:	f887 302b 	strb.w	r3, [r7, #43]	@ 0x2b
 80053c6:	e0ce      	b.n	8005566 <UART_SetConfig+0x27e>
 80053c8:	2308      	movs	r3, #8
 80053ca:	f887 302b 	strb.w	r3, [r7, #43]	@ 0x2b
 80053ce:	e0ca      	b.n	8005566 <UART_SetConfig+0x27e>
 80053d0:	2310      	movs	r3, #16
 80053d2:	f887 302b 	strb.w	r3, [r7, #43]	@ 0x2b
 80053d6:	e0c6      	b.n	8005566 <UART_SetConfig+0x27e>
 80053d8:	697b      	ldr	r3, [r7, #20]
 80053da:	681b      	ldr	r3, [r3, #0]
 80053dc:	4a7d      	ldr	r2, [pc, #500]	@ (80055d4 <UART_SetConfig+0x2ec>)
 80053de:	4293      	cmp	r3, r2
 80053e0:	d138      	bne.n	8005454 <UART_SetConfig+0x16c>
 80053e2:	4b7b      	ldr	r3, [pc, #492]	@ (80055d0 <UART_SetConfig+0x2e8>)
 80053e4:	f8d3 3088 	ldr.w	r3, [r3, #136]	@ 0x88
 80053e8:	f003 030c 	and.w	r3, r3, #12
 80053ec:	2b0c      	cmp	r3, #12
 80053ee:	d82d      	bhi.n	800544c <UART_SetConfig+0x164>
 80053f0:	a201      	add	r2, pc, #4	@ (adr r2, 80053f8 <UART_SetConfig+0x110>)
 80053f2:	f852 f023 	ldr.w	pc, [r2, r3, lsl #2]
 80053f6:	bf00      	nop
 80053f8:	0800542d 	.word	0x0800542d
 80053fc:	0800544d 	.word	0x0800544d
 8005400:	0800544d 	.word	0x0800544d
 8005404:	0800544d 	.word	0x0800544d
 8005408:	0800543d 	.word	0x0800543d
 800540c:	0800544d 	.word	0x0800544d
 8005410:	0800544d 	.word	0x0800544d
 8005414:	0800544d 	.word	0x0800544d
 8005418:	08005435 	.word	0x08005435
 800541c:	0800544d 	.word	0x0800544d
 8005420:	0800544d 	.word	0x0800544d
 8005424:	0800544d 	.word	0x0800544d
 8005428:	08005445 	.word	0x08005445
 800542c:	2300      	movs	r3, #0
 800542e:	f887 302b 	strb.w	r3, [r7, #43]	@ 0x2b
 8005432:	e098      	b.n	8005566 <UART_SetConfig+0x27e>
 8005434:	2302      	movs	r3, #2
 8005436:	f887 302b 	strb.w	r3, [r7, #43]	@ 0x2b
 800543a:	e094      	b.n	8005566 <UART_SetConfig+0x27e>
 800543c:	2304      	movs	r3, #4
 800543e:	f887 302b 	strb.w	r3, [r7, #43]	@ 0x2b
 8005442:	e090      	b.n	8005566 <UART_SetConfig+0x27e>
 8005444:	2308      	movs	r3, #8
 8005446:	f887 302b 	strb.w	r3, [r7, #43]	@ 0x2b
 800544a:	e08c      	b.n	8005566 <UART_SetConfig+0x27e>
 800544c:	2310      	movs	r3, #16
 800544e:	f887 302b 	strb.w	r3, [r7, #43]	@ 0x2b
 8005452:	e088      	b.n	8005566 <UART_SetConfig+0x27e>
 8005454:	697b      	ldr	r3, [r7, #20]
 8005456:	681b      	ldr	r3, [r3, #0]
 8005458:	4a5f      	ldr	r2, [pc, #380]	@ (80055d8 <UART_SetConfig+0x2f0>)
 800545a:	4293      	cmp	r3, r2
 800545c:	d125      	bne.n	80054aa <UART_SetConfig+0x1c2>
 800545e:	4b5c      	ldr	r3, [pc, #368]	@ (80055d0 <UART_SetConfig+0x2e8>)
 8005460:	f8d3 3088 	ldr.w	r3, [r3, #136]	@ 0x88
 8005464:	f003 0330 	and.w	r3, r3, #48	@ 0x30
 8005468:	2b30      	cmp	r3, #48	@ 0x30
 800546a:	d016      	beq.n	800549a <UART_SetConfig+0x1b2>
 800546c:	2b30      	cmp	r3, #48	@ 0x30
 800546e:	d818      	bhi.n	80054a2 <UART_SetConfig+0x1ba>
 8005470:	2b20      	cmp	r3, #32
 8005472:	d00a      	beq.n	800548a <UART_SetConfig+0x1a2>
 8005474:	2b20      	cmp	r3, #32
 8005476:	d814      	bhi.n	80054a2 <UART_SetConfig+0x1ba>
 8005478:	2b00      	cmp	r3, #0
 800547a:	d002      	beq.n	8005482 <UART_SetConfig+0x19a>
 800547c:	2b10      	cmp	r3, #16
 800547e:	d008      	beq.n	8005492 <UART_SetConfig+0x1aa>
 8005480:	e00f      	b.n	80054a2 <UART_SetConfig+0x1ba>
 8005482:	2300      	movs	r3, #0
 8005484:	f887 302b 	strb.w	r3, [r7, #43]	@ 0x2b
 8005488:	e06d      	b.n	8005566 <UART_SetConfig+0x27e>
 800548a:	2302      	movs	r3, #2
 800548c:	f887 302b 	strb.w	r3, [r7, #43]	@ 0x2b
 8005490:	e069      	b.n	8005566 <UART_SetConfig+0x27e>
 8005492:	2304      	movs	r3, #4
 8005494:	f887 302b 	strb.w	r3, [r7, #43]	@ 0x2b
 8005498:	e065      	b.n	8005566 <UART_SetConfig+0x27e>
 800549a:	2308      	movs	r3, #8
 800549c:	f887 302b 	strb.w	r3, [r7, #43]	@ 0x2b
 80054a0:	e061      	b.n	8005566 <UART_SetConfig+0x27e>
 80054a2:	2310      	movs	r3, #16
 80054a4:	f887 302b 	strb.w	r3, [r7, #43]	@ 0x2b
 80054a8:	e05d      	b.n	8005566 <UART_SetConfig+0x27e>
 80054aa:	697b      	ldr	r3, [r7, #20]
 80054ac:	681b      	ldr	r3, [r3, #0]
 80054ae:	4a4b      	ldr	r2, [pc, #300]	@ (80055dc <UART_SetConfig+0x2f4>)
 80054b0:	4293      	cmp	r3, r2
 80054b2:	d125      	bne.n	8005500 <UART_SetConfig+0x218>
 80054b4:	4b46      	ldr	r3, [pc, #280]	@ (80055d0 <UART_SetConfig+0x2e8>)
 80054b6:	f8d3 3088 	ldr.w	r3, [r3, #136]	@ 0x88
 80054ba:	f003 03c0 	and.w	r3, r3, #192	@ 0xc0
 80054be:	2bc0      	cmp	r3, #192	@ 0xc0
 80054c0:	d016      	beq.n	80054f0 <UART_SetConfig+0x208>
 80054c2:	2bc0      	cmp	r3, #192	@ 0xc0
 80054c4:	d818      	bhi.n	80054f8 <UART_SetConfig+0x210>
 80054c6:	2b80      	cmp	r3, #128	@ 0x80
 80054c8:	d00a      	beq.n	80054e0 <UART_SetConfig+0x1f8>
 80054ca:	2b80      	cmp	r3, #128	@ 0x80
 80054cc:	d814      	bhi.n	80054f8 <UART_SetConfig+0x210>
 80054ce:	2b00      	cmp	r3, #0
 80054d0:	d002      	beq.n	80054d8 <UART_SetConfig+0x1f0>
 80054d2:	2b40      	cmp	r3, #64	@ 0x40
 80054d4:	d008      	beq.n	80054e8 <UART_SetConfig+0x200>
 80054d6:	e00f      	b.n	80054f8 <UART_SetConfig+0x210>
 80054d8:	2300      	movs	r3, #0
 80054da:	f887 302b 	strb.w	r3, [r7, #43]	@ 0x2b
 80054de:	e042      	b.n	8005566 <UART_SetConfig+0x27e>
 80054e0:	2302      	movs	r3, #2
 80054e2:	f887 302b 	strb.w	r3, [r7, #43]	@ 0x2b
 80054e6:	e03e      	b.n	8005566 <UART_SetConfig+0x27e>
 80054e8:	2304      	movs	r3, #4
 80054ea:	f887 302b 	strb.w	r3, [r7, #43]	@ 0x2b
 80054ee:	e03a      	b.n	8005566 <UART_SetConfig+0x27e>
 80054f0:	2308      	movs	r3, #8
 80054f2:	f887 302b 	strb.w	r3, [r7, #43]	@ 0x2b
 80054f6:	e036      	b.n	8005566 <UART_SetConfig+0x27e>
 80054f8:	2310      	movs	r3, #16
 80054fa:	f887 302b 	strb.w	r3, [r7, #43]	@ 0x2b
 80054fe:	e032      	b.n	8005566 <UART_SetConfig+0x27e>
 8005500:	697b      	ldr	r3, [r7, #20]
 8005502:	681b      	ldr	r3, [r3, #0]
 8005504:	4a30      	ldr	r2, [pc, #192]	@ (80055c8 <UART_SetConfig+0x2e0>)
 8005506:	4293      	cmp	r3, r2
 8005508:	d12a      	bne.n	8005560 <UART_SetConfig+0x278>
 800550a:	4b31      	ldr	r3, [pc, #196]	@ (80055d0 <UART_SetConfig+0x2e8>)
 800550c:	f8d3 3088 	ldr.w	r3, [r3, #136]	@ 0x88
 8005510:	f403 6340 	and.w	r3, r3, #3072	@ 0xc00
 8005514:	f5b3 6f40 	cmp.w	r3, #3072	@ 0xc00
 8005518:	d01a      	beq.n	8005550 <UART_SetConfig+0x268>
 800551a:	f5b3 6f40 	cmp.w	r3, #3072	@ 0xc00
 800551e:	d81b      	bhi.n	8005558 <UART_SetConfig+0x270>
 8005520:	f5b3 6f00 	cmp.w	r3, #2048	@ 0x800
 8005524:	d00c      	beq.n	8005540 <UART_SetConfig+0x258>
 8005526:	f5b3 6f00 	cmp.w	r3, #2048	@ 0x800
 800552a:	d815      	bhi.n	8005558 <UART_SetConfig+0x270>
 800552c:	2b00      	cmp	r3, #0
 800552e:	d003      	beq.n	8005538 <UART_SetConfig+0x250>
 8005530:	f5b3 6f80 	cmp.w	r3, #1024	@ 0x400
 8005534:	d008      	beq.n	8005548 <UART_SetConfig+0x260>
 8005536:	e00f      	b.n	8005558 <UART_SetConfig+0x270>
 8005538:	2300      	movs	r3, #0
 800553a:	f887 302b 	strb.w	r3, [r7, #43]	@ 0x2b
 800553e:	e012      	b.n	8005566 <UART_SetConfig+0x27e>
 8005540:	2302      	movs	r3, #2
 8005542:	f887 302b 	strb.w	r3, [r7, #43]	@ 0x2b
 8005546:	e00e      	b.n	8005566 <UART_SetConfig+0x27e>
 8005548:	2304      	movs	r3, #4
 800554a:	f887 302b 	strb.w	r3, [r7, #43]	@ 0x2b
 800554e:	e00a      	b.n	8005566 <UART_SetConfig+0x27e>
 8005550:	2308      	movs	r3, #8
 8005552:	f887 302b 	strb.w	r3, [r7, #43]	@ 0x2b
 8005556:	e006      	b.n	8005566 <UART_SetConfig+0x27e>
 8005558:	2310      	movs	r3, #16
 800555a:	f887 302b 	strb.w	r3, [r7, #43]	@ 0x2b
 800555e:	e002      	b.n	8005566 <UART_SetConfig+0x27e>
 8005560:	2310      	movs	r3, #16
 8005562:	f887 302b 	strb.w	r3, [r7, #43]	@ 0x2b
 8005566:	697b      	ldr	r3, [r7, #20]
 8005568:	681b      	ldr	r3, [r3, #0]
 800556a:	4a17      	ldr	r2, [pc, #92]	@ (80055c8 <UART_SetConfig+0x2e0>)
 800556c:	4293      	cmp	r3, r2
 800556e:	f040 80a8 	bne.w	80056c2 <UART_SetConfig+0x3da>
 8005572:	f897 302b 	ldrb.w	r3, [r7, #43]	@ 0x2b
 8005576:	2b08      	cmp	r3, #8
 8005578:	d834      	bhi.n	80055e4 <UART_SetConfig+0x2fc>
 800557a:	a201      	add	r2, pc, #4	@ (adr r2, 8005580 <UART_SetConfig+0x298>)
 800557c:	f852 f023 	ldr.w	pc, [r2, r3, lsl #2]
 8005580:	080055a5 	.word	0x080055a5
 8005584:	080055e5 	.word	0x080055e5
 8005588:	080055ad 	.word	0x080055ad
 800558c:	080055e5 	.word	0x080055e5
 8005590:	080055b3 	.word	0x080055b3
 8005594:	080055e5 	.word	0x080055e5
 8005598:	080055e5 	.word	0x080055e5
 800559c:	080055e5 	.word	0x080055e5
 80055a0:	080055bb 	.word	0x080055bb
 80055a4:	f7fe f8fc 	bl	80037a0 <HAL_RCC_GetPCLK1Freq>
 80055a8:	6278      	str	r0, [r7, #36]	@ 0x24
 80055aa:	e021      	b.n	80055f0 <UART_SetConfig+0x308>
 80055ac:	4b0c      	ldr	r3, [pc, #48]	@ (80055e0 <UART_SetConfig+0x2f8>)
 80055ae:	627b      	str	r3, [r7, #36]	@ 0x24
 80055b0:	e01e      	b.n	80055f0 <UART_SetConfig+0x308>
 80055b2:	f7fe f887 	bl	80036c4 <HAL_RCC_GetSysClockFreq>
 80055b6:	6278      	str	r0, [r7, #36]	@ 0x24
 80055b8:	e01a      	b.n	80055f0 <UART_SetConfig+0x308>
 80055ba:	f44f 4300 	mov.w	r3, #32768	@ 0x8000
 80055be:	627b      	str	r3, [r7, #36]	@ 0x24
 80055c0:	e016      	b.n	80055f0 <UART_SetConfig+0x308>
 80055c2:	bf00      	nop
 80055c4:	cfff69f3 	.word	0xcfff69f3
 80055c8:	40008000 	.word	0x40008000
 80055cc:	40013800 	.word	0x40013800
 80055d0:	40021000 	.word	0x40021000
 80055d4:	40004400 	.word	0x40004400
 80055d8:	40004800 	.word	0x40004800
 80055dc:	40004c00 	.word	0x40004c00
 80055e0:	00f42400 	.word	0x00f42400
 80055e4:	2300      	movs	r3, #0
 80055e6:	627b      	str	r3, [r7, #36]	@ 0x24
 80055e8:	2301      	movs	r3, #1
 80055ea:	f887 302a 	strb.w	r3, [r7, #42]	@ 0x2a
 80055ee:	bf00      	nop
 80055f0:	6a7b      	ldr	r3, [r7, #36]	@ 0x24
 80055f2:	2b00      	cmp	r3, #0
 80055f4:	f000 812a 	beq.w	800584c <UART_SetConfig+0x564>
 80055f8:	697b      	ldr	r3, [r7, #20]
 80055fa:	6a5b      	ldr	r3, [r3, #36]	@ 0x24
 80055fc:	4a9e      	ldr	r2, [pc, #632]	@ (8005878 <UART_SetConfig+0x590>)
 80055fe:	f832 3013 	ldrh.w	r3, [r2, r3, lsl #1]
 8005602:	461a      	mov	r2, r3
 8005604:	6a7b      	ldr	r3, [r7, #36]	@ 0x24
 8005606:	fbb3 f3f2 	udiv	r3, r3, r2
 800560a:	61bb      	str	r3, [r7, #24]
 800560c:	697b      	ldr	r3, [r7, #20]
 800560e:	685a      	ldr	r2, [r3, #4]
 8005610:	4613      	mov	r3, r2
 8005612:	005b      	lsls	r3, r3, #1
 8005614:	4413      	add	r3, r2
 8005616:	69ba      	ldr	r2, [r7, #24]
 8005618:	429a      	cmp	r2, r3
 800561a:	d305      	bcc.n	8005628 <UART_SetConfig+0x340>
 800561c:	697b      	ldr	r3, [r7, #20]
 800561e:	685b      	ldr	r3, [r3, #4]
 8005620:	031b      	lsls	r3, r3, #12
 8005622:	69ba      	ldr	r2, [r7, #24]
 8005624:	429a      	cmp	r2, r3
 8005626:	d903      	bls.n	8005630 <UART_SetConfig+0x348>
 8005628:	2301      	movs	r3, #1
 800562a:	f887 302a 	strb.w	r3, [r7, #42]	@ 0x2a
 800562e:	e10d      	b.n	800584c <UART_SetConfig+0x564>
 8005630:	6a7b      	ldr	r3, [r7, #36]	@ 0x24
 8005632:	2200      	movs	r2, #0
 8005634:	60bb      	str	r3, [r7, #8]
 8005636:	60fa      	str	r2, [r7, #12]
 8005638:	697b      	ldr	r3, [r7, #20]
 800563a:	6a5b      	ldr	r3, [r3, #36]	@ 0x24
 800563c:	4a8e      	ldr	r2, [pc, #568]	@ (8005878 <UART_SetConfig+0x590>)
 800563e:	f832 3013 	ldrh.w	r3, [r2, r3, lsl #1]
 8005642:	b29b      	uxth	r3, r3
 8005644:	2200      	movs	r2, #0
 8005646:	603b      	str	r3, [r7, #0]
 8005648:	607a      	str	r2, [r7, #4]
 800564a:	e9d7 2300 	ldrd	r2, r3, [r7]
 800564e:	e9d7 0102 	ldrd	r0, r1, [r7, #8]
 8005652:	f7fa fe35 	bl	80002c0 <__aeabi_uldivmod>
 8005656:	4602      	mov	r2, r0
 8005658:	460b      	mov	r3, r1
 800565a:	4610      	mov	r0, r2
 800565c:	4619      	mov	r1, r3
 800565e:	f04f 0200 	mov.w	r2, #0
 8005662:	f04f 0300 	mov.w	r3, #0
 8005666:	020b      	lsls	r3, r1, #8
 8005668:	ea43 6310 	orr.w	r3, r3, r0, lsr #24
 800566c:	0202      	lsls	r2, r0, #8
 800566e:	6979      	ldr	r1, [r7, #20]
 8005670:	6849      	ldr	r1, [r1, #4]
 8005672:	0849      	lsrs	r1, r1, #1
 8005674:	2000      	movs	r0, #0
 8005676:	460c      	mov	r4, r1
 8005678:	4605      	mov	r5, r0
 800567a:	eb12 0804 	adds.w	r8, r2, r4
 800567e:	eb43 0905 	adc.w	r9, r3, r5
 8005682:	697b      	ldr	r3, [r7, #20]
 8005684:	685b      	ldr	r3, [r3, #4]
 8005686:	2200      	movs	r2, #0
 8005688:	469a      	mov	sl, r3
 800568a:	4693      	mov	fp, r2
 800568c:	4652      	mov	r2, sl
 800568e:	465b      	mov	r3, fp
 8005690:	4640      	mov	r0, r8
 8005692:	4649      	mov	r1, r9
 8005694:	f7fa fe14 	bl	80002c0 <__aeabi_uldivmod>
 8005698:	4602      	mov	r2, r0
 800569a:	460b      	mov	r3, r1
 800569c:	4613      	mov	r3, r2
 800569e:	623b      	str	r3, [r7, #32]
 80056a0:	6a3b      	ldr	r3, [r7, #32]
 80056a2:	f5b3 7f40 	cmp.w	r3, #768	@ 0x300
 80056a6:	d308      	bcc.n	80056ba <UART_SetConfig+0x3d2>
 80056a8:	6a3b      	ldr	r3, [r7, #32]
 80056aa:	f5b3 1f80 	cmp.w	r3, #1048576	@ 0x100000
 80056ae:	d204      	bcs.n	80056ba <UART_SetConfig+0x3d2>
 80056b0:	697b      	ldr	r3, [r7, #20]
 80056b2:	681b      	ldr	r3, [r3, #0]
 80056b4:	6a3a      	ldr	r2, [r7, #32]
 80056b6:	60da      	str	r2, [r3, #12]
 80056b8:	e0c8      	b.n	800584c <UART_SetConfig+0x564>
 80056ba:	2301      	movs	r3, #1
 80056bc:	f887 302a 	strb.w	r3, [r7, #42]	@ 0x2a
 80056c0:	e0c4      	b.n	800584c <UART_SetConfig+0x564>
 80056c2:	697b      	ldr	r3, [r7, #20]
 80056c4:	69db      	ldr	r3, [r3, #28]
 80056c6:	f5b3 4f00 	cmp.w	r3, #32768	@ 0x8000
 80056ca:	d167      	bne.n	800579c <UART_SetConfig+0x4b4>
 80056cc:	f897 302b 	ldrb.w	r3, [r7, #43]	@ 0x2b
 80056d0:	2b08      	cmp	r3, #8
 80056d2:	d828      	bhi.n	8005726 <UART_SetConfig+0x43e>
 80056d4:	a201      	add	r2, pc, #4	@ (adr r2, 80056dc <UART_SetConfig+0x3f4>)
 80056d6:	f852 f023 	ldr.w	pc, [r2, r3, lsl #2]
 80056da:	bf00      	nop
 80056dc:	08005701 	.word	0x08005701
 80056e0:	08005709 	.word	0x08005709
 80056e4:	08005711 	.word	0x08005711
 80056e8:	08005727 	.word	0x08005727
 80056ec:	08005717 	.word	0x08005717
 80056f0:	08005727 	.word	0x08005727
 80056f4:	08005727 	.word	0x08005727
 80056f8:	08005727 	.word	0x08005727
 80056fc:	0800571f 	.word	0x0800571f
 8005700:	f7fe f84e 	bl	80037a0 <HAL_RCC_GetPCLK1Freq>
 8005704:	6278      	str	r0, [r7, #36]	@ 0x24
 8005706:	e014      	b.n	8005732 <UART_SetConfig+0x44a>
 8005708:	f7fe f860 	bl	80037cc <HAL_RCC_GetPCLK2Freq>
 800570c:	6278      	str	r0, [r7, #36]	@ 0x24
 800570e:	e010      	b.n	8005732 <UART_SetConfig+0x44a>
 8005710:	4b5a      	ldr	r3, [pc, #360]	@ (800587c <UART_SetConfig+0x594>)
 8005712:	627b      	str	r3, [r7, #36]	@ 0x24
 8005714:	e00d      	b.n	8005732 <UART_SetConfig+0x44a>
 8005716:	f7fd ffd5 	bl	80036c4 <HAL_RCC_GetSysClockFreq>
 800571a:	6278      	str	r0, [r7, #36]	@ 0x24
 800571c:	e009      	b.n	8005732 <UART_SetConfig+0x44a>
 800571e:	f44f 4300 	mov.w	r3, #32768	@ 0x8000
 8005722:	627b      	str	r3, [r7, #36]	@ 0x24
 8005724:	e005      	b.n	8005732 <UART_SetConfig+0x44a>
 8005726:	2300      	movs	r3, #0
 8005728:	627b      	str	r3, [r7, #36]	@ 0x24
 800572a:	2301      	movs	r3, #1
 800572c:	f887 302a 	strb.w	r3, [r7, #42]	@ 0x2a
 8005730:	bf00      	nop
 8005732:	6a7b      	ldr	r3, [r7, #36]	@ 0x24
 8005734:	2b00      	cmp	r3, #0
 8005736:	f000 8089 	beq.w	800584c <UART_SetConfig+0x564>
 800573a:	697b      	ldr	r3, [r7, #20]
 800573c:	6a5b      	ldr	r3, [r3, #36]	@ 0x24
 800573e:	4a4e      	ldr	r2, [pc, #312]	@ (8005878 <UART_SetConfig+0x590>)
 8005740:	f832 3013 	ldrh.w	r3, [r2, r3, lsl #1]
 8005744:	461a      	mov	r2, r3
 8005746:	6a7b      	ldr	r3, [r7, #36]	@ 0x24
 8005748:	fbb3 f3f2 	udiv	r3, r3, r2
 800574c:	005a      	lsls	r2, r3, #1
 800574e:	697b      	ldr	r3, [r7, #20]
 8005750:	685b      	ldr	r3, [r3, #4]
 8005752:	085b      	lsrs	r3, r3, #1
 8005754:	441a      	add	r2, r3
 8005756:	697b      	ldr	r3, [r7, #20]
 8005758:	685b      	ldr	r3, [r3, #4]
 800575a:	fbb2 f3f3 	udiv	r3, r2, r3
 800575e:	623b      	str	r3, [r7, #32]
 8005760:	6a3b      	ldr	r3, [r7, #32]
 8005762:	2b0f      	cmp	r3, #15
 8005764:	d916      	bls.n	8005794 <UART_SetConfig+0x4ac>
 8005766:	6a3b      	ldr	r3, [r7, #32]
 8005768:	f5b3 3f80 	cmp.w	r3, #65536	@ 0x10000
 800576c:	d212      	bcs.n	8005794 <UART_SetConfig+0x4ac>
 800576e:	6a3b      	ldr	r3, [r7, #32]
 8005770:	b29b      	uxth	r3, r3
 8005772:	f023 030f 	bic.w	r3, r3, #15
 8005776:	83fb      	strh	r3, [r7, #30]
 8005778:	6a3b      	ldr	r3, [r7, #32]
 800577a:	085b      	lsrs	r3, r3, #1
 800577c:	b29b      	uxth	r3, r3
 800577e:	f003 0307 	and.w	r3, r3, #7
 8005782:	b29a      	uxth	r2, r3
 8005784:	8bfb      	ldrh	r3, [r7, #30]
 8005786:	4313      	orrs	r3, r2
 8005788:	83fb      	strh	r3, [r7, #30]
 800578a:	697b      	ldr	r3, [r7, #20]
 800578c:	681b      	ldr	r3, [r3, #0]
 800578e:	8bfa      	ldrh	r2, [r7, #30]
 8005790:	60da      	str	r2, [r3, #12]
 8005792:	e05b      	b.n	800584c <UART_SetConfig+0x564>
 8005794:	2301      	movs	r3, #1
 8005796:	f887 302a 	strb.w	r3, [r7, #42]	@ 0x2a
 800579a:	e057      	b.n	800584c <UART_SetConfig+0x564>
 800579c:	f897 302b 	ldrb.w	r3, [r7, #43]	@ 0x2b
 80057a0:	2b08      	cmp	r3, #8
 80057a2:	d828      	bhi.n	80057f6 <UART_SetConfig+0x50e>
 80057a4:	a201      	add	r2, pc, #4	@ (adr r2, 80057ac <UART_SetConfig+0x4c4>)
 80057a6:	f852 f023 	ldr.w	pc, [r2, r3, lsl #2]
 80057aa:	bf00      	nop
 80057ac:	080057d1 	.word	0x080057d1
 80057b0:	080057d9 	.word	0x080057d9
 80057b4:	080057e1 	.word	0x080057e1
 80057b8:	080057f7 	.word	0x080057f7
 80057bc:	080057e7 	.word	0x080057e7
 80057c0:	080057f7 	.word	0x080057f7
 80057c4:	080057f7 	.word	0x080057f7
 80057c8:	080057f7 	.word	0x080057f7
 80057cc:	080057ef 	.word	0x080057ef
 80057d0:	f7fd ffe6 	bl	80037a0 <HAL_RCC_GetPCLK1Freq>
 80057d4:	6278      	str	r0, [r7, #36]	@ 0x24
 80057d6:	e014      	b.n	8005802 <UART_SetConfig+0x51a>
 80057d8:	f7fd fff8 	bl	80037cc <HAL_RCC_GetPCLK2Freq>
 80057dc:	6278      	str	r0, [r7, #36]	@ 0x24
 80057de:	e010      	b.n	8005802 <UART_SetConfig+0x51a>
 80057e0:	4b26      	ldr	r3, [pc, #152]	@ (800587c <UART_SetConfig+0x594>)
 80057e2:	627b      	str	r3, [r7, #36]	@ 0x24
 80057e4:	e00d      	b.n	8005802 <UART_SetConfig+0x51a>
 80057e6:	f7fd ff6d 	bl	80036c4 <HAL_RCC_GetSysClockFreq>
 80057ea:	6278      	str	r0, [r7, #36]	@ 0x24
 80057ec:	e009      	b.n	8005802 <UART_SetConfig+0x51a>
 80057ee:	f44f 4300 	mov.w	r3, #32768	@ 0x8000
 80057f2:	627b      	str	r3, [r7, #36]	@ 0x24
 80057f4:	e005      	b.n	8005802 <UART_SetConfig+0x51a>
 80057f6:	2300      	movs	r3, #0
 80057f8:	627b      	str	r3, [r7, #36]	@ 0x24
 80057fa:	2301      	movs	r3, #1
 80057fc:	f887 302a 	strb.w	r3, [r7, #42]	@ 0x2a
 8005800:	bf00      	nop
 8005802:	6a7b      	ldr	r3, [r7, #36]	@ 0x24
 8005804:	2b00      	cmp	r3, #0
 8005806:	d021      	beq.n	800584c <UART_SetConfig+0x564>
 8005808:	697b      	ldr	r3, [r7, #20]
 800580a:	6a5b      	ldr	r3, [r3, #36]	@ 0x24
 800580c:	4a1a      	ldr	r2, [pc, #104]	@ (8005878 <UART_SetConfig+0x590>)
 800580e:	f832 3013 	ldrh.w	r3, [r2, r3, lsl #1]
 8005812:	461a      	mov	r2, r3
 8005814:	6a7b      	ldr	r3, [r7, #36]	@ 0x24
 8005816:	fbb3 f2f2 	udiv	r2, r3, r2
 800581a:	697b      	ldr	r3, [r7, #20]
 800581c:	685b      	ldr	r3, [r3, #4]
 800581e:	085b      	lsrs	r3, r3, #1
 8005820:	441a      	add	r2, r3
 8005822:	697b      	ldr	r3, [r7, #20]
 8005824:	685b      	ldr	r3, [r3, #4]
 8005826:	fbb2 f3f3 	udiv	r3, r2, r3
 800582a:	623b      	str	r3, [r7, #32]
 800582c:	6a3b      	ldr	r3, [r7, #32]
 800582e:	2b0f      	cmp	r3, #15
 8005830:	d909      	bls.n	8005846 <UART_SetConfig+0x55e>
 8005832:	6a3b      	ldr	r3, [r7, #32]
 8005834:	f5b3 3f80 	cmp.w	r3, #65536	@ 0x10000
 8005838:	d205      	bcs.n	8005846 <UART_SetConfig+0x55e>
 800583a:	6a3b      	ldr	r3, [r7, #32]
 800583c:	b29a      	uxth	r2, r3
 800583e:	697b      	ldr	r3, [r7, #20]
 8005840:	681b      	ldr	r3, [r3, #0]
 8005842:	60da      	str	r2, [r3, #12]
 8005844:	e002      	b.n	800584c <UART_SetConfig+0x564>
 8005846:	2301      	movs	r3, #1
 8005848:	f887 302a 	strb.w	r3, [r7, #42]	@ 0x2a
 800584c:	697b      	ldr	r3, [r7, #20]
 800584e:	2201      	movs	r2, #1
 8005850:	f8a3 206a 	strh.w	r2, [r3, #106]	@ 0x6a
 8005854:	697b      	ldr	r3, [r7, #20]
 8005856:	2201      	movs	r2, #1
 8005858:	f8a3 2068 	strh.w	r2, [r3, #104]	@ 0x68
 800585c:	697b      	ldr	r3, [r7, #20]
 800585e:	2200      	movs	r2, #0
 8005860:	675a      	str	r2, [r3, #116]	@ 0x74
 8005862:	697b      	ldr	r3, [r7, #20]
 8005864:	2200      	movs	r2, #0
 8005866:	679a      	str	r2, [r3, #120]	@ 0x78
 8005868:	f897 302a 	ldrb.w	r3, [r7, #42]	@ 0x2a
 800586c:	4618      	mov	r0, r3
 800586e:	3730      	adds	r7, #48	@ 0x30
 8005870:	46bd      	mov	sp, r7
 8005872:	e8bd 8fb0 	ldmia.w	sp!, {r4, r5, r7, r8, r9, sl, fp, pc}
 8005876:	bf00      	nop
 8005878:	08006d88 	.word	0x08006d88
 800587c:	00f42400 	.word	0x00f42400

08005880 <UART_AdvFeatureConfig>:
 8005880:	b480      	push	{r7}
 8005882:	b083      	sub	sp, #12
 8005884:	af00      	add	r7, sp, #0
 8005886:	6078      	str	r0, [r7, #4]
 8005888:	687b      	ldr	r3, [r7, #4]
 800588a:	6a9b      	ldr	r3, [r3, #40]	@ 0x28
 800588c:	f003 0308 	and.w	r3, r3, #8
 8005890:	2b00      	cmp	r3, #0
 8005892:	d00a      	beq.n	80058aa <UART_AdvFeatureConfig+0x2a>
 8005894:	687b      	ldr	r3, [r7, #4]
 8005896:	681b      	ldr	r3, [r3, #0]
 8005898:	685b      	ldr	r3, [r3, #4]
 800589a:	f423 4100 	bic.w	r1, r3, #32768	@ 0x8000
 800589e:	687b      	ldr	r3, [r7, #4]
 80058a0:	6b9a      	ldr	r2, [r3, #56]	@ 0x38
 80058a2:	687b      	ldr	r3, [r7, #4]
 80058a4:	681b      	ldr	r3, [r3, #0]
 80058a6:	430a      	orrs	r2, r1
 80058a8:	605a      	str	r2, [r3, #4]
 80058aa:	687b      	ldr	r3, [r7, #4]
 80058ac:	6a9b      	ldr	r3, [r3, #40]	@ 0x28
 80058ae:	f003 0301 	and.w	r3, r3, #1
 80058b2:	2b00      	cmp	r3, #0
 80058b4:	d00a      	beq.n	80058cc <UART_AdvFeatureConfig+0x4c>
 80058b6:	687b      	ldr	r3, [r7, #4]
 80058b8:	681b      	ldr	r3, [r3, #0]
 80058ba:	685b      	ldr	r3, [r3, #4]
 80058bc:	f423 3100 	bic.w	r1, r3, #131072	@ 0x20000
 80058c0:	687b      	ldr	r3, [r7, #4]
 80058c2:	6ada      	ldr	r2, [r3, #44]	@ 0x2c
 80058c4:	687b      	ldr	r3, [r7, #4]
 80058c6:	681b      	ldr	r3, [r3, #0]
 80058c8:	430a      	orrs	r2, r1
 80058ca:	605a      	str	r2, [r3, #4]
 80058cc:	687b      	ldr	r3, [r7, #4]
 80058ce:	6a9b      	ldr	r3, [r3, #40]	@ 0x28
 80058d0:	f003 0302 	and.w	r3, r3, #2
 80058d4:	2b00      	cmp	r3, #0
 80058d6:	d00a      	beq.n	80058ee <UART_AdvFeatureConfig+0x6e>
 80058d8:	687b      	ldr	r3, [r7, #4]
 80058da:	681b      	ldr	r3, [r3, #0]
 80058dc:	685b      	ldr	r3, [r3, #4]
 80058de:	f423 3180 	bic.w	r1, r3, #65536	@ 0x10000
 80058e2:	687b      	ldr	r3, [r7, #4]
 80058e4:	6b1a      	ldr	r2, [r3, #48]	@ 0x30
 80058e6:	687b      	ldr	r3, [r7, #4]
 80058e8:	681b      	ldr	r3, [r3, #0]
 80058ea:	430a      	orrs	r2, r1
 80058ec:	605a      	str	r2, [r3, #4]
 80058ee:	687b      	ldr	r3, [r7, #4]
 80058f0:	6a9b      	ldr	r3, [r3, #40]	@ 0x28
 80058f2:	f003 0304 	and.w	r3, r3, #4
 80058f6:	2b00      	cmp	r3, #0
 80058f8:	d00a      	beq.n	8005910 <UART_AdvFeatureConfig+0x90>
 80058fa:	687b      	ldr	r3, [r7, #4]
 80058fc:	681b      	ldr	r3, [r3, #0]
 80058fe:	685b      	ldr	r3, [r3, #4]
 8005900:	f423 2180 	bic.w	r1, r3, #262144	@ 0x40000
 8005904:	687b      	ldr	r3, [r7, #4]
 8005906:	6b5a      	ldr	r2, [r3, #52]	@ 0x34
 8005908:	687b      	ldr	r3, [r7, #4]
 800590a:	681b      	ldr	r3, [r3, #0]
 800590c:	430a      	orrs	r2, r1
 800590e:	605a      	str	r2, [r3, #4]
 8005910:	687b      	ldr	r3, [r7, #4]
 8005912:	6a9b      	ldr	r3, [r3, #40]	@ 0x28
 8005914:	f003 0310 	and.w	r3, r3, #16
 8005918:	2b00      	cmp	r3, #0
 800591a:	d00a      	beq.n	8005932 <UART_AdvFeatureConfig+0xb2>
 800591c:	687b      	ldr	r3, [r7, #4]
 800591e:	681b      	ldr	r3, [r3, #0]
 8005920:	689b      	ldr	r3, [r3, #8]
 8005922:	f423 5180 	bic.w	r1, r3, #4096	@ 0x1000
 8005926:	687b      	ldr	r3, [r7, #4]
 8005928:	6bda      	ldr	r2, [r3, #60]	@ 0x3c
 800592a:	687b      	ldr	r3, [r7, #4]
 800592c:	681b      	ldr	r3, [r3, #0]
 800592e:	430a      	orrs	r2, r1
 8005930:	609a      	str	r2, [r3, #8]
 8005932:	687b      	ldr	r3, [r7, #4]
 8005934:	6a9b      	ldr	r3, [r3, #40]	@ 0x28
 8005936:	f003 0320 	and.w	r3, r3, #32
 800593a:	2b00      	cmp	r3, #0
 800593c:	d00a      	beq.n	8005954 <UART_AdvFeatureConfig+0xd4>
 800593e:	687b      	ldr	r3, [r7, #4]
 8005940:	681b      	ldr	r3, [r3, #0]
 8005942:	689b      	ldr	r3, [r3, #8]
 8005944:	f423 5100 	bic.w	r1, r3, #8192	@ 0x2000
 8005948:	687b      	ldr	r3, [r7, #4]
 800594a:	6c1a      	ldr	r2, [r3, #64]	@ 0x40
 800594c:	687b      	ldr	r3, [r7, #4]
 800594e:	681b      	ldr	r3, [r3, #0]
 8005950:	430a      	orrs	r2, r1
 8005952:	609a      	str	r2, [r3, #8]
 8005954:	687b      	ldr	r3, [r7, #4]
 8005956:	6a9b      	ldr	r3, [r3, #40]	@ 0x28
 8005958:	f003 0340 	and.w	r3, r3, #64	@ 0x40
 800595c:	2b00      	cmp	r3, #0
 800595e:	d01a      	beq.n	8005996 <UART_AdvFeatureConfig+0x116>
 8005960:	687b      	ldr	r3, [r7, #4]
 8005962:	681b      	ldr	r3, [r3, #0]
 8005964:	685b      	ldr	r3, [r3, #4]
 8005966:	f423 1180 	bic.w	r1, r3, #1048576	@ 0x100000
 800596a:	687b      	ldr	r3, [r7, #4]
 800596c:	6c5a      	ldr	r2, [r3, #68]	@ 0x44
 800596e:	687b      	ldr	r3, [r7, #4]
 8005970:	681b      	ldr	r3, [r3, #0]
 8005972:	430a      	orrs	r2, r1
 8005974:	605a      	str	r2, [r3, #4]
 8005976:	687b      	ldr	r3, [r7, #4]
 8005978:	6c5b      	ldr	r3, [r3, #68]	@ 0x44
 800597a:	f5b3 1f80 	cmp.w	r3, #1048576	@ 0x100000
 800597e:	d10a      	bne.n	8005996 <UART_AdvFeatureConfig+0x116>
 8005980:	687b      	ldr	r3, [r7, #4]
 8005982:	681b      	ldr	r3, [r3, #0]
 8005984:	685b      	ldr	r3, [r3, #4]
 8005986:	f423 01c0 	bic.w	r1, r3, #6291456	@ 0x600000
 800598a:	687b      	ldr	r3, [r7, #4]
 800598c:	6c9a      	ldr	r2, [r3, #72]	@ 0x48
 800598e:	687b      	ldr	r3, [r7, #4]
 8005990:	681b      	ldr	r3, [r3, #0]
 8005992:	430a      	orrs	r2, r1
 8005994:	605a      	str	r2, [r3, #4]
 8005996:	687b      	ldr	r3, [r7, #4]
 8005998:	6a9b      	ldr	r3, [r3, #40]	@ 0x28
 800599a:	f003 0380 	and.w	r3, r3, #128	@ 0x80
 800599e:	2b00      	cmp	r3, #0
 80059a0:	d00a      	beq.n	80059b8 <UART_AdvFeatureConfig+0x138>
 80059a2:	687b      	ldr	r3, [r7, #4]
 80059a4:	681b      	ldr	r3, [r3, #0]
 80059a6:	685b      	ldr	r3, [r3, #4]
 80059a8:	f423 2100 	bic.w	r1, r3, #524288	@ 0x80000
 80059ac:	687b      	ldr	r3, [r7, #4]
 80059ae:	6cda      	ldr	r2, [r3, #76]	@ 0x4c
 80059b0:	687b      	ldr	r3, [r7, #4]
 80059b2:	681b      	ldr	r3, [r3, #0]
 80059b4:	430a      	orrs	r2, r1
 80059b6:	605a      	str	r2, [r3, #4]
 80059b8:	bf00      	nop
 80059ba:	370c      	adds	r7, #12
 80059bc:	46bd      	mov	sp, r7
 80059be:	f85d 7b04 	ldr.w	r7, [sp], #4
 80059c2:	4770      	bx	lr

080059c4 <UART_CheckIdleState>:
 80059c4:	b580      	push	{r7, lr}
 80059c6:	b098      	sub	sp, #96	@ 0x60
 80059c8:	af02      	add	r7, sp, #8
 80059ca:	6078      	str	r0, [r7, #4]
 80059cc:	687b      	ldr	r3, [r7, #4]
 80059ce:	2200      	movs	r2, #0
 80059d0:	f8c3 2090 	str.w	r2, [r3, #144]	@ 0x90
 80059d4:	f7fb fb0e 	bl	8000ff4 <HAL_GetTick>
 80059d8:	6578      	str	r0, [r7, #84]	@ 0x54
 80059da:	687b      	ldr	r3, [r7, #4]
 80059dc:	681b      	ldr	r3, [r3, #0]
 80059de:	681b      	ldr	r3, [r3, #0]
 80059e0:	f003 0308 	and.w	r3, r3, #8
 80059e4:	2b08      	cmp	r3, #8
 80059e6:	d12f      	bne.n	8005a48 <UART_CheckIdleState+0x84>
 80059e8:	f06f 437e 	mvn.w	r3, #4261412864	@ 0xfe000000
 80059ec:	9300      	str	r3, [sp, #0]
 80059ee:	6d7b      	ldr	r3, [r7, #84]	@ 0x54
 80059f0:	2200      	movs	r2, #0
 80059f2:	f44f 1100 	mov.w	r1, #2097152	@ 0x200000
 80059f6:	6878      	ldr	r0, [r7, #4]
 80059f8:	f000 f88e 	bl	8005b18 <UART_WaitOnFlagUntilTimeout>
 80059fc:	4603      	mov	r3, r0
 80059fe:	2b00      	cmp	r3, #0
 8005a00:	d022      	beq.n	8005a48 <UART_CheckIdleState+0x84>
 8005a02:	687b      	ldr	r3, [r7, #4]
 8005a04:	681b      	ldr	r3, [r3, #0]
 8005a06:	63bb      	str	r3, [r7, #56]	@ 0x38
 8005a08:	6bbb      	ldr	r3, [r7, #56]	@ 0x38
 8005a0a:	e853 3f00 	ldrex	r3, [r3]
 8005a0e:	637b      	str	r3, [r7, #52]	@ 0x34
 8005a10:	6b7b      	ldr	r3, [r7, #52]	@ 0x34
 8005a12:	f023 0380 	bic.w	r3, r3, #128	@ 0x80
 8005a16:	653b      	str	r3, [r7, #80]	@ 0x50
 8005a18:	687b      	ldr	r3, [r7, #4]
 8005a1a:	681b      	ldr	r3, [r3, #0]
 8005a1c:	461a      	mov	r2, r3
 8005a1e:	6d3b      	ldr	r3, [r7, #80]	@ 0x50
 8005a20:	647b      	str	r3, [r7, #68]	@ 0x44
 8005a22:	643a      	str	r2, [r7, #64]	@ 0x40
 8005a24:	6c39      	ldr	r1, [r7, #64]	@ 0x40
 8005a26:	6c7a      	ldr	r2, [r7, #68]	@ 0x44
 8005a28:	e841 2300 	strex	r3, r2, [r1]
 8005a2c:	63fb      	str	r3, [r7, #60]	@ 0x3c
 8005a2e:	6bfb      	ldr	r3, [r7, #60]	@ 0x3c
 8005a30:	2b00      	cmp	r3, #0
 8005a32:	d1e6      	bne.n	8005a02 <UART_CheckIdleState+0x3e>
 8005a34:	687b      	ldr	r3, [r7, #4]
 8005a36:	2220      	movs	r2, #32
 8005a38:	f8c3 2088 	str.w	r2, [r3, #136]	@ 0x88
 8005a3c:	687b      	ldr	r3, [r7, #4]
 8005a3e:	2200      	movs	r2, #0
 8005a40:	f883 2084 	strb.w	r2, [r3, #132]	@ 0x84
 8005a44:	2303      	movs	r3, #3
 8005a46:	e063      	b.n	8005b10 <UART_CheckIdleState+0x14c>
 8005a48:	687b      	ldr	r3, [r7, #4]
 8005a4a:	681b      	ldr	r3, [r3, #0]
 8005a4c:	681b      	ldr	r3, [r3, #0]
 8005a4e:	f003 0304 	and.w	r3, r3, #4
 8005a52:	2b04      	cmp	r3, #4
 8005a54:	d149      	bne.n	8005aea <UART_CheckIdleState+0x126>
 8005a56:	f06f 437e 	mvn.w	r3, #4261412864	@ 0xfe000000
 8005a5a:	9300      	str	r3, [sp, #0]
 8005a5c:	6d7b      	ldr	r3, [r7, #84]	@ 0x54
 8005a5e:	2200      	movs	r2, #0
 8005a60:	f44f 0180 	mov.w	r1, #4194304	@ 0x400000
 8005a64:	6878      	ldr	r0, [r7, #4]
 8005a66:	f000 f857 	bl	8005b18 <UART_WaitOnFlagUntilTimeout>
 8005a6a:	4603      	mov	r3, r0
 8005a6c:	2b00      	cmp	r3, #0
 8005a6e:	d03c      	beq.n	8005aea <UART_CheckIdleState+0x126>
 8005a70:	687b      	ldr	r3, [r7, #4]
 8005a72:	681b      	ldr	r3, [r3, #0]
 8005a74:	627b      	str	r3, [r7, #36]	@ 0x24
 8005a76:	6a7b      	ldr	r3, [r7, #36]	@ 0x24
 8005a78:	e853 3f00 	ldrex	r3, [r3]
 8005a7c:	623b      	str	r3, [r7, #32]
 8005a7e:	6a3b      	ldr	r3, [r7, #32]
 8005a80:	f423 7390 	bic.w	r3, r3, #288	@ 0x120
 8005a84:	64fb      	str	r3, [r7, #76]	@ 0x4c
 8005a86:	687b      	ldr	r3, [r7, #4]
 8005a88:	681b      	ldr	r3, [r3, #0]
 8005a8a:	461a      	mov	r2, r3
 8005a8c:	6cfb      	ldr	r3, [r7, #76]	@ 0x4c
 8005a8e:	633b      	str	r3, [r7, #48]	@ 0x30
 8005a90:	62fa      	str	r2, [r7, #44]	@ 0x2c
 8005a92:	6af9      	ldr	r1, [r7, #44]	@ 0x2c
 8005a94:	6b3a      	ldr	r2, [r7, #48]	@ 0x30
 8005a96:	e841 2300 	strex	r3, r2, [r1]
 8005a9a:	62bb      	str	r3, [r7, #40]	@ 0x28
 8005a9c:	6abb      	ldr	r3, [r7, #40]	@ 0x28
 8005a9e:	2b00      	cmp	r3, #0
 8005aa0:	d1e6      	bne.n	8005a70 <UART_CheckIdleState+0xac>
 8005aa2:	687b      	ldr	r3, [r7, #4]
 8005aa4:	681b      	ldr	r3, [r3, #0]
 8005aa6:	3308      	adds	r3, #8
 8005aa8:	613b      	str	r3, [r7, #16]
 8005aaa:	693b      	ldr	r3, [r7, #16]
 8005aac:	e853 3f00 	ldrex	r3, [r3]
 8005ab0:	60fb      	str	r3, [r7, #12]
 8005ab2:	68fb      	ldr	r3, [r7, #12]
 8005ab4:	f023 0301 	bic.w	r3, r3, #1
 8005ab8:	64bb      	str	r3, [r7, #72]	@ 0x48
 8005aba:	687b      	ldr	r3, [r7, #4]
 8005abc:	681b      	ldr	r3, [r3, #0]
 8005abe:	3308      	adds	r3, #8
 8005ac0:	6cba      	ldr	r2, [r7, #72]	@ 0x48
 8005ac2:	61fa      	str	r2, [r7, #28]
 8005ac4:	61bb      	str	r3, [r7, #24]
 8005ac6:	69b9      	ldr	r1, [r7, #24]
 8005ac8:	69fa      	ldr	r2, [r7, #28]
 8005aca:	e841 2300 	strex	r3, r2, [r1]
 8005ace:	617b      	str	r3, [r7, #20]
 8005ad0:	697b      	ldr	r3, [r7, #20]
 8005ad2:	2b00      	cmp	r3, #0
 8005ad4:	d1e5      	bne.n	8005aa2 <UART_CheckIdleState+0xde>
 8005ad6:	687b      	ldr	r3, [r7, #4]
 8005ad8:	2220      	movs	r2, #32
 8005ada:	f8c3 208c 	str.w	r2, [r3, #140]	@ 0x8c
 8005ade:	687b      	ldr	r3, [r7, #4]
 8005ae0:	2200      	movs	r2, #0
 8005ae2:	f883 2084 	strb.w	r2, [r3, #132]	@ 0x84
 8005ae6:	2303      	movs	r3, #3
 8005ae8:	e012      	b.n	8005b10 <UART_CheckIdleState+0x14c>
 8005aea:	687b      	ldr	r3, [r7, #4]
 8005aec:	2220      	movs	r2, #32
 8005aee:	f8c3 2088 	str.w	r2, [r3, #136]	@ 0x88
 8005af2:	687b      	ldr	r3, [r7, #4]
 8005af4:	2220      	movs	r2, #32
 8005af6:	f8c3 208c 	str.w	r2, [r3, #140]	@ 0x8c
 8005afa:	687b      	ldr	r3, [r7, #4]
 8005afc:	2200      	movs	r2, #0
 8005afe:	66da      	str	r2, [r3, #108]	@ 0x6c
 8005b00:	687b      	ldr	r3, [r7, #4]
 8005b02:	2200      	movs	r2, #0
 8005b04:	671a      	str	r2, [r3, #112]	@ 0x70
 8005b06:	687b      	ldr	r3, [r7, #4]
 8005b08:	2200      	movs	r2, #0
 8005b0a:	f883 2084 	strb.w	r2, [r3, #132]	@ 0x84
 8005b0e:	2300      	movs	r3, #0
 8005b10:	4618      	mov	r0, r3
 8005b12:	3758      	adds	r7, #88	@ 0x58
 8005b14:	46bd      	mov	sp, r7
 8005b16:	bd80      	pop	{r7, pc}

08005b18 <UART_WaitOnFlagUntilTimeout>:
 8005b18:	b580      	push	{r7, lr}
 8005b1a:	b084      	sub	sp, #16
 8005b1c:	af00      	add	r7, sp, #0
 8005b1e:	60f8      	str	r0, [r7, #12]
 8005b20:	60b9      	str	r1, [r7, #8]
 8005b22:	603b      	str	r3, [r7, #0]
 8005b24:	4613      	mov	r3, r2
 8005b26:	71fb      	strb	r3, [r7, #7]
 8005b28:	e04f      	b.n	8005bca <UART_WaitOnFlagUntilTimeout+0xb2>
 8005b2a:	69bb      	ldr	r3, [r7, #24]
 8005b2c:	f1b3 3fff 	cmp.w	r3, #4294967295	@ 0xffffffff
 8005b30:	d04b      	beq.n	8005bca <UART_WaitOnFlagUntilTimeout+0xb2>
 8005b32:	f7fb fa5f 	bl	8000ff4 <HAL_GetTick>
 8005b36:	4602      	mov	r2, r0
 8005b38:	683b      	ldr	r3, [r7, #0]
 8005b3a:	1ad3      	subs	r3, r2, r3
 8005b3c:	69ba      	ldr	r2, [r7, #24]
 8005b3e:	429a      	cmp	r2, r3
 8005b40:	d302      	bcc.n	8005b48 <UART_WaitOnFlagUntilTimeout+0x30>
 8005b42:	69bb      	ldr	r3, [r7, #24]
 8005b44:	2b00      	cmp	r3, #0
 8005b46:	d101      	bne.n	8005b4c <UART_WaitOnFlagUntilTimeout+0x34>
 8005b48:	2303      	movs	r3, #3
 8005b4a:	e04e      	b.n	8005bea <UART_WaitOnFlagUntilTimeout+0xd2>
 8005b4c:	68fb      	ldr	r3, [r7, #12]
 8005b4e:	681b      	ldr	r3, [r3, #0]
 8005b50:	681b      	ldr	r3, [r3, #0]
 8005b52:	f003 0304 	and.w	r3, r3, #4
 8005b56:	2b00      	cmp	r3, #0
 8005b58:	d037      	beq.n	8005bca <UART_WaitOnFlagUntilTimeout+0xb2>
 8005b5a:	68bb      	ldr	r3, [r7, #8]
 8005b5c:	2b80      	cmp	r3, #128	@ 0x80
 8005b5e:	d034      	beq.n	8005bca <UART_WaitOnFlagUntilTimeout+0xb2>
 8005b60:	68bb      	ldr	r3, [r7, #8]
 8005b62:	2b40      	cmp	r3, #64	@ 0x40
 8005b64:	d031      	beq.n	8005bca <UART_WaitOnFlagUntilTimeout+0xb2>
 8005b66:	68fb      	ldr	r3, [r7, #12]
 8005b68:	681b      	ldr	r3, [r3, #0]
 8005b6a:	69db      	ldr	r3, [r3, #28]
 8005b6c:	f003 0308 	and.w	r3, r3, #8
 8005b70:	2b08      	cmp	r3, #8
 8005b72:	d110      	bne.n	8005b96 <UART_WaitOnFlagUntilTimeout+0x7e>
 8005b74:	68fb      	ldr	r3, [r7, #12]
 8005b76:	681b      	ldr	r3, [r3, #0]
 8005b78:	2208      	movs	r2, #8
 8005b7a:	621a      	str	r2, [r3, #32]
 8005b7c:	68f8      	ldr	r0, [r7, #12]
 8005b7e:	f000 f838 	bl	8005bf2 <UART_EndRxTransfer>
 8005b82:	68fb      	ldr	r3, [r7, #12]
 8005b84:	2208      	movs	r2, #8
 8005b86:	f8c3 2090 	str.w	r2, [r3, #144]	@ 0x90
 8005b8a:	68fb      	ldr	r3, [r7, #12]
 8005b8c:	2200      	movs	r2, #0
 8005b8e:	f883 2084 	strb.w	r2, [r3, #132]	@ 0x84
 8005b92:	2301      	movs	r3, #1
 8005b94:	e029      	b.n	8005bea <UART_WaitOnFlagUntilTimeout+0xd2>
 8005b96:	68fb      	ldr	r3, [r7, #12]
 8005b98:	681b      	ldr	r3, [r3, #0]
 8005b9a:	69db      	ldr	r3, [r3, #28]
 8005b9c:	f403 6300 	and.w	r3, r3, #2048	@ 0x800
 8005ba0:	f5b3 6f00 	cmp.w	r3, #2048	@ 0x800
 8005ba4:	d111      	bne.n	8005bca <UART_WaitOnFlagUntilTimeout+0xb2>
 8005ba6:	68fb      	ldr	r3, [r7, #12]
 8005ba8:	681b      	ldr	r3, [r3, #0]
 8005baa:	f44f 6200 	mov.w	r2, #2048	@ 0x800
 8005bae:	621a      	str	r2, [r3, #32]
 8005bb0:	68f8      	ldr	r0, [r7, #12]
 8005bb2:	f000 f81e 	bl	8005bf2 <UART_EndRxTransfer>
 8005bb6:	68fb      	ldr	r3, [r7, #12]
 8005bb8:	2220      	movs	r2, #32
 8005bba:	f8c3 2090 	str.w	r2, [r3, #144]	@ 0x90
 8005bbe:	68fb      	ldr	r3, [r7, #12]
 8005bc0:	2200      	movs	r2, #0
 8005bc2:	f883 2084 	strb.w	r2, [r3, #132]	@ 0x84
 8005bc6:	2303      	movs	r3, #3
 8005bc8:	e00f      	b.n	8005bea <UART_WaitOnFlagUntilTimeout+0xd2>
 8005bca:	68fb      	ldr	r3, [r7, #12]
 8005bcc:	681b      	ldr	r3, [r3, #0]
 8005bce:	69da      	ldr	r2, [r3, #28]
 8005bd0:	68bb      	ldr	r3, [r7, #8]
 8005bd2:	4013      	ands	r3, r2
 8005bd4:	68ba      	ldr	r2, [r7, #8]
 8005bd6:	429a      	cmp	r2, r3
 8005bd8:	bf0c      	ite	eq
 8005bda:	2301      	moveq	r3, #1
 8005bdc:	2300      	movne	r3, #0
 8005bde:	b2db      	uxtb	r3, r3
 8005be0:	461a      	mov	r2, r3
 8005be2:	79fb      	ldrb	r3, [r7, #7]
 8005be4:	429a      	cmp	r2, r3
 8005be6:	d0a0      	beq.n	8005b2a <UART_WaitOnFlagUntilTimeout+0x12>
 8005be8:	2300      	movs	r3, #0
 8005bea:	4618      	mov	r0, r3
 8005bec:	3710      	adds	r7, #16
 8005bee:	46bd      	mov	sp, r7
 8005bf0:	bd80      	pop	{r7, pc}

08005bf2 <UART_EndRxTransfer>:
 8005bf2:	b480      	push	{r7}
 8005bf4:	b095      	sub	sp, #84	@ 0x54
 8005bf6:	af00      	add	r7, sp, #0
 8005bf8:	6078      	str	r0, [r7, #4]
 8005bfa:	687b      	ldr	r3, [r7, #4]
 8005bfc:	681b      	ldr	r3, [r3, #0]
 8005bfe:	637b      	str	r3, [r7, #52]	@ 0x34
 8005c00:	6b7b      	ldr	r3, [r7, #52]	@ 0x34
 8005c02:	e853 3f00 	ldrex	r3, [r3]
 8005c06:	633b      	str	r3, [r7, #48]	@ 0x30
 8005c08:	6b3b      	ldr	r3, [r7, #48]	@ 0x30
 8005c0a:	f423 7390 	bic.w	r3, r3, #288	@ 0x120
 8005c0e:	64fb      	str	r3, [r7, #76]	@ 0x4c
 8005c10:	687b      	ldr	r3, [r7, #4]
 8005c12:	681b      	ldr	r3, [r3, #0]
 8005c14:	461a      	mov	r2, r3
 8005c16:	6cfb      	ldr	r3, [r7, #76]	@ 0x4c
 8005c18:	643b      	str	r3, [r7, #64]	@ 0x40
 8005c1a:	63fa      	str	r2, [r7, #60]	@ 0x3c
 8005c1c:	6bf9      	ldr	r1, [r7, #60]	@ 0x3c
 8005c1e:	6c3a      	ldr	r2, [r7, #64]	@ 0x40
 8005c20:	e841 2300 	strex	r3, r2, [r1]
 8005c24:	63bb      	str	r3, [r7, #56]	@ 0x38
 8005c26:	6bbb      	ldr	r3, [r7, #56]	@ 0x38
 8005c28:	2b00      	cmp	r3, #0
 8005c2a:	d1e6      	bne.n	8005bfa <UART_EndRxTransfer+0x8>
 8005c2c:	687b      	ldr	r3, [r7, #4]
 8005c2e:	681b      	ldr	r3, [r3, #0]
 8005c30:	3308      	adds	r3, #8
 8005c32:	623b      	str	r3, [r7, #32]
 8005c34:	6a3b      	ldr	r3, [r7, #32]
 8005c36:	e853 3f00 	ldrex	r3, [r3]
 8005c3a:	61fb      	str	r3, [r7, #28]
 8005c3c:	69fb      	ldr	r3, [r7, #28]
 8005c3e:	f023 5380 	bic.w	r3, r3, #268435456	@ 0x10000000
 8005c42:	f023 0301 	bic.w	r3, r3, #1
 8005c46:	64bb      	str	r3, [r7, #72]	@ 0x48
 8005c48:	687b      	ldr	r3, [r7, #4]
 8005c4a:	681b      	ldr	r3, [r3, #0]
 8005c4c:	3308      	adds	r3, #8
 8005c4e:	6cba      	ldr	r2, [r7, #72]	@ 0x48
 8005c50:	62fa      	str	r2, [r7, #44]	@ 0x2c
 8005c52:	62bb      	str	r3, [r7, #40]	@ 0x28
 8005c54:	6ab9      	ldr	r1, [r7, #40]	@ 0x28
 8005c56:	6afa      	ldr	r2, [r7, #44]	@ 0x2c
 8005c58:	e841 2300 	strex	r3, r2, [r1]
 8005c5c:	627b      	str	r3, [r7, #36]	@ 0x24
 8005c5e:	6a7b      	ldr	r3, [r7, #36]	@ 0x24
 8005c60:	2b00      	cmp	r3, #0
 8005c62:	d1e3      	bne.n	8005c2c <UART_EndRxTransfer+0x3a>
 8005c64:	687b      	ldr	r3, [r7, #4]
 8005c66:	6edb      	ldr	r3, [r3, #108]	@ 0x6c
 8005c68:	2b01      	cmp	r3, #1
 8005c6a:	d118      	bne.n	8005c9e <UART_EndRxTransfer+0xac>
 8005c6c:	687b      	ldr	r3, [r7, #4]
 8005c6e:	681b      	ldr	r3, [r3, #0]
 8005c70:	60fb      	str	r3, [r7, #12]
 8005c72:	68fb      	ldr	r3, [r7, #12]
 8005c74:	e853 3f00 	ldrex	r3, [r3]
 8005c78:	60bb      	str	r3, [r7, #8]
 8005c7a:	68bb      	ldr	r3, [r7, #8]
 8005c7c:	f023 0310 	bic.w	r3, r3, #16
 8005c80:	647b      	str	r3, [r7, #68]	@ 0x44
 8005c82:	687b      	ldr	r3, [r7, #4]
 8005c84:	681b      	ldr	r3, [r3, #0]
 8005c86:	461a      	mov	r2, r3
 8005c88:	6c7b      	ldr	r3, [r7, #68]	@ 0x44
 8005c8a:	61bb      	str	r3, [r7, #24]
 8005c8c:	617a      	str	r2, [r7, #20]
 8005c8e:	6979      	ldr	r1, [r7, #20]
 8005c90:	69ba      	ldr	r2, [r7, #24]
 8005c92:	e841 2300 	strex	r3, r2, [r1]
 8005c96:	613b      	str	r3, [r7, #16]
 8005c98:	693b      	ldr	r3, [r7, #16]
 8005c9a:	2b00      	cmp	r3, #0
 8005c9c:	d1e6      	bne.n	8005c6c <UART_EndRxTransfer+0x7a>
 8005c9e:	687b      	ldr	r3, [r7, #4]
 8005ca0:	2220      	movs	r2, #32
 8005ca2:	f8c3 208c 	str.w	r2, [r3, #140]	@ 0x8c
 8005ca6:	687b      	ldr	r3, [r7, #4]
 8005ca8:	2200      	movs	r2, #0
 8005caa:	66da      	str	r2, [r3, #108]	@ 0x6c
 8005cac:	687b      	ldr	r3, [r7, #4]
 8005cae:	2200      	movs	r2, #0
 8005cb0:	675a      	str	r2, [r3, #116]	@ 0x74
 8005cb2:	bf00      	nop
 8005cb4:	3754      	adds	r7, #84	@ 0x54
 8005cb6:	46bd      	mov	sp, r7
 8005cb8:	f85d 7b04 	ldr.w	r7, [sp], #4
 8005cbc:	4770      	bx	lr

08005cbe <HAL_UARTEx_DisableFifoMode>:
 8005cbe:	b480      	push	{r7}
 8005cc0:	b085      	sub	sp, #20
 8005cc2:	af00      	add	r7, sp, #0
 8005cc4:	6078      	str	r0, [r7, #4]
 8005cc6:	687b      	ldr	r3, [r7, #4]
 8005cc8:	f893 3084 	ldrb.w	r3, [r3, #132]	@ 0x84
 8005ccc:	2b01      	cmp	r3, #1
 8005cce:	d101      	bne.n	8005cd4 <HAL_UARTEx_DisableFifoMode+0x16>
 8005cd0:	2302      	movs	r3, #2
 8005cd2:	e027      	b.n	8005d24 <HAL_UARTEx_DisableFifoMode+0x66>
 8005cd4:	687b      	ldr	r3, [r7, #4]
 8005cd6:	2201      	movs	r2, #1
 8005cd8:	f883 2084 	strb.w	r2, [r3, #132]	@ 0x84
 8005cdc:	687b      	ldr	r3, [r7, #4]
 8005cde:	2224      	movs	r2, #36	@ 0x24
 8005ce0:	f8c3 2088 	str.w	r2, [r3, #136]	@ 0x88
 8005ce4:	687b      	ldr	r3, [r7, #4]
 8005ce6:	681b      	ldr	r3, [r3, #0]
 8005ce8:	681b      	ldr	r3, [r3, #0]
 8005cea:	60fb      	str	r3, [r7, #12]
 8005cec:	687b      	ldr	r3, [r7, #4]
 8005cee:	681b      	ldr	r3, [r3, #0]
 8005cf0:	681a      	ldr	r2, [r3, #0]
 8005cf2:	687b      	ldr	r3, [r7, #4]
 8005cf4:	681b      	ldr	r3, [r3, #0]
 8005cf6:	f022 0201 	bic.w	r2, r2, #1
 8005cfa:	601a      	str	r2, [r3, #0]
 8005cfc:	68fb      	ldr	r3, [r7, #12]
 8005cfe:	f023 5300 	bic.w	r3, r3, #536870912	@ 0x20000000
 8005d02:	60fb      	str	r3, [r7, #12]
 8005d04:	687b      	ldr	r3, [r7, #4]
 8005d06:	2200      	movs	r2, #0
 8005d08:	665a      	str	r2, [r3, #100]	@ 0x64
 8005d0a:	687b      	ldr	r3, [r7, #4]
 8005d0c:	681b      	ldr	r3, [r3, #0]
 8005d0e:	68fa      	ldr	r2, [r7, #12]
 8005d10:	601a      	str	r2, [r3, #0]
 8005d12:	687b      	ldr	r3, [r7, #4]
 8005d14:	2220      	movs	r2, #32
 8005d16:	f8c3 2088 	str.w	r2, [r3, #136]	@ 0x88
 8005d1a:	687b      	ldr	r3, [r7, #4]
 8005d1c:	2200      	movs	r2, #0
 8005d1e:	f883 2084 	strb.w	r2, [r3, #132]	@ 0x84
 8005d22:	2300      	movs	r3, #0
 8005d24:	4618      	mov	r0, r3
 8005d26:	3714      	adds	r7, #20
 8005d28:	46bd      	mov	sp, r7
 8005d2a:	f85d 7b04 	ldr.w	r7, [sp], #4
 8005d2e:	4770      	bx	lr

08005d30 <HAL_UARTEx_SetTxFifoThreshold>:
 8005d30:	b580      	push	{r7, lr}
 8005d32:	b084      	sub	sp, #16
 8005d34:	af00      	add	r7, sp, #0
 8005d36:	6078      	str	r0, [r7, #4]
 8005d38:	6039      	str	r1, [r7, #0]
 8005d3a:	687b      	ldr	r3, [r7, #4]
 8005d3c:	f893 3084 	ldrb.w	r3, [r3, #132]	@ 0x84
 8005d40:	2b01      	cmp	r3, #1
 8005d42:	d101      	bne.n	8005d48 <HAL_UARTEx_SetTxFifoThreshold+0x18>
 8005d44:	2302      	movs	r3, #2
 8005d46:	e02d      	b.n	8005da4 <HAL_UARTEx_SetTxFifoThreshold+0x74>
 8005d48:	687b      	ldr	r3, [r7, #4]
 8005d4a:	2201      	movs	r2, #1
 8005d4c:	f883 2084 	strb.w	r2, [r3, #132]	@ 0x84
 8005d50:	687b      	ldr	r3, [r7, #4]
 8005d52:	2224      	movs	r2, #36	@ 0x24
 8005d54:	f8c3 2088 	str.w	r2, [r3, #136]	@ 0x88
 8005d58:	687b      	ldr	r3, [r7, #4]
 8005d5a:	681b      	ldr	r3, [r3, #0]
 8005d5c:	681b      	ldr	r3, [r3, #0]
 8005d5e:	60fb      	str	r3, [r7, #12]
 8005d60:	687b      	ldr	r3, [r7, #4]
 8005d62:	681b      	ldr	r3, [r3, #0]
 8005d64:	681a      	ldr	r2, [r3, #0]
 8005d66:	687b      	ldr	r3, [r7, #4]
 8005d68:	681b      	ldr	r3, [r3, #0]
 8005d6a:	f022 0201 	bic.w	r2, r2, #1
 8005d6e:	601a      	str	r2, [r3, #0]
 8005d70:	687b      	ldr	r3, [r7, #4]
 8005d72:	681b      	ldr	r3, [r3, #0]
 8005d74:	689b      	ldr	r3, [r3, #8]
 8005d76:	f023 4160 	bic.w	r1, r3, #3758096384	@ 0xe0000000
 8005d7a:	687b      	ldr	r3, [r7, #4]
 8005d7c:	681b      	ldr	r3, [r3, #0]
 8005d7e:	683a      	ldr	r2, [r7, #0]
 8005d80:	430a      	orrs	r2, r1
 8005d82:	609a      	str	r2, [r3, #8]
 8005d84:	6878      	ldr	r0, [r7, #4]
 8005d86:	f000 f84f 	bl	8005e28 <UARTEx_SetNbDataToProcess>
 8005d8a:	687b      	ldr	r3, [r7, #4]
 8005d8c:	681b      	ldr	r3, [r3, #0]
 8005d8e:	68fa      	ldr	r2, [r7, #12]
 8005d90:	601a      	str	r2, [r3, #0]
 8005d92:	687b      	ldr	r3, [r7, #4]
 8005d94:	2220      	movs	r2, #32
 8005d96:	f8c3 2088 	str.w	r2, [r3, #136]	@ 0x88
 8005d9a:	687b      	ldr	r3, [r7, #4]
 8005d9c:	2200      	movs	r2, #0
 8005d9e:	f883 2084 	strb.w	r2, [r3, #132]	@ 0x84
 8005da2:	2300      	movs	r3, #0
 8005da4:	4618      	mov	r0, r3
 8005da6:	3710      	adds	r7, #16
 8005da8:	46bd      	mov	sp, r7
 8005daa:	bd80      	pop	{r7, pc}

08005dac <HAL_UARTEx_SetRxFifoThreshold>:
 8005dac:	b580      	push	{r7, lr}
 8005dae:	b084      	sub	sp, #16
 8005db0:	af00      	add	r7, sp, #0
 8005db2:	6078      	str	r0, [r7, #4]
 8005db4:	6039      	str	r1, [r7, #0]
 8005db6:	687b      	ldr	r3, [r7, #4]
 8005db8:	f893 3084 	ldrb.w	r3, [r3, #132]	@ 0x84
 8005dbc:	2b01      	cmp	r3, #1
 8005dbe:	d101      	bne.n	8005dc4 <HAL_UARTEx_SetRxFifoThreshold+0x18>
 8005dc0:	2302      	movs	r3, #2
 8005dc2:	e02d      	b.n	8005e20 <HAL_UARTEx_SetRxFifoThreshold+0x74>
 8005dc4:	687b      	ldr	r3, [r7, #4]
 8005dc6:	2201      	movs	r2, #1
 8005dc8:	f883 2084 	strb.w	r2, [r3, #132]	@ 0x84
 8005dcc:	687b      	ldr	r3, [r7, #4]
 8005dce:	2224      	movs	r2, #36	@ 0x24
 8005dd0:	f8c3 2088 	str.w	r2, [r3, #136]	@ 0x88
 8005dd4:	687b      	ldr	r3, [r7, #4]
 8005dd6:	681b      	ldr	r3, [r3, #0]
 8005dd8:	681b      	ldr	r3, [r3, #0]
 8005dda:	60fb      	str	r3, [r7, #12]
 8005ddc:	687b      	ldr	r3, [r7, #4]
 8005dde:	681b      	ldr	r3, [r3, #0]
 8005de0:	681a      	ldr	r2, [r3, #0]
 8005de2:	687b      	ldr	r3, [r7, #4]
 8005de4:	681b      	ldr	r3, [r3, #0]
 8005de6:	f022 0201 	bic.w	r2, r2, #1
 8005dea:	601a      	str	r2, [r3, #0]
 8005dec:	687b      	ldr	r3, [r7, #4]
 8005dee:	681b      	ldr	r3, [r3, #0]
 8005df0:	689b      	ldr	r3, [r3, #8]
 8005df2:	f023 6160 	bic.w	r1, r3, #234881024	@ 0xe000000
 8005df6:	687b      	ldr	r3, [r7, #4]
 8005df8:	681b      	ldr	r3, [r3, #0]
 8005dfa:	683a      	ldr	r2, [r7, #0]
 8005dfc:	430a      	orrs	r2, r1
 8005dfe:	609a      	str	r2, [r3, #8]
 8005e00:	6878      	ldr	r0, [r7, #4]
 8005e02:	f000 f811 	bl	8005e28 <UARTEx_SetNbDataToProcess>
 8005e06:	687b      	ldr	r3, [r7, #4]
 8005e08:	681b      	ldr	r3, [r3, #0]
 8005e0a:	68fa      	ldr	r2, [r7, #12]
 8005e0c:	601a      	str	r2, [r3, #0]
 8005e0e:	687b      	ldr	r3, [r7, #4]
 8005e10:	2220      	movs	r2, #32
 8005e12:	f8c3 2088 	str.w	r2, [r3, #136]	@ 0x88
 8005e16:	687b      	ldr	r3, [r7, #4]
 8005e18:	2200      	movs	r2, #0
 8005e1a:	f883 2084 	strb.w	r2, [r3, #132]	@ 0x84
 8005e1e:	2300      	movs	r3, #0
 8005e20:	4618      	mov	r0, r3
 8005e22:	3710      	adds	r7, #16
 8005e24:	46bd      	mov	sp, r7
 8005e26:	bd80      	pop	{r7, pc}

08005e28 <UARTEx_SetNbDataToProcess>:
 8005e28:	b480      	push	{r7}
 8005e2a:	b085      	sub	sp, #20
 8005e2c:	af00      	add	r7, sp, #0
 8005e2e:	6078      	str	r0, [r7, #4]
 8005e30:	687b      	ldr	r3, [r7, #4]
 8005e32:	6e5b      	ldr	r3, [r3, #100]	@ 0x64
 8005e34:	2b00      	cmp	r3, #0
 8005e36:	d108      	bne.n	8005e4a <UARTEx_SetNbDataToProcess+0x22>
 8005e38:	687b      	ldr	r3, [r7, #4]
 8005e3a:	2201      	movs	r2, #1
 8005e3c:	f8a3 206a 	strh.w	r2, [r3, #106]	@ 0x6a
 8005e40:	687b      	ldr	r3, [r7, #4]
 8005e42:	2201      	movs	r2, #1
 8005e44:	f8a3 2068 	strh.w	r2, [r3, #104]	@ 0x68
 8005e48:	e031      	b.n	8005eae <UARTEx_SetNbDataToProcess+0x86>
 8005e4a:	2308      	movs	r3, #8
 8005e4c:	73fb      	strb	r3, [r7, #15]
 8005e4e:	2308      	movs	r3, #8
 8005e50:	73bb      	strb	r3, [r7, #14]
 8005e52:	687b      	ldr	r3, [r7, #4]
 8005e54:	681b      	ldr	r3, [r3, #0]
 8005e56:	689b      	ldr	r3, [r3, #8]
 8005e58:	0e5b      	lsrs	r3, r3, #25
 8005e5a:	b2db      	uxtb	r3, r3
 8005e5c:	f003 0307 	and.w	r3, r3, #7
 8005e60:	737b      	strb	r3, [r7, #13]
 8005e62:	687b      	ldr	r3, [r7, #4]
 8005e64:	681b      	ldr	r3, [r3, #0]
 8005e66:	689b      	ldr	r3, [r3, #8]
 8005e68:	0f5b      	lsrs	r3, r3, #29
 8005e6a:	b2db      	uxtb	r3, r3
 8005e6c:	f003 0307 	and.w	r3, r3, #7
 8005e70:	733b      	strb	r3, [r7, #12]
 8005e72:	7bbb      	ldrb	r3, [r7, #14]
 8005e74:	7b3a      	ldrb	r2, [r7, #12]
 8005e76:	4911      	ldr	r1, [pc, #68]	@ (8005ebc <UARTEx_SetNbDataToProcess+0x94>)
 8005e78:	5c8a      	ldrb	r2, [r1, r2]
 8005e7a:	fb02 f303 	mul.w	r3, r2, r3
 8005e7e:	7b3a      	ldrb	r2, [r7, #12]
 8005e80:	490f      	ldr	r1, [pc, #60]	@ (8005ec0 <UARTEx_SetNbDataToProcess+0x98>)
 8005e82:	5c8a      	ldrb	r2, [r1, r2]
 8005e84:	fb93 f3f2 	sdiv	r3, r3, r2
 8005e88:	b29a      	uxth	r2, r3
 8005e8a:	687b      	ldr	r3, [r7, #4]
 8005e8c:	f8a3 206a 	strh.w	r2, [r3, #106]	@ 0x6a
 8005e90:	7bfb      	ldrb	r3, [r7, #15]
 8005e92:	7b7a      	ldrb	r2, [r7, #13]
 8005e94:	4909      	ldr	r1, [pc, #36]	@ (8005ebc <UARTEx_SetNbDataToProcess+0x94>)
 8005e96:	5c8a      	ldrb	r2, [r1, r2]
 8005e98:	fb02 f303 	mul.w	r3, r2, r3
 8005e9c:	7b7a      	ldrb	r2, [r7, #13]
 8005e9e:	4908      	ldr	r1, [pc, #32]	@ (8005ec0 <UARTEx_SetNbDataToProcess+0x98>)
 8005ea0:	5c8a      	ldrb	r2, [r1, r2]
 8005ea2:	fb93 f3f2 	sdiv	r3, r3, r2
 8005ea6:	b29a      	uxth	r2, r3
 8005ea8:	687b      	ldr	r3, [r7, #4]
 8005eaa:	f8a3 2068 	strh.w	r2, [r3, #104]	@ 0x68
 8005eae:	bf00      	nop
 8005eb0:	3714      	adds	r7, #20
 8005eb2:	46bd      	mov	sp, r7
 8005eb4:	f85d 7b04 	ldr.w	r7, [sp], #4
 8005eb8:	4770      	bx	lr
 8005eba:	bf00      	nop
 8005ebc:	08006da0 	.word	0x08006da0
 8005ec0:	08006da8 	.word	0x08006da8

08005ec4 <std>:
 8005ec4:	2300      	movs	r3, #0
 8005ec6:	b510      	push	{r4, lr}
 8005ec8:	4604      	mov	r4, r0
 8005eca:	e9c0 3300 	strd	r3, r3, [r0]
 8005ece:	e9c0 3304 	strd	r3, r3, [r0, #16]
 8005ed2:	6083      	str	r3, [r0, #8]
 8005ed4:	8181      	strh	r1, [r0, #12]
 8005ed6:	6643      	str	r3, [r0, #100]	@ 0x64
 8005ed8:	81c2      	strh	r2, [r0, #14]
 8005eda:	6183      	str	r3, [r0, #24]
 8005edc:	4619      	mov	r1, r3
 8005ede:	2208      	movs	r2, #8
 8005ee0:	305c      	adds	r0, #92	@ 0x5c
 8005ee2:	f000 f906 	bl	80060f2 <memset>
 8005ee6:	4b0d      	ldr	r3, [pc, #52]	@ (8005f1c <std+0x58>)
 8005ee8:	6263      	str	r3, [r4, #36]	@ 0x24
 8005eea:	4b0d      	ldr	r3, [pc, #52]	@ (8005f20 <std+0x5c>)
 8005eec:	62a3      	str	r3, [r4, #40]	@ 0x28
 8005eee:	4b0d      	ldr	r3, [pc, #52]	@ (8005f24 <std+0x60>)
 8005ef0:	62e3      	str	r3, [r4, #44]	@ 0x2c
 8005ef2:	4b0d      	ldr	r3, [pc, #52]	@ (8005f28 <std+0x64>)
 8005ef4:	6323      	str	r3, [r4, #48]	@ 0x30
 8005ef6:	4b0d      	ldr	r3, [pc, #52]	@ (8005f2c <std+0x68>)
 8005ef8:	6224      	str	r4, [r4, #32]
 8005efa:	429c      	cmp	r4, r3
 8005efc:	d006      	beq.n	8005f0c <std+0x48>
 8005efe:	f103 0268 	add.w	r2, r3, #104	@ 0x68
 8005f02:	4294      	cmp	r4, r2
 8005f04:	d002      	beq.n	8005f0c <std+0x48>
 8005f06:	33d0      	adds	r3, #208	@ 0xd0
 8005f08:	429c      	cmp	r4, r3
 8005f0a:	d105      	bne.n	8005f18 <std+0x54>
 8005f0c:	f104 0058 	add.w	r0, r4, #88	@ 0x58
 8005f10:	e8bd 4010 	ldmia.w	sp!, {r4, lr}
 8005f14:	f000 b966 	b.w	80061e4 <__retarget_lock_init_recursive>
 8005f18:	bd10      	pop	{r4, pc}
 8005f1a:	bf00      	nop
 8005f1c:	0800606d 	.word	0x0800606d
 8005f20:	0800608f 	.word	0x0800608f
 8005f24:	080060c7 	.word	0x080060c7
 8005f28:	080060eb 	.word	0x080060eb
 8005f2c:	200001d8 	.word	0x200001d8

08005f30 <stdio_exit_handler>:
 8005f30:	4a02      	ldr	r2, [pc, #8]	@ (8005f3c <stdio_exit_handler+0xc>)
 8005f32:	4903      	ldr	r1, [pc, #12]	@ (8005f40 <stdio_exit_handler+0x10>)
 8005f34:	4803      	ldr	r0, [pc, #12]	@ (8005f44 <stdio_exit_handler+0x14>)
 8005f36:	f000 b869 	b.w	800600c <_fwalk_sglue>
 8005f3a:	bf00      	nop
 8005f3c:	2000000c 	.word	0x2000000c
 8005f40:	08006a85 	.word	0x08006a85
 8005f44:	2000001c 	.word	0x2000001c

08005f48 <cleanup_stdio>:
 8005f48:	6841      	ldr	r1, [r0, #4]
 8005f4a:	4b0c      	ldr	r3, [pc, #48]	@ (8005f7c <cleanup_stdio+0x34>)
 8005f4c:	4299      	cmp	r1, r3
 8005f4e:	b510      	push	{r4, lr}
 8005f50:	4604      	mov	r4, r0
 8005f52:	d001      	beq.n	8005f58 <cleanup_stdio+0x10>
 8005f54:	f000 fd96 	bl	8006a84 <_fflush_r>
 8005f58:	68a1      	ldr	r1, [r4, #8]
 8005f5a:	4b09      	ldr	r3, [pc, #36]	@ (8005f80 <cleanup_stdio+0x38>)
 8005f5c:	4299      	cmp	r1, r3
 8005f5e:	d002      	beq.n	8005f66 <cleanup_stdio+0x1e>
 8005f60:	4620      	mov	r0, r4
 8005f62:	f000 fd8f 	bl	8006a84 <_fflush_r>
 8005f66:	68e1      	ldr	r1, [r4, #12]
 8005f68:	4b06      	ldr	r3, [pc, #24]	@ (8005f84 <cleanup_stdio+0x3c>)
 8005f6a:	4299      	cmp	r1, r3
 8005f6c:	d004      	beq.n	8005f78 <cleanup_stdio+0x30>
 8005f6e:	4620      	mov	r0, r4
 8005f70:	e8bd 4010 	ldmia.w	sp!, {r4, lr}
 8005f74:	f000 bd86 	b.w	8006a84 <_fflush_r>
 8005f78:	bd10      	pop	{r4, pc}
 8005f7a:	bf00      	nop
 8005f7c:	200001d8 	.word	0x200001d8
 8005f80:	20000240 	.word	0x20000240
 8005f84:	200002a8 	.word	0x200002a8

08005f88 <global_stdio_init.part.0>:
 8005f88:	b510      	push	{r4, lr}
 8005f8a:	4b0b      	ldr	r3, [pc, #44]	@ (8005fb8 <global_stdio_init.part.0+0x30>)
 8005f8c:	4c0b      	ldr	r4, [pc, #44]	@ (8005fbc <global_stdio_init.part.0+0x34>)
 8005f8e:	4a0c      	ldr	r2, [pc, #48]	@ (8005fc0 <global_stdio_init.part.0+0x38>)
 8005f90:	601a      	str	r2, [r3, #0]
 8005f92:	4620      	mov	r0, r4
 8005f94:	2200      	movs	r2, #0
 8005f96:	2104      	movs	r1, #4
 8005f98:	f7ff ff94 	bl	8005ec4 <std>
 8005f9c:	f104 0068 	add.w	r0, r4, #104	@ 0x68
 8005fa0:	2201      	movs	r2, #1
 8005fa2:	2109      	movs	r1, #9
 8005fa4:	f7ff ff8e 	bl	8005ec4 <std>
 8005fa8:	f104 00d0 	add.w	r0, r4, #208	@ 0xd0
 8005fac:	2202      	movs	r2, #2
 8005fae:	e8bd 4010 	ldmia.w	sp!, {r4, lr}
 8005fb2:	2112      	movs	r1, #18
 8005fb4:	f7ff bf86 	b.w	8005ec4 <std>
 8005fb8:	20000310 	.word	0x20000310
 8005fbc:	200001d8 	.word	0x200001d8
 8005fc0:	08005f31 	.word	0x08005f31

08005fc4 <__sfp_lock_acquire>:
 8005fc4:	4801      	ldr	r0, [pc, #4]	@ (8005fcc <__sfp_lock_acquire+0x8>)
 8005fc6:	f000 b90e 	b.w	80061e6 <__retarget_lock_acquire_recursive>
 8005fca:	bf00      	nop
 8005fcc:	20000319 	.word	0x20000319

08005fd0 <__sfp_lock_release>:
 8005fd0:	4801      	ldr	r0, [pc, #4]	@ (8005fd8 <__sfp_lock_release+0x8>)
 8005fd2:	f000 b909 	b.w	80061e8 <__retarget_lock_release_recursive>
 8005fd6:	bf00      	nop
 8005fd8:	20000319 	.word	0x20000319

08005fdc <__sinit>:
 8005fdc:	b510      	push	{r4, lr}
 8005fde:	4604      	mov	r4, r0
 8005fe0:	f7ff fff0 	bl	8005fc4 <__sfp_lock_acquire>
 8005fe4:	6a23      	ldr	r3, [r4, #32]
 8005fe6:	b11b      	cbz	r3, 8005ff0 <__sinit+0x14>
 8005fe8:	e8bd 4010 	ldmia.w	sp!, {r4, lr}
 8005fec:	f7ff bff0 	b.w	8005fd0 <__sfp_lock_release>
 8005ff0:	4b04      	ldr	r3, [pc, #16]	@ (8006004 <__sinit+0x28>)
 8005ff2:	6223      	str	r3, [r4, #32]
 8005ff4:	4b04      	ldr	r3, [pc, #16]	@ (8006008 <__sinit+0x2c>)
 8005ff6:	681b      	ldr	r3, [r3, #0]
 8005ff8:	2b00      	cmp	r3, #0
 8005ffa:	d1f5      	bne.n	8005fe8 <__sinit+0xc>
 8005ffc:	f7ff ffc4 	bl	8005f88 <global_stdio_init.part.0>
 8006000:	e7f2      	b.n	8005fe8 <__sinit+0xc>
 8006002:	bf00      	nop
 8006004:	08005f49 	.word	0x08005f49
 8006008:	20000310 	.word	0x20000310

0800600c <_fwalk_sglue>:
 800600c:	e92d 43f8 	stmdb	sp!, {r3, r4, r5, r6, r7, r8, r9, lr}
 8006010:	4607      	mov	r7, r0
 8006012:	4688      	mov	r8, r1
 8006014:	4614      	mov	r4, r2
 8006016:	2600      	movs	r6, #0
 8006018:	e9d4 9501 	ldrd	r9, r5, [r4, #4]
 800601c:	f1b9 0901 	subs.w	r9, r9, #1
 8006020:	d505      	bpl.n	800602e <_fwalk_sglue+0x22>
 8006022:	6824      	ldr	r4, [r4, #0]
 8006024:	2c00      	cmp	r4, #0
 8006026:	d1f7      	bne.n	8006018 <_fwalk_sglue+0xc>
 8006028:	4630      	mov	r0, r6
 800602a:	e8bd 83f8 	ldmia.w	sp!, {r3, r4, r5, r6, r7, r8, r9, pc}
 800602e:	89ab      	ldrh	r3, [r5, #12]
 8006030:	2b01      	cmp	r3, #1
 8006032:	d907      	bls.n	8006044 <_fwalk_sglue+0x38>
 8006034:	f9b5 300e 	ldrsh.w	r3, [r5, #14]
 8006038:	3301      	adds	r3, #1
 800603a:	d003      	beq.n	8006044 <_fwalk_sglue+0x38>
 800603c:	4629      	mov	r1, r5
 800603e:	4638      	mov	r0, r7
 8006040:	47c0      	blx	r8
 8006042:	4306      	orrs	r6, r0
 8006044:	3568      	adds	r5, #104	@ 0x68
 8006046:	e7e9      	b.n	800601c <_fwalk_sglue+0x10>

08006048 <iprintf>:
 8006048:	b40f      	push	{r0, r1, r2, r3}
 800604a:	b507      	push	{r0, r1, r2, lr}
 800604c:	4906      	ldr	r1, [pc, #24]	@ (8006068 <iprintf+0x20>)
 800604e:	ab04      	add	r3, sp, #16
 8006050:	6808      	ldr	r0, [r1, #0]
 8006052:	f853 2b04 	ldr.w	r2, [r3], #4
 8006056:	6881      	ldr	r1, [r0, #8]
 8006058:	9301      	str	r3, [sp, #4]
 800605a:	f000 f9e9 	bl	8006430 <_vfiprintf_r>
 800605e:	b003      	add	sp, #12
 8006060:	f85d eb04 	ldr.w	lr, [sp], #4
 8006064:	b004      	add	sp, #16
 8006066:	4770      	bx	lr
 8006068:	20000018 	.word	0x20000018

0800606c <__sread>:
 800606c:	b510      	push	{r4, lr}
 800606e:	460c      	mov	r4, r1
 8006070:	f9b1 100e 	ldrsh.w	r1, [r1, #14]
 8006074:	f000 f868 	bl	8006148 <_read_r>
 8006078:	2800      	cmp	r0, #0
 800607a:	bfab      	itete	ge
 800607c:	6d63      	ldrge	r3, [r4, #84]	@ 0x54
 800607e:	89a3      	ldrhlt	r3, [r4, #12]
 8006080:	181b      	addge	r3, r3, r0
 8006082:	f423 5380 	biclt.w	r3, r3, #4096	@ 0x1000
 8006086:	bfac      	ite	ge
 8006088:	6563      	strge	r3, [r4, #84]	@ 0x54
 800608a:	81a3      	strhlt	r3, [r4, #12]
 800608c:	bd10      	pop	{r4, pc}

0800608e <__swrite>:
 800608e:	e92d 41f0 	stmdb	sp!, {r4, r5, r6, r7, r8, lr}
 8006092:	461f      	mov	r7, r3
 8006094:	898b      	ldrh	r3, [r1, #12]
 8006096:	05db      	lsls	r3, r3, #23
 8006098:	4605      	mov	r5, r0
 800609a:	460c      	mov	r4, r1
 800609c:	4616      	mov	r6, r2
 800609e:	d505      	bpl.n	80060ac <__swrite+0x1e>
 80060a0:	f9b1 100e 	ldrsh.w	r1, [r1, #14]
 80060a4:	2302      	movs	r3, #2
 80060a6:	2200      	movs	r2, #0
 80060a8:	f000 f83c 	bl	8006124 <_lseek_r>
 80060ac:	89a3      	ldrh	r3, [r4, #12]
 80060ae:	f9b4 100e 	ldrsh.w	r1, [r4, #14]
 80060b2:	f423 5380 	bic.w	r3, r3, #4096	@ 0x1000
 80060b6:	81a3      	strh	r3, [r4, #12]
 80060b8:	4632      	mov	r2, r6
 80060ba:	463b      	mov	r3, r7
 80060bc:	4628      	mov	r0, r5
 80060be:	e8bd 41f0 	ldmia.w	sp!, {r4, r5, r6, r7, r8, lr}
 80060c2:	f000 b853 	b.w	800616c <_write_r>

080060c6 <__sseek>:
 80060c6:	b510      	push	{r4, lr}
 80060c8:	460c      	mov	r4, r1
 80060ca:	f9b1 100e 	ldrsh.w	r1, [r1, #14]
 80060ce:	f000 f829 	bl	8006124 <_lseek_r>
 80060d2:	1c43      	adds	r3, r0, #1
 80060d4:	89a3      	ldrh	r3, [r4, #12]
 80060d6:	bf15      	itete	ne
 80060d8:	6560      	strne	r0, [r4, #84]	@ 0x54
 80060da:	f423 5380 	biceq.w	r3, r3, #4096	@ 0x1000
 80060de:	f443 5380 	orrne.w	r3, r3, #4096	@ 0x1000
 80060e2:	81a3      	strheq	r3, [r4, #12]
 80060e4:	bf18      	it	ne
 80060e6:	81a3      	strhne	r3, [r4, #12]
 80060e8:	bd10      	pop	{r4, pc}

080060ea <__sclose>:
 80060ea:	f9b1 100e 	ldrsh.w	r1, [r1, #14]
 80060ee:	f000 b809 	b.w	8006104 <_close_r>

080060f2 <memset>:
 80060f2:	4402      	add	r2, r0
 80060f4:	4603      	mov	r3, r0
 80060f6:	4293      	cmp	r3, r2
 80060f8:	d100      	bne.n	80060fc <memset+0xa>
 80060fa:	4770      	bx	lr
 80060fc:	f803 1b01 	strb.w	r1, [r3], #1
 8006100:	e7f9      	b.n	80060f6 <memset+0x4>
	...

08006104 <_close_r>:
 8006104:	b538      	push	{r3, r4, r5, lr}
 8006106:	4d06      	ldr	r5, [pc, #24]	@ (8006120 <_close_r+0x1c>)
 8006108:	2300      	movs	r3, #0
 800610a:	4604      	mov	r4, r0
 800610c:	4608      	mov	r0, r1
 800610e:	602b      	str	r3, [r5, #0]
 8006110:	f7fa fd03 	bl	8000b1a <_close>
 8006114:	1c43      	adds	r3, r0, #1
 8006116:	d102      	bne.n	800611e <_close_r+0x1a>
 8006118:	682b      	ldr	r3, [r5, #0]
 800611a:	b103      	cbz	r3, 800611e <_close_r+0x1a>
 800611c:	6023      	str	r3, [r4, #0]
 800611e:	bd38      	pop	{r3, r4, r5, pc}
 8006120:	20000314 	.word	0x20000314

08006124 <_lseek_r>:
 8006124:	b538      	push	{r3, r4, r5, lr}
 8006126:	4d07      	ldr	r5, [pc, #28]	@ (8006144 <_lseek_r+0x20>)
 8006128:	4604      	mov	r4, r0
 800612a:	4608      	mov	r0, r1
 800612c:	4611      	mov	r1, r2
 800612e:	2200      	movs	r2, #0
 8006130:	602a      	str	r2, [r5, #0]
 8006132:	461a      	mov	r2, r3
 8006134:	f7fa fd18 	bl	8000b68 <_lseek>
 8006138:	1c43      	adds	r3, r0, #1
 800613a:	d102      	bne.n	8006142 <_lseek_r+0x1e>
 800613c:	682b      	ldr	r3, [r5, #0]
 800613e:	b103      	cbz	r3, 8006142 <_lseek_r+0x1e>
 8006140:	6023      	str	r3, [r4, #0]
 8006142:	bd38      	pop	{r3, r4, r5, pc}
 8006144:	20000314 	.word	0x20000314

08006148 <_read_r>:
 8006148:	b538      	push	{r3, r4, r5, lr}
 800614a:	4d07      	ldr	r5, [pc, #28]	@ (8006168 <_read_r+0x20>)
 800614c:	4604      	mov	r4, r0
 800614e:	4608      	mov	r0, r1
 8006150:	4611      	mov	r1, r2
 8006152:	2200      	movs	r2, #0
 8006154:	602a      	str	r2, [r5, #0]
 8006156:	461a      	mov	r2, r3
 8006158:	f7fa fca6 	bl	8000aa8 <_read>
 800615c:	1c43      	adds	r3, r0, #1
 800615e:	d102      	bne.n	8006166 <_read_r+0x1e>
 8006160:	682b      	ldr	r3, [r5, #0]
 8006162:	b103      	cbz	r3, 8006166 <_read_r+0x1e>
 8006164:	6023      	str	r3, [r4, #0]
 8006166:	bd38      	pop	{r3, r4, r5, pc}
 8006168:	20000314 	.word	0x20000314

0800616c <_write_r>:
 800616c:	b538      	push	{r3, r4, r5, lr}
 800616e:	4d07      	ldr	r5, [pc, #28]	@ (800618c <_write_r+0x20>)
 8006170:	4604      	mov	r4, r0
 8006172:	4608      	mov	r0, r1
 8006174:	4611      	mov	r1, r2
 8006176:	2200      	movs	r2, #0
 8006178:	602a      	str	r2, [r5, #0]
 800617a:	461a      	mov	r2, r3
 800617c:	f7fa fcb1 	bl	8000ae2 <_write>
 8006180:	1c43      	adds	r3, r0, #1
 8006182:	d102      	bne.n	800618a <_write_r+0x1e>
 8006184:	682b      	ldr	r3, [r5, #0]
 8006186:	b103      	cbz	r3, 800618a <_write_r+0x1e>
 8006188:	6023      	str	r3, [r4, #0]
 800618a:	bd38      	pop	{r3, r4, r5, pc}
 800618c:	20000314 	.word	0x20000314

08006190 <__errno>:
 8006190:	4b01      	ldr	r3, [pc, #4]	@ (8006198 <__errno+0x8>)
 8006192:	6818      	ldr	r0, [r3, #0]
 8006194:	4770      	bx	lr
 8006196:	bf00      	nop
 8006198:	20000018 	.word	0x20000018

0800619c <__libc_init_array>:
 800619c:	b570      	push	{r4, r5, r6, lr}
 800619e:	4d0d      	ldr	r5, [pc, #52]	@ (80061d4 <__libc_init_array+0x38>)
 80061a0:	4c0d      	ldr	r4, [pc, #52]	@ (80061d8 <__libc_init_array+0x3c>)
 80061a2:	1b64      	subs	r4, r4, r5
 80061a4:	10a4      	asrs	r4, r4, #2
 80061a6:	2600      	movs	r6, #0
 80061a8:	42a6      	cmp	r6, r4
 80061aa:	d109      	bne.n	80061c0 <__libc_init_array+0x24>
 80061ac:	4d0b      	ldr	r5, [pc, #44]	@ (80061dc <__libc_init_array+0x40>)
 80061ae:	4c0c      	ldr	r4, [pc, #48]	@ (80061e0 <__libc_init_array+0x44>)
 80061b0:	f000 fdb8 	bl	8006d24 <_init>
 80061b4:	1b64      	subs	r4, r4, r5
 80061b6:	10a4      	asrs	r4, r4, #2
 80061b8:	2600      	movs	r6, #0
 80061ba:	42a6      	cmp	r6, r4
 80061bc:	d105      	bne.n	80061ca <__libc_init_array+0x2e>
 80061be:	bd70      	pop	{r4, r5, r6, pc}
 80061c0:	f855 3b04 	ldr.w	r3, [r5], #4
 80061c4:	4798      	blx	r3
 80061c6:	3601      	adds	r6, #1
 80061c8:	e7ee      	b.n	80061a8 <__libc_init_array+0xc>
 80061ca:	f855 3b04 	ldr.w	r3, [r5], #4
 80061ce:	4798      	blx	r3
 80061d0:	3601      	adds	r6, #1
 80061d2:	e7f2      	b.n	80061ba <__libc_init_array+0x1e>
 80061d4:	08006dec 	.word	0x08006dec
 80061d8:	08006dec 	.word	0x08006dec
 80061dc:	08006dec 	.word	0x08006dec
 80061e0:	08006df0 	.word	0x08006df0

080061e4 <__retarget_lock_init_recursive>:
 80061e4:	4770      	bx	lr

080061e6 <__retarget_lock_acquire_recursive>:
 80061e6:	4770      	bx	lr

080061e8 <__retarget_lock_release_recursive>:
 80061e8:	4770      	bx	lr
	...

080061ec <_free_r>:
 80061ec:	b538      	push	{r3, r4, r5, lr}
 80061ee:	4605      	mov	r5, r0
 80061f0:	2900      	cmp	r1, #0
 80061f2:	d041      	beq.n	8006278 <_free_r+0x8c>
 80061f4:	f851 3c04 	ldr.w	r3, [r1, #-4]
 80061f8:	1f0c      	subs	r4, r1, #4
 80061fa:	2b00      	cmp	r3, #0
 80061fc:	bfb8      	it	lt
 80061fe:	18e4      	addlt	r4, r4, r3
 8006200:	f000 f8e0 	bl	80063c4 <__malloc_lock>
 8006204:	4a1d      	ldr	r2, [pc, #116]	@ (800627c <_free_r+0x90>)
 8006206:	6813      	ldr	r3, [r2, #0]
 8006208:	b933      	cbnz	r3, 8006218 <_free_r+0x2c>
 800620a:	6063      	str	r3, [r4, #4]
 800620c:	6014      	str	r4, [r2, #0]
 800620e:	4628      	mov	r0, r5
 8006210:	e8bd 4038 	ldmia.w	sp!, {r3, r4, r5, lr}
 8006214:	f000 b8dc 	b.w	80063d0 <__malloc_unlock>
 8006218:	42a3      	cmp	r3, r4
 800621a:	d908      	bls.n	800622e <_free_r+0x42>
 800621c:	6820      	ldr	r0, [r4, #0]
 800621e:	1821      	adds	r1, r4, r0
 8006220:	428b      	cmp	r3, r1
 8006222:	bf01      	itttt	eq
 8006224:	6819      	ldreq	r1, [r3, #0]
 8006226:	685b      	ldreq	r3, [r3, #4]
 8006228:	1809      	addeq	r1, r1, r0
 800622a:	6021      	streq	r1, [r4, #0]
 800622c:	e7ed      	b.n	800620a <_free_r+0x1e>
 800622e:	461a      	mov	r2, r3
 8006230:	685b      	ldr	r3, [r3, #4]
 8006232:	b10b      	cbz	r3, 8006238 <_free_r+0x4c>
 8006234:	42a3      	cmp	r3, r4
 8006236:	d9fa      	bls.n	800622e <_free_r+0x42>
 8006238:	6811      	ldr	r1, [r2, #0]
 800623a:	1850      	adds	r0, r2, r1
 800623c:	42a0      	cmp	r0, r4
 800623e:	d10b      	bne.n	8006258 <_free_r+0x6c>
 8006240:	6820      	ldr	r0, [r4, #0]
 8006242:	4401      	add	r1, r0
 8006244:	1850      	adds	r0, r2, r1
 8006246:	4283      	cmp	r3, r0
 8006248:	6011      	str	r1, [r2, #0]
 800624a:	d1e0      	bne.n	800620e <_free_r+0x22>
 800624c:	6818      	ldr	r0, [r3, #0]
 800624e:	685b      	ldr	r3, [r3, #4]
 8006250:	6053      	str	r3, [r2, #4]
 8006252:	4408      	add	r0, r1
 8006254:	6010      	str	r0, [r2, #0]
 8006256:	e7da      	b.n	800620e <_free_r+0x22>
 8006258:	d902      	bls.n	8006260 <_free_r+0x74>
 800625a:	230c      	movs	r3, #12
 800625c:	602b      	str	r3, [r5, #0]
 800625e:	e7d6      	b.n	800620e <_free_r+0x22>
 8006260:	6820      	ldr	r0, [r4, #0]
 8006262:	1821      	adds	r1, r4, r0
 8006264:	428b      	cmp	r3, r1
 8006266:	bf04      	itt	eq
 8006268:	6819      	ldreq	r1, [r3, #0]
 800626a:	685b      	ldreq	r3, [r3, #4]
 800626c:	6063      	str	r3, [r4, #4]
 800626e:	bf04      	itt	eq
 8006270:	1809      	addeq	r1, r1, r0
 8006272:	6021      	streq	r1, [r4, #0]
 8006274:	6054      	str	r4, [r2, #4]
 8006276:	e7ca      	b.n	800620e <_free_r+0x22>
 8006278:	bd38      	pop	{r3, r4, r5, pc}
 800627a:	bf00      	nop
 800627c:	20000320 	.word	0x20000320

08006280 <sbrk_aligned>:
 8006280:	b570      	push	{r4, r5, r6, lr}
 8006282:	4e0f      	ldr	r6, [pc, #60]	@ (80062c0 <sbrk_aligned+0x40>)
 8006284:	460c      	mov	r4, r1
 8006286:	6831      	ldr	r1, [r6, #0]
 8006288:	4605      	mov	r5, r0
 800628a:	b911      	cbnz	r1, 8006292 <sbrk_aligned+0x12>
 800628c:	f000 fcb6 	bl	8006bfc <_sbrk_r>
 8006290:	6030      	str	r0, [r6, #0]
 8006292:	4621      	mov	r1, r4
 8006294:	4628      	mov	r0, r5
 8006296:	f000 fcb1 	bl	8006bfc <_sbrk_r>
 800629a:	1c43      	adds	r3, r0, #1
 800629c:	d103      	bne.n	80062a6 <sbrk_aligned+0x26>
 800629e:	f04f 34ff 	mov.w	r4, #4294967295	@ 0xffffffff
 80062a2:	4620      	mov	r0, r4
 80062a4:	bd70      	pop	{r4, r5, r6, pc}
 80062a6:	1cc4      	adds	r4, r0, #3
 80062a8:	f024 0403 	bic.w	r4, r4, #3
 80062ac:	42a0      	cmp	r0, r4
 80062ae:	d0f8      	beq.n	80062a2 <sbrk_aligned+0x22>
 80062b0:	1a21      	subs	r1, r4, r0
 80062b2:	4628      	mov	r0, r5
 80062b4:	f000 fca2 	bl	8006bfc <_sbrk_r>
 80062b8:	3001      	adds	r0, #1
 80062ba:	d1f2      	bne.n	80062a2 <sbrk_aligned+0x22>
 80062bc:	e7ef      	b.n	800629e <sbrk_aligned+0x1e>
 80062be:	bf00      	nop
 80062c0:	2000031c 	.word	0x2000031c

080062c4 <_malloc_r>:
 80062c4:	e92d 43f8 	stmdb	sp!, {r3, r4, r5, r6, r7, r8, r9, lr}
 80062c8:	1ccd      	adds	r5, r1, #3
 80062ca:	f025 0503 	bic.w	r5, r5, #3
 80062ce:	3508      	adds	r5, #8
 80062d0:	2d0c      	cmp	r5, #12
 80062d2:	bf38      	it	cc
 80062d4:	250c      	movcc	r5, #12
 80062d6:	2d00      	cmp	r5, #0
 80062d8:	4606      	mov	r6, r0
 80062da:	db01      	blt.n	80062e0 <_malloc_r+0x1c>
 80062dc:	42a9      	cmp	r1, r5
 80062de:	d904      	bls.n	80062ea <_malloc_r+0x26>
 80062e0:	230c      	movs	r3, #12
 80062e2:	6033      	str	r3, [r6, #0]
 80062e4:	2000      	movs	r0, #0
 80062e6:	e8bd 83f8 	ldmia.w	sp!, {r3, r4, r5, r6, r7, r8, r9, pc}
 80062ea:	f8df 80d4 	ldr.w	r8, [pc, #212]	@ 80063c0 <_malloc_r+0xfc>
 80062ee:	f000 f869 	bl	80063c4 <__malloc_lock>
 80062f2:	f8d8 3000 	ldr.w	r3, [r8]
 80062f6:	461c      	mov	r4, r3
 80062f8:	bb44      	cbnz	r4, 800634c <_malloc_r+0x88>
 80062fa:	4629      	mov	r1, r5
 80062fc:	4630      	mov	r0, r6
 80062fe:	f7ff ffbf 	bl	8006280 <sbrk_aligned>
 8006302:	1c43      	adds	r3, r0, #1
 8006304:	4604      	mov	r4, r0
 8006306:	d158      	bne.n	80063ba <_malloc_r+0xf6>
 8006308:	f8d8 4000 	ldr.w	r4, [r8]
 800630c:	4627      	mov	r7, r4
 800630e:	2f00      	cmp	r7, #0
 8006310:	d143      	bne.n	800639a <_malloc_r+0xd6>
 8006312:	2c00      	cmp	r4, #0
 8006314:	d04b      	beq.n	80063ae <_malloc_r+0xea>
 8006316:	6823      	ldr	r3, [r4, #0]
 8006318:	4639      	mov	r1, r7
 800631a:	4630      	mov	r0, r6
 800631c:	eb04 0903 	add.w	r9, r4, r3
 8006320:	f000 fc6c 	bl	8006bfc <_sbrk_r>
 8006324:	4581      	cmp	r9, r0
 8006326:	d142      	bne.n	80063ae <_malloc_r+0xea>
 8006328:	6821      	ldr	r1, [r4, #0]
 800632a:	1a6d      	subs	r5, r5, r1
 800632c:	4629      	mov	r1, r5
 800632e:	4630      	mov	r0, r6
 8006330:	f7ff ffa6 	bl	8006280 <sbrk_aligned>
 8006334:	3001      	adds	r0, #1
 8006336:	d03a      	beq.n	80063ae <_malloc_r+0xea>
 8006338:	6823      	ldr	r3, [r4, #0]
 800633a:	442b      	add	r3, r5
 800633c:	6023      	str	r3, [r4, #0]
 800633e:	f8d8 3000 	ldr.w	r3, [r8]
 8006342:	685a      	ldr	r2, [r3, #4]
 8006344:	bb62      	cbnz	r2, 80063a0 <_malloc_r+0xdc>
 8006346:	f8c8 7000 	str.w	r7, [r8]
 800634a:	e00f      	b.n	800636c <_malloc_r+0xa8>
 800634c:	6822      	ldr	r2, [r4, #0]
 800634e:	1b52      	subs	r2, r2, r5
 8006350:	d420      	bmi.n	8006394 <_malloc_r+0xd0>
 8006352:	2a0b      	cmp	r2, #11
 8006354:	d917      	bls.n	8006386 <_malloc_r+0xc2>
 8006356:	1961      	adds	r1, r4, r5
 8006358:	42a3      	cmp	r3, r4
 800635a:	6025      	str	r5, [r4, #0]
 800635c:	bf18      	it	ne
 800635e:	6059      	strne	r1, [r3, #4]
 8006360:	6863      	ldr	r3, [r4, #4]
 8006362:	bf08      	it	eq
 8006364:	f8c8 1000 	streq.w	r1, [r8]
 8006368:	5162      	str	r2, [r4, r5]
 800636a:	604b      	str	r3, [r1, #4]
 800636c:	4630      	mov	r0, r6
 800636e:	f000 f82f 	bl	80063d0 <__malloc_unlock>
 8006372:	f104 000b 	add.w	r0, r4, #11
 8006376:	1d23      	adds	r3, r4, #4
 8006378:	f020 0007 	bic.w	r0, r0, #7
 800637c:	1ac2      	subs	r2, r0, r3
 800637e:	bf1c      	itt	ne
 8006380:	1a1b      	subne	r3, r3, r0
 8006382:	50a3      	strne	r3, [r4, r2]
 8006384:	e7af      	b.n	80062e6 <_malloc_r+0x22>
 8006386:	6862      	ldr	r2, [r4, #4]
 8006388:	42a3      	cmp	r3, r4
 800638a:	bf0c      	ite	eq
 800638c:	f8c8 2000 	streq.w	r2, [r8]
 8006390:	605a      	strne	r2, [r3, #4]
 8006392:	e7eb      	b.n	800636c <_malloc_r+0xa8>
 8006394:	4623      	mov	r3, r4
 8006396:	6864      	ldr	r4, [r4, #4]
 8006398:	e7ae      	b.n	80062f8 <_malloc_r+0x34>
 800639a:	463c      	mov	r4, r7
 800639c:	687f      	ldr	r7, [r7, #4]
 800639e:	e7b6      	b.n	800630e <_malloc_r+0x4a>
 80063a0:	461a      	mov	r2, r3
 80063a2:	685b      	ldr	r3, [r3, #4]
 80063a4:	42a3      	cmp	r3, r4
 80063a6:	d1fb      	bne.n	80063a0 <_malloc_r+0xdc>
 80063a8:	2300      	movs	r3, #0
 80063aa:	6053      	str	r3, [r2, #4]
 80063ac:	e7de      	b.n	800636c <_malloc_r+0xa8>
 80063ae:	230c      	movs	r3, #12
 80063b0:	6033      	str	r3, [r6, #0]
 80063b2:	4630      	mov	r0, r6
 80063b4:	f000 f80c 	bl	80063d0 <__malloc_unlock>
 80063b8:	e794      	b.n	80062e4 <_malloc_r+0x20>
 80063ba:	6005      	str	r5, [r0, #0]
 80063bc:	e7d6      	b.n	800636c <_malloc_r+0xa8>
 80063be:	bf00      	nop
 80063c0:	20000320 	.word	0x20000320

080063c4 <__malloc_lock>:
 80063c4:	4801      	ldr	r0, [pc, #4]	@ (80063cc <__malloc_lock+0x8>)
 80063c6:	f7ff bf0e 	b.w	80061e6 <__retarget_lock_acquire_recursive>
 80063ca:	bf00      	nop
 80063cc:	20000318 	.word	0x20000318

080063d0 <__malloc_unlock>:
 80063d0:	4801      	ldr	r0, [pc, #4]	@ (80063d8 <__malloc_unlock+0x8>)
 80063d2:	f7ff bf09 	b.w	80061e8 <__retarget_lock_release_recursive>
 80063d6:	bf00      	nop
 80063d8:	20000318 	.word	0x20000318

080063dc <__sfputc_r>:
 80063dc:	6893      	ldr	r3, [r2, #8]
 80063de:	3b01      	subs	r3, #1
 80063e0:	2b00      	cmp	r3, #0
 80063e2:	b410      	push	{r4}
 80063e4:	6093      	str	r3, [r2, #8]
 80063e6:	da08      	bge.n	80063fa <__sfputc_r+0x1e>
 80063e8:	6994      	ldr	r4, [r2, #24]
 80063ea:	42a3      	cmp	r3, r4
 80063ec:	db01      	blt.n	80063f2 <__sfputc_r+0x16>
 80063ee:	290a      	cmp	r1, #10
 80063f0:	d103      	bne.n	80063fa <__sfputc_r+0x1e>
 80063f2:	f85d 4b04 	ldr.w	r4, [sp], #4
 80063f6:	f000 bb6d 	b.w	8006ad4 <__swbuf_r>
 80063fa:	6813      	ldr	r3, [r2, #0]
 80063fc:	1c58      	adds	r0, r3, #1
 80063fe:	6010      	str	r0, [r2, #0]
 8006400:	7019      	strb	r1, [r3, #0]
 8006402:	4608      	mov	r0, r1
 8006404:	f85d 4b04 	ldr.w	r4, [sp], #4
 8006408:	4770      	bx	lr

0800640a <__sfputs_r>:
 800640a:	b5f8      	push	{r3, r4, r5, r6, r7, lr}
 800640c:	4606      	mov	r6, r0
 800640e:	460f      	mov	r7, r1
 8006410:	4614      	mov	r4, r2
 8006412:	18d5      	adds	r5, r2, r3
 8006414:	42ac      	cmp	r4, r5
 8006416:	d101      	bne.n	800641c <__sfputs_r+0x12>
 8006418:	2000      	movs	r0, #0
 800641a:	e007      	b.n	800642c <__sfputs_r+0x22>
 800641c:	f814 1b01 	ldrb.w	r1, [r4], #1
 8006420:	463a      	mov	r2, r7
 8006422:	4630      	mov	r0, r6
 8006424:	f7ff ffda 	bl	80063dc <__sfputc_r>
 8006428:	1c43      	adds	r3, r0, #1
 800642a:	d1f3      	bne.n	8006414 <__sfputs_r+0xa>
 800642c:	bdf8      	pop	{r3, r4, r5, r6, r7, pc}
	...

08006430 <_vfiprintf_r>:
 8006430:	e92d 4ff0 	stmdb	sp!, {r4, r5, r6, r7, r8, r9, sl, fp, lr}
 8006434:	460d      	mov	r5, r1
 8006436:	b09d      	sub	sp, #116	@ 0x74
 8006438:	4614      	mov	r4, r2
 800643a:	4698      	mov	r8, r3
 800643c:	4606      	mov	r6, r0
 800643e:	b118      	cbz	r0, 8006448 <_vfiprintf_r+0x18>
 8006440:	6a03      	ldr	r3, [r0, #32]
 8006442:	b90b      	cbnz	r3, 8006448 <_vfiprintf_r+0x18>
 8006444:	f7ff fdca 	bl	8005fdc <__sinit>
 8006448:	6e6b      	ldr	r3, [r5, #100]	@ 0x64
 800644a:	07d9      	lsls	r1, r3, #31
 800644c:	d405      	bmi.n	800645a <_vfiprintf_r+0x2a>
 800644e:	89ab      	ldrh	r3, [r5, #12]
 8006450:	059a      	lsls	r2, r3, #22
 8006452:	d402      	bmi.n	800645a <_vfiprintf_r+0x2a>
 8006454:	6da8      	ldr	r0, [r5, #88]	@ 0x58
 8006456:	f7ff fec6 	bl	80061e6 <__retarget_lock_acquire_recursive>
 800645a:	89ab      	ldrh	r3, [r5, #12]
 800645c:	071b      	lsls	r3, r3, #28
 800645e:	d501      	bpl.n	8006464 <_vfiprintf_r+0x34>
 8006460:	692b      	ldr	r3, [r5, #16]
 8006462:	b99b      	cbnz	r3, 800648c <_vfiprintf_r+0x5c>
 8006464:	4629      	mov	r1, r5
 8006466:	4630      	mov	r0, r6
 8006468:	f000 fb72 	bl	8006b50 <__swsetup_r>
 800646c:	b170      	cbz	r0, 800648c <_vfiprintf_r+0x5c>
 800646e:	6e6b      	ldr	r3, [r5, #100]	@ 0x64
 8006470:	07dc      	lsls	r4, r3, #31
 8006472:	d504      	bpl.n	800647e <_vfiprintf_r+0x4e>
 8006474:	f04f 30ff 	mov.w	r0, #4294967295	@ 0xffffffff
 8006478:	b01d      	add	sp, #116	@ 0x74
 800647a:	e8bd 8ff0 	ldmia.w	sp!, {r4, r5, r6, r7, r8, r9, sl, fp, pc}
 800647e:	89ab      	ldrh	r3, [r5, #12]
 8006480:	0598      	lsls	r0, r3, #22
 8006482:	d4f7      	bmi.n	8006474 <_vfiprintf_r+0x44>
 8006484:	6da8      	ldr	r0, [r5, #88]	@ 0x58
 8006486:	f7ff feaf 	bl	80061e8 <__retarget_lock_release_recursive>
 800648a:	e7f3      	b.n	8006474 <_vfiprintf_r+0x44>
 800648c:	2300      	movs	r3, #0
 800648e:	9309      	str	r3, [sp, #36]	@ 0x24
 8006490:	2320      	movs	r3, #32
 8006492:	f88d 3029 	strb.w	r3, [sp, #41]	@ 0x29
 8006496:	f8cd 800c 	str.w	r8, [sp, #12]
 800649a:	2330      	movs	r3, #48	@ 0x30
 800649c:	f8df 81ac 	ldr.w	r8, [pc, #428]	@ 800664c <_vfiprintf_r+0x21c>
 80064a0:	f88d 302a 	strb.w	r3, [sp, #42]	@ 0x2a
 80064a4:	f04f 0901 	mov.w	r9, #1
 80064a8:	4623      	mov	r3, r4
 80064aa:	469a      	mov	sl, r3
 80064ac:	f813 2b01 	ldrb.w	r2, [r3], #1
 80064b0:	b10a      	cbz	r2, 80064b6 <_vfiprintf_r+0x86>
 80064b2:	2a25      	cmp	r2, #37	@ 0x25
 80064b4:	d1f9      	bne.n	80064aa <_vfiprintf_r+0x7a>
 80064b6:	ebba 0b04 	subs.w	fp, sl, r4
 80064ba:	d00b      	beq.n	80064d4 <_vfiprintf_r+0xa4>
 80064bc:	465b      	mov	r3, fp
 80064be:	4622      	mov	r2, r4
 80064c0:	4629      	mov	r1, r5
 80064c2:	4630      	mov	r0, r6
 80064c4:	f7ff ffa1 	bl	800640a <__sfputs_r>
 80064c8:	3001      	adds	r0, #1
 80064ca:	f000 80a7 	beq.w	800661c <_vfiprintf_r+0x1ec>
 80064ce:	9a09      	ldr	r2, [sp, #36]	@ 0x24
 80064d0:	445a      	add	r2, fp
 80064d2:	9209      	str	r2, [sp, #36]	@ 0x24
 80064d4:	f89a 3000 	ldrb.w	r3, [sl]
 80064d8:	2b00      	cmp	r3, #0
 80064da:	f000 809f 	beq.w	800661c <_vfiprintf_r+0x1ec>
 80064de:	2300      	movs	r3, #0
 80064e0:	f04f 32ff 	mov.w	r2, #4294967295	@ 0xffffffff
 80064e4:	e9cd 2305 	strd	r2, r3, [sp, #20]
 80064e8:	f10a 0a01 	add.w	sl, sl, #1
 80064ec:	9304      	str	r3, [sp, #16]
 80064ee:	9307      	str	r3, [sp, #28]
 80064f0:	f88d 3053 	strb.w	r3, [sp, #83]	@ 0x53
 80064f4:	931a      	str	r3, [sp, #104]	@ 0x68
 80064f6:	4654      	mov	r4, sl
 80064f8:	2205      	movs	r2, #5
 80064fa:	f814 1b01 	ldrb.w	r1, [r4], #1
 80064fe:	4853      	ldr	r0, [pc, #332]	@ (800664c <_vfiprintf_r+0x21c>)
 8006500:	f7f9 fe8e 	bl	8000220 <memchr>
 8006504:	9a04      	ldr	r2, [sp, #16]
 8006506:	b9d8      	cbnz	r0, 8006540 <_vfiprintf_r+0x110>
 8006508:	06d1      	lsls	r1, r2, #27
 800650a:	bf44      	itt	mi
 800650c:	2320      	movmi	r3, #32
 800650e:	f88d 3053 	strbmi.w	r3, [sp, #83]	@ 0x53
 8006512:	0713      	lsls	r3, r2, #28
 8006514:	bf44      	itt	mi
 8006516:	232b      	movmi	r3, #43	@ 0x2b
 8006518:	f88d 3053 	strbmi.w	r3, [sp, #83]	@ 0x53
 800651c:	f89a 3000 	ldrb.w	r3, [sl]
 8006520:	2b2a      	cmp	r3, #42	@ 0x2a
 8006522:	d015      	beq.n	8006550 <_vfiprintf_r+0x120>
 8006524:	9a07      	ldr	r2, [sp, #28]
 8006526:	4654      	mov	r4, sl
 8006528:	2000      	movs	r0, #0
 800652a:	f04f 0c0a 	mov.w	ip, #10
 800652e:	4621      	mov	r1, r4
 8006530:	f811 3b01 	ldrb.w	r3, [r1], #1
 8006534:	3b30      	subs	r3, #48	@ 0x30
 8006536:	2b09      	cmp	r3, #9
 8006538:	d94b      	bls.n	80065d2 <_vfiprintf_r+0x1a2>
 800653a:	b1b0      	cbz	r0, 800656a <_vfiprintf_r+0x13a>
 800653c:	9207      	str	r2, [sp, #28]
 800653e:	e014      	b.n	800656a <_vfiprintf_r+0x13a>
 8006540:	eba0 0308 	sub.w	r3, r0, r8
 8006544:	fa09 f303 	lsl.w	r3, r9, r3
 8006548:	4313      	orrs	r3, r2
 800654a:	9304      	str	r3, [sp, #16]
 800654c:	46a2      	mov	sl, r4
 800654e:	e7d2      	b.n	80064f6 <_vfiprintf_r+0xc6>
 8006550:	9b03      	ldr	r3, [sp, #12]
 8006552:	1d19      	adds	r1, r3, #4
 8006554:	681b      	ldr	r3, [r3, #0]
 8006556:	9103      	str	r1, [sp, #12]
 8006558:	2b00      	cmp	r3, #0
 800655a:	bfbb      	ittet	lt
 800655c:	425b      	neglt	r3, r3
 800655e:	f042 0202 	orrlt.w	r2, r2, #2
 8006562:	9307      	strge	r3, [sp, #28]
 8006564:	9307      	strlt	r3, [sp, #28]
 8006566:	bfb8      	it	lt
 8006568:	9204      	strlt	r2, [sp, #16]
 800656a:	7823      	ldrb	r3, [r4, #0]
 800656c:	2b2e      	cmp	r3, #46	@ 0x2e
 800656e:	d10a      	bne.n	8006586 <_vfiprintf_r+0x156>
 8006570:	7863      	ldrb	r3, [r4, #1]
 8006572:	2b2a      	cmp	r3, #42	@ 0x2a
 8006574:	d132      	bne.n	80065dc <_vfiprintf_r+0x1ac>
 8006576:	9b03      	ldr	r3, [sp, #12]
 8006578:	1d1a      	adds	r2, r3, #4
 800657a:	681b      	ldr	r3, [r3, #0]
 800657c:	9203      	str	r2, [sp, #12]
 800657e:	ea43 73e3 	orr.w	r3, r3, r3, asr #31
 8006582:	3402      	adds	r4, #2
 8006584:	9305      	str	r3, [sp, #20]
 8006586:	f8df a0d4 	ldr.w	sl, [pc, #212]	@ 800665c <_vfiprintf_r+0x22c>
 800658a:	7821      	ldrb	r1, [r4, #0]
 800658c:	2203      	movs	r2, #3
 800658e:	4650      	mov	r0, sl
 8006590:	f7f9 fe46 	bl	8000220 <memchr>
 8006594:	b138      	cbz	r0, 80065a6 <_vfiprintf_r+0x176>
 8006596:	9b04      	ldr	r3, [sp, #16]
 8006598:	eba0 000a 	sub.w	r0, r0, sl
 800659c:	2240      	movs	r2, #64	@ 0x40
 800659e:	4082      	lsls	r2, r0
 80065a0:	4313      	orrs	r3, r2
 80065a2:	3401      	adds	r4, #1
 80065a4:	9304      	str	r3, [sp, #16]
 80065a6:	f814 1b01 	ldrb.w	r1, [r4], #1
 80065aa:	4829      	ldr	r0, [pc, #164]	@ (8006650 <_vfiprintf_r+0x220>)
 80065ac:	f88d 1028 	strb.w	r1, [sp, #40]	@ 0x28
 80065b0:	2206      	movs	r2, #6
 80065b2:	f7f9 fe35 	bl	8000220 <memchr>
 80065b6:	2800      	cmp	r0, #0
 80065b8:	d03f      	beq.n	800663a <_vfiprintf_r+0x20a>
 80065ba:	4b26      	ldr	r3, [pc, #152]	@ (8006654 <_vfiprintf_r+0x224>)
 80065bc:	bb1b      	cbnz	r3, 8006606 <_vfiprintf_r+0x1d6>
 80065be:	9b03      	ldr	r3, [sp, #12]
 80065c0:	3307      	adds	r3, #7
 80065c2:	f023 0307 	bic.w	r3, r3, #7
 80065c6:	3308      	adds	r3, #8
 80065c8:	9303      	str	r3, [sp, #12]
 80065ca:	9b09      	ldr	r3, [sp, #36]	@ 0x24
 80065cc:	443b      	add	r3, r7
 80065ce:	9309      	str	r3, [sp, #36]	@ 0x24
 80065d0:	e76a      	b.n	80064a8 <_vfiprintf_r+0x78>
 80065d2:	fb0c 3202 	mla	r2, ip, r2, r3
 80065d6:	460c      	mov	r4, r1
 80065d8:	2001      	movs	r0, #1
 80065da:	e7a8      	b.n	800652e <_vfiprintf_r+0xfe>
 80065dc:	2300      	movs	r3, #0
 80065de:	3401      	adds	r4, #1
 80065e0:	9305      	str	r3, [sp, #20]
 80065e2:	4619      	mov	r1, r3
 80065e4:	f04f 0c0a 	mov.w	ip, #10
 80065e8:	4620      	mov	r0, r4
 80065ea:	f810 2b01 	ldrb.w	r2, [r0], #1
 80065ee:	3a30      	subs	r2, #48	@ 0x30
 80065f0:	2a09      	cmp	r2, #9
 80065f2:	d903      	bls.n	80065fc <_vfiprintf_r+0x1cc>
 80065f4:	2b00      	cmp	r3, #0
 80065f6:	d0c6      	beq.n	8006586 <_vfiprintf_r+0x156>
 80065f8:	9105      	str	r1, [sp, #20]
 80065fa:	e7c4      	b.n	8006586 <_vfiprintf_r+0x156>
 80065fc:	fb0c 2101 	mla	r1, ip, r1, r2
 8006600:	4604      	mov	r4, r0
 8006602:	2301      	movs	r3, #1
 8006604:	e7f0      	b.n	80065e8 <_vfiprintf_r+0x1b8>
 8006606:	ab03      	add	r3, sp, #12
 8006608:	9300      	str	r3, [sp, #0]
 800660a:	462a      	mov	r2, r5
 800660c:	4b12      	ldr	r3, [pc, #72]	@ (8006658 <_vfiprintf_r+0x228>)
 800660e:	a904      	add	r1, sp, #16
 8006610:	4630      	mov	r0, r6
 8006612:	f3af 8000 	nop.w
 8006616:	4607      	mov	r7, r0
 8006618:	1c78      	adds	r0, r7, #1
 800661a:	d1d6      	bne.n	80065ca <_vfiprintf_r+0x19a>
 800661c:	6e6b      	ldr	r3, [r5, #100]	@ 0x64
 800661e:	07d9      	lsls	r1, r3, #31
 8006620:	d405      	bmi.n	800662e <_vfiprintf_r+0x1fe>
 8006622:	89ab      	ldrh	r3, [r5, #12]
 8006624:	059a      	lsls	r2, r3, #22
 8006626:	d402      	bmi.n	800662e <_vfiprintf_r+0x1fe>
 8006628:	6da8      	ldr	r0, [r5, #88]	@ 0x58
 800662a:	f7ff fddd 	bl	80061e8 <__retarget_lock_release_recursive>
 800662e:	89ab      	ldrh	r3, [r5, #12]
 8006630:	065b      	lsls	r3, r3, #25
 8006632:	f53f af1f 	bmi.w	8006474 <_vfiprintf_r+0x44>
 8006636:	9809      	ldr	r0, [sp, #36]	@ 0x24
 8006638:	e71e      	b.n	8006478 <_vfiprintf_r+0x48>
 800663a:	ab03      	add	r3, sp, #12
 800663c:	9300      	str	r3, [sp, #0]
 800663e:	462a      	mov	r2, r5
 8006640:	4b05      	ldr	r3, [pc, #20]	@ (8006658 <_vfiprintf_r+0x228>)
 8006642:	a904      	add	r1, sp, #16
 8006644:	4630      	mov	r0, r6
 8006646:	f000 f879 	bl	800673c <_printf_i>
 800664a:	e7e4      	b.n	8006616 <_vfiprintf_r+0x1e6>
 800664c:	08006db0 	.word	0x08006db0
 8006650:	08006dba 	.word	0x08006dba
 8006654:	00000000 	.word	0x00000000
 8006658:	0800640b 	.word	0x0800640b
 800665c:	08006db6 	.word	0x08006db6

08006660 <_printf_common>:
 8006660:	e92d 47f0 	stmdb	sp!, {r4, r5, r6, r7, r8, r9, sl, lr}
 8006664:	4616      	mov	r6, r2
 8006666:	4698      	mov	r8, r3
 8006668:	688a      	ldr	r2, [r1, #8]
 800666a:	690b      	ldr	r3, [r1, #16]
 800666c:	f8dd 9020 	ldr.w	r9, [sp, #32]
 8006670:	4293      	cmp	r3, r2
 8006672:	bfb8      	it	lt
 8006674:	4613      	movlt	r3, r2
 8006676:	6033      	str	r3, [r6, #0]
 8006678:	f891 2043 	ldrb.w	r2, [r1, #67]	@ 0x43
 800667c:	4607      	mov	r7, r0
 800667e:	460c      	mov	r4, r1
 8006680:	b10a      	cbz	r2, 8006686 <_printf_common+0x26>
 8006682:	3301      	adds	r3, #1
 8006684:	6033      	str	r3, [r6, #0]
 8006686:	6823      	ldr	r3, [r4, #0]
 8006688:	0699      	lsls	r1, r3, #26
 800668a:	bf42      	ittt	mi
 800668c:	6833      	ldrmi	r3, [r6, #0]
 800668e:	3302      	addmi	r3, #2
 8006690:	6033      	strmi	r3, [r6, #0]
 8006692:	6825      	ldr	r5, [r4, #0]
 8006694:	f015 0506 	ands.w	r5, r5, #6
 8006698:	d106      	bne.n	80066a8 <_printf_common+0x48>
 800669a:	f104 0a19 	add.w	sl, r4, #25
 800669e:	68e3      	ldr	r3, [r4, #12]
 80066a0:	6832      	ldr	r2, [r6, #0]
 80066a2:	1a9b      	subs	r3, r3, r2
 80066a4:	42ab      	cmp	r3, r5
 80066a6:	dc26      	bgt.n	80066f6 <_printf_common+0x96>
 80066a8:	f894 3043 	ldrb.w	r3, [r4, #67]	@ 0x43
 80066ac:	6822      	ldr	r2, [r4, #0]
 80066ae:	3b00      	subs	r3, #0
 80066b0:	bf18      	it	ne
 80066b2:	2301      	movne	r3, #1
 80066b4:	0692      	lsls	r2, r2, #26
 80066b6:	d42b      	bmi.n	8006710 <_printf_common+0xb0>
 80066b8:	f104 0243 	add.w	r2, r4, #67	@ 0x43
 80066bc:	4641      	mov	r1, r8
 80066be:	4638      	mov	r0, r7
 80066c0:	47c8      	blx	r9
 80066c2:	3001      	adds	r0, #1
 80066c4:	d01e      	beq.n	8006704 <_printf_common+0xa4>
 80066c6:	6823      	ldr	r3, [r4, #0]
 80066c8:	6922      	ldr	r2, [r4, #16]
 80066ca:	f003 0306 	and.w	r3, r3, #6
 80066ce:	2b04      	cmp	r3, #4
 80066d0:	bf02      	ittt	eq
 80066d2:	68e5      	ldreq	r5, [r4, #12]
 80066d4:	6833      	ldreq	r3, [r6, #0]
 80066d6:	1aed      	subeq	r5, r5, r3
 80066d8:	68a3      	ldr	r3, [r4, #8]
 80066da:	bf0c      	ite	eq
 80066dc:	ea25 75e5 	biceq.w	r5, r5, r5, asr #31
 80066e0:	2500      	movne	r5, #0
 80066e2:	4293      	cmp	r3, r2
 80066e4:	bfc4      	itt	gt
 80066e6:	1a9b      	subgt	r3, r3, r2
 80066e8:	18ed      	addgt	r5, r5, r3
 80066ea:	2600      	movs	r6, #0
 80066ec:	341a      	adds	r4, #26
 80066ee:	42b5      	cmp	r5, r6
 80066f0:	d11a      	bne.n	8006728 <_printf_common+0xc8>
 80066f2:	2000      	movs	r0, #0
 80066f4:	e008      	b.n	8006708 <_printf_common+0xa8>
 80066f6:	2301      	movs	r3, #1
 80066f8:	4652      	mov	r2, sl
 80066fa:	4641      	mov	r1, r8
 80066fc:	4638      	mov	r0, r7
 80066fe:	47c8      	blx	r9
 8006700:	3001      	adds	r0, #1
 8006702:	d103      	bne.n	800670c <_printf_common+0xac>
 8006704:	f04f 30ff 	mov.w	r0, #4294967295	@ 0xffffffff
 8006708:	e8bd 87f0 	ldmia.w	sp!, {r4, r5, r6, r7, r8, r9, sl, pc}
 800670c:	3501      	adds	r5, #1
 800670e:	e7c6      	b.n	800669e <_printf_common+0x3e>
 8006710:	18e1      	adds	r1, r4, r3
 8006712:	1c5a      	adds	r2, r3, #1
 8006714:	2030      	movs	r0, #48	@ 0x30
 8006716:	f881 0043 	strb.w	r0, [r1, #67]	@ 0x43
 800671a:	4422      	add	r2, r4
 800671c:	f894 1045 	ldrb.w	r1, [r4, #69]	@ 0x45
 8006720:	f882 1043 	strb.w	r1, [r2, #67]	@ 0x43
 8006724:	3302      	adds	r3, #2
 8006726:	e7c7      	b.n	80066b8 <_printf_common+0x58>
 8006728:	2301      	movs	r3, #1
 800672a:	4622      	mov	r2, r4
 800672c:	4641      	mov	r1, r8
 800672e:	4638      	mov	r0, r7
 8006730:	47c8      	blx	r9
 8006732:	3001      	adds	r0, #1
 8006734:	d0e6      	beq.n	8006704 <_printf_common+0xa4>
 8006736:	3601      	adds	r6, #1
 8006738:	e7d9      	b.n	80066ee <_printf_common+0x8e>
	...

0800673c <_printf_i>:
 800673c:	e92d 47ff 	stmdb	sp!, {r0, r1, r2, r3, r4, r5, r6, r7, r8, r9, sl, lr}
 8006740:	7e0f      	ldrb	r7, [r1, #24]
 8006742:	9e0c      	ldr	r6, [sp, #48]	@ 0x30
 8006744:	2f78      	cmp	r7, #120	@ 0x78
 8006746:	4691      	mov	r9, r2
 8006748:	4680      	mov	r8, r0
 800674a:	460c      	mov	r4, r1
 800674c:	469a      	mov	sl, r3
 800674e:	f101 0243 	add.w	r2, r1, #67	@ 0x43
 8006752:	d807      	bhi.n	8006764 <_printf_i+0x28>
 8006754:	2f62      	cmp	r7, #98	@ 0x62
 8006756:	d80a      	bhi.n	800676e <_printf_i+0x32>
 8006758:	2f00      	cmp	r7, #0
 800675a:	f000 80d2 	beq.w	8006902 <_printf_i+0x1c6>
 800675e:	2f58      	cmp	r7, #88	@ 0x58
 8006760:	f000 80b9 	beq.w	80068d6 <_printf_i+0x19a>
 8006764:	f104 0642 	add.w	r6, r4, #66	@ 0x42
 8006768:	f884 7042 	strb.w	r7, [r4, #66]	@ 0x42
 800676c:	e03a      	b.n	80067e4 <_printf_i+0xa8>
 800676e:	f1a7 0363 	sub.w	r3, r7, #99	@ 0x63
 8006772:	2b15      	cmp	r3, #21
 8006774:	d8f6      	bhi.n	8006764 <_printf_i+0x28>
 8006776:	a101      	add	r1, pc, #4	@ (adr r1, 800677c <_printf_i+0x40>)
 8006778:	f851 f023 	ldr.w	pc, [r1, r3, lsl #2]
 800677c:	080067d5 	.word	0x080067d5
 8006780:	080067e9 	.word	0x080067e9
 8006784:	08006765 	.word	0x08006765
 8006788:	08006765 	.word	0x08006765
 800678c:	08006765 	.word	0x08006765
 8006790:	08006765 	.word	0x08006765
 8006794:	080067e9 	.word	0x080067e9
 8006798:	08006765 	.word	0x08006765
 800679c:	08006765 	.word	0x08006765
 80067a0:	08006765 	.word	0x08006765
 80067a4:	08006765 	.word	0x08006765
 80067a8:	080068e9 	.word	0x080068e9
 80067ac:	08006813 	.word	0x08006813
 80067b0:	080068a3 	.word	0x080068a3
 80067b4:	08006765 	.word	0x08006765
 80067b8:	08006765 	.word	0x08006765
 80067bc:	0800690b 	.word	0x0800690b
 80067c0:	08006765 	.word	0x08006765
 80067c4:	08006813 	.word	0x08006813
 80067c8:	08006765 	.word	0x08006765
 80067cc:	08006765 	.word	0x08006765
 80067d0:	080068ab 	.word	0x080068ab
 80067d4:	6833      	ldr	r3, [r6, #0]
 80067d6:	1d1a      	adds	r2, r3, #4
 80067d8:	681b      	ldr	r3, [r3, #0]
 80067da:	6032      	str	r2, [r6, #0]
 80067dc:	f104 0642 	add.w	r6, r4, #66	@ 0x42
 80067e0:	f884 3042 	strb.w	r3, [r4, #66]	@ 0x42
 80067e4:	2301      	movs	r3, #1
 80067e6:	e09d      	b.n	8006924 <_printf_i+0x1e8>
 80067e8:	6833      	ldr	r3, [r6, #0]
 80067ea:	6820      	ldr	r0, [r4, #0]
 80067ec:	1d19      	adds	r1, r3, #4
 80067ee:	6031      	str	r1, [r6, #0]
 80067f0:	0606      	lsls	r6, r0, #24
 80067f2:	d501      	bpl.n	80067f8 <_printf_i+0xbc>
 80067f4:	681d      	ldr	r5, [r3, #0]
 80067f6:	e003      	b.n	8006800 <_printf_i+0xc4>
 80067f8:	0645      	lsls	r5, r0, #25
 80067fa:	d5fb      	bpl.n	80067f4 <_printf_i+0xb8>
 80067fc:	f9b3 5000 	ldrsh.w	r5, [r3]
 8006800:	2d00      	cmp	r5, #0
 8006802:	da03      	bge.n	800680c <_printf_i+0xd0>
 8006804:	232d      	movs	r3, #45	@ 0x2d
 8006806:	426d      	negs	r5, r5
 8006808:	f884 3043 	strb.w	r3, [r4, #67]	@ 0x43
 800680c:	4859      	ldr	r0, [pc, #356]	@ (8006974 <_printf_i+0x238>)
 800680e:	230a      	movs	r3, #10
 8006810:	e011      	b.n	8006836 <_printf_i+0xfa>
 8006812:	6821      	ldr	r1, [r4, #0]
 8006814:	6833      	ldr	r3, [r6, #0]
 8006816:	0608      	lsls	r0, r1, #24
 8006818:	f853 5b04 	ldr.w	r5, [r3], #4
 800681c:	d402      	bmi.n	8006824 <_printf_i+0xe8>
 800681e:	0649      	lsls	r1, r1, #25
 8006820:	bf48      	it	mi
 8006822:	b2ad      	uxthmi	r5, r5
 8006824:	2f6f      	cmp	r7, #111	@ 0x6f
 8006826:	4853      	ldr	r0, [pc, #332]	@ (8006974 <_printf_i+0x238>)
 8006828:	6033      	str	r3, [r6, #0]
 800682a:	bf14      	ite	ne
 800682c:	230a      	movne	r3, #10
 800682e:	2308      	moveq	r3, #8
 8006830:	2100      	movs	r1, #0
 8006832:	f884 1043 	strb.w	r1, [r4, #67]	@ 0x43
 8006836:	6866      	ldr	r6, [r4, #4]
 8006838:	60a6      	str	r6, [r4, #8]
 800683a:	2e00      	cmp	r6, #0
 800683c:	bfa2      	ittt	ge
 800683e:	6821      	ldrge	r1, [r4, #0]
 8006840:	f021 0104 	bicge.w	r1, r1, #4
 8006844:	6021      	strge	r1, [r4, #0]
 8006846:	b90d      	cbnz	r5, 800684c <_printf_i+0x110>
 8006848:	2e00      	cmp	r6, #0
 800684a:	d04b      	beq.n	80068e4 <_printf_i+0x1a8>
 800684c:	4616      	mov	r6, r2
 800684e:	fbb5 f1f3 	udiv	r1, r5, r3
 8006852:	fb03 5711 	mls	r7, r3, r1, r5
 8006856:	5dc7      	ldrb	r7, [r0, r7]
 8006858:	f806 7d01 	strb.w	r7, [r6, #-1]!
 800685c:	462f      	mov	r7, r5
 800685e:	42bb      	cmp	r3, r7
 8006860:	460d      	mov	r5, r1
 8006862:	d9f4      	bls.n	800684e <_printf_i+0x112>
 8006864:	2b08      	cmp	r3, #8
 8006866:	d10b      	bne.n	8006880 <_printf_i+0x144>
 8006868:	6823      	ldr	r3, [r4, #0]
 800686a:	07df      	lsls	r7, r3, #31
 800686c:	d508      	bpl.n	8006880 <_printf_i+0x144>
 800686e:	6923      	ldr	r3, [r4, #16]
 8006870:	6861      	ldr	r1, [r4, #4]
 8006872:	4299      	cmp	r1, r3
 8006874:	bfde      	ittt	le
 8006876:	2330      	movle	r3, #48	@ 0x30
 8006878:	f806 3c01 	strble.w	r3, [r6, #-1]
 800687c:	f106 36ff 	addle.w	r6, r6, #4294967295	@ 0xffffffff
 8006880:	1b92      	subs	r2, r2, r6
 8006882:	6122      	str	r2, [r4, #16]
 8006884:	f8cd a000 	str.w	sl, [sp]
 8006888:	464b      	mov	r3, r9
 800688a:	aa03      	add	r2, sp, #12
 800688c:	4621      	mov	r1, r4
 800688e:	4640      	mov	r0, r8
 8006890:	f7ff fee6 	bl	8006660 <_printf_common>
 8006894:	3001      	adds	r0, #1
 8006896:	d14a      	bne.n	800692e <_printf_i+0x1f2>
 8006898:	f04f 30ff 	mov.w	r0, #4294967295	@ 0xffffffff
 800689c:	b004      	add	sp, #16
 800689e:	e8bd 87f0 	ldmia.w	sp!, {r4, r5, r6, r7, r8, r9, sl, pc}
 80068a2:	6823      	ldr	r3, [r4, #0]
 80068a4:	f043 0320 	orr.w	r3, r3, #32
 80068a8:	6023      	str	r3, [r4, #0]
 80068aa:	4833      	ldr	r0, [pc, #204]	@ (8006978 <_printf_i+0x23c>)
 80068ac:	2778      	movs	r7, #120	@ 0x78
 80068ae:	f884 7045 	strb.w	r7, [r4, #69]	@ 0x45
 80068b2:	6823      	ldr	r3, [r4, #0]
 80068b4:	6831      	ldr	r1, [r6, #0]
 80068b6:	061f      	lsls	r7, r3, #24
 80068b8:	f851 5b04 	ldr.w	r5, [r1], #4
 80068bc:	d402      	bmi.n	80068c4 <_printf_i+0x188>
 80068be:	065f      	lsls	r7, r3, #25
 80068c0:	bf48      	it	mi
 80068c2:	b2ad      	uxthmi	r5, r5
 80068c4:	6031      	str	r1, [r6, #0]
 80068c6:	07d9      	lsls	r1, r3, #31
 80068c8:	bf44      	itt	mi
 80068ca:	f043 0320 	orrmi.w	r3, r3, #32
 80068ce:	6023      	strmi	r3, [r4, #0]
 80068d0:	b11d      	cbz	r5, 80068da <_printf_i+0x19e>
 80068d2:	2310      	movs	r3, #16
 80068d4:	e7ac      	b.n	8006830 <_printf_i+0xf4>
 80068d6:	4827      	ldr	r0, [pc, #156]	@ (8006974 <_printf_i+0x238>)
 80068d8:	e7e9      	b.n	80068ae <_printf_i+0x172>
 80068da:	6823      	ldr	r3, [r4, #0]
 80068dc:	f023 0320 	bic.w	r3, r3, #32
 80068e0:	6023      	str	r3, [r4, #0]
 80068e2:	e7f6      	b.n	80068d2 <_printf_i+0x196>
 80068e4:	4616      	mov	r6, r2
 80068e6:	e7bd      	b.n	8006864 <_printf_i+0x128>
 80068e8:	6833      	ldr	r3, [r6, #0]
 80068ea:	6825      	ldr	r5, [r4, #0]
 80068ec:	6961      	ldr	r1, [r4, #20]
 80068ee:	1d18      	adds	r0, r3, #4
 80068f0:	6030      	str	r0, [r6, #0]
 80068f2:	062e      	lsls	r6, r5, #24
 80068f4:	681b      	ldr	r3, [r3, #0]
 80068f6:	d501      	bpl.n	80068fc <_printf_i+0x1c0>
 80068f8:	6019      	str	r1, [r3, #0]
 80068fa:	e002      	b.n	8006902 <_printf_i+0x1c6>
 80068fc:	0668      	lsls	r0, r5, #25
 80068fe:	d5fb      	bpl.n	80068f8 <_printf_i+0x1bc>
 8006900:	8019      	strh	r1, [r3, #0]
 8006902:	2300      	movs	r3, #0
 8006904:	6123      	str	r3, [r4, #16]
 8006906:	4616      	mov	r6, r2
 8006908:	e7bc      	b.n	8006884 <_printf_i+0x148>
 800690a:	6833      	ldr	r3, [r6, #0]
 800690c:	1d1a      	adds	r2, r3, #4
 800690e:	6032      	str	r2, [r6, #0]
 8006910:	681e      	ldr	r6, [r3, #0]
 8006912:	6862      	ldr	r2, [r4, #4]
 8006914:	2100      	movs	r1, #0
 8006916:	4630      	mov	r0, r6
 8006918:	f7f9 fc82 	bl	8000220 <memchr>
 800691c:	b108      	cbz	r0, 8006922 <_printf_i+0x1e6>
 800691e:	1b80      	subs	r0, r0, r6
 8006920:	6060      	str	r0, [r4, #4]
 8006922:	6863      	ldr	r3, [r4, #4]
 8006924:	6123      	str	r3, [r4, #16]
 8006926:	2300      	movs	r3, #0
 8006928:	f884 3043 	strb.w	r3, [r4, #67]	@ 0x43
 800692c:	e7aa      	b.n	8006884 <_printf_i+0x148>
 800692e:	6923      	ldr	r3, [r4, #16]
 8006930:	4632      	mov	r2, r6
 8006932:	4649      	mov	r1, r9
 8006934:	4640      	mov	r0, r8
 8006936:	47d0      	blx	sl
 8006938:	3001      	adds	r0, #1
 800693a:	d0ad      	beq.n	8006898 <_printf_i+0x15c>
 800693c:	6823      	ldr	r3, [r4, #0]
 800693e:	079b      	lsls	r3, r3, #30
 8006940:	d413      	bmi.n	800696a <_printf_i+0x22e>
 8006942:	68e0      	ldr	r0, [r4, #12]
 8006944:	9b03      	ldr	r3, [sp, #12]
 8006946:	4298      	cmp	r0, r3
 8006948:	bfb8      	it	lt
 800694a:	4618      	movlt	r0, r3
 800694c:	e7a6      	b.n	800689c <_printf_i+0x160>
 800694e:	2301      	movs	r3, #1
 8006950:	4632      	mov	r2, r6
 8006952:	4649      	mov	r1, r9
 8006954:	4640      	mov	r0, r8
 8006956:	47d0      	blx	sl
 8006958:	3001      	adds	r0, #1
 800695a:	d09d      	beq.n	8006898 <_printf_i+0x15c>
 800695c:	3501      	adds	r5, #1
 800695e:	68e3      	ldr	r3, [r4, #12]
 8006960:	9903      	ldr	r1, [sp, #12]
 8006962:	1a5b      	subs	r3, r3, r1
 8006964:	42ab      	cmp	r3, r5
 8006966:	dcf2      	bgt.n	800694e <_printf_i+0x212>
 8006968:	e7eb      	b.n	8006942 <_printf_i+0x206>
 800696a:	2500      	movs	r5, #0
 800696c:	f104 0619 	add.w	r6, r4, #25
 8006970:	e7f5      	b.n	800695e <_printf_i+0x222>
 8006972:	bf00      	nop
 8006974:	08006dc1 	.word	0x08006dc1
 8006978:	08006dd2 	.word	0x08006dd2

0800697c <__sflush_r>:
 800697c:	f9b1 200c 	ldrsh.w	r2, [r1, #12]
 8006980:	e92d 41f0 	stmdb	sp!, {r4, r5, r6, r7, r8, lr}
 8006984:	0716      	lsls	r6, r2, #28
 8006986:	4605      	mov	r5, r0
 8006988:	460c      	mov	r4, r1
 800698a:	d454      	bmi.n	8006a36 <__sflush_r+0xba>
 800698c:	684b      	ldr	r3, [r1, #4]
 800698e:	2b00      	cmp	r3, #0
 8006990:	dc02      	bgt.n	8006998 <__sflush_r+0x1c>
 8006992:	6c0b      	ldr	r3, [r1, #64]	@ 0x40
 8006994:	2b00      	cmp	r3, #0
 8006996:	dd48      	ble.n	8006a2a <__sflush_r+0xae>
 8006998:	6ae6      	ldr	r6, [r4, #44]	@ 0x2c
 800699a:	2e00      	cmp	r6, #0
 800699c:	d045      	beq.n	8006a2a <__sflush_r+0xae>
 800699e:	2300      	movs	r3, #0
 80069a0:	f412 5280 	ands.w	r2, r2, #4096	@ 0x1000
 80069a4:	682f      	ldr	r7, [r5, #0]
 80069a6:	6a21      	ldr	r1, [r4, #32]
 80069a8:	602b      	str	r3, [r5, #0]
 80069aa:	d030      	beq.n	8006a0e <__sflush_r+0x92>
 80069ac:	6d62      	ldr	r2, [r4, #84]	@ 0x54
 80069ae:	89a3      	ldrh	r3, [r4, #12]
 80069b0:	0759      	lsls	r1, r3, #29
 80069b2:	d505      	bpl.n	80069c0 <__sflush_r+0x44>
 80069b4:	6863      	ldr	r3, [r4, #4]
 80069b6:	1ad2      	subs	r2, r2, r3
 80069b8:	6b63      	ldr	r3, [r4, #52]	@ 0x34
 80069ba:	b10b      	cbz	r3, 80069c0 <__sflush_r+0x44>
 80069bc:	6c23      	ldr	r3, [r4, #64]	@ 0x40
 80069be:	1ad2      	subs	r2, r2, r3
 80069c0:	2300      	movs	r3, #0
 80069c2:	6ae6      	ldr	r6, [r4, #44]	@ 0x2c
 80069c4:	6a21      	ldr	r1, [r4, #32]
 80069c6:	4628      	mov	r0, r5
 80069c8:	47b0      	blx	r6
 80069ca:	1c43      	adds	r3, r0, #1
 80069cc:	89a3      	ldrh	r3, [r4, #12]
 80069ce:	d106      	bne.n	80069de <__sflush_r+0x62>
 80069d0:	6829      	ldr	r1, [r5, #0]
 80069d2:	291d      	cmp	r1, #29
 80069d4:	d82b      	bhi.n	8006a2e <__sflush_r+0xb2>
 80069d6:	4a2a      	ldr	r2, [pc, #168]	@ (8006a80 <__sflush_r+0x104>)
 80069d8:	410a      	asrs	r2, r1
 80069da:	07d6      	lsls	r6, r2, #31
 80069dc:	d427      	bmi.n	8006a2e <__sflush_r+0xb2>
 80069de:	2200      	movs	r2, #0
 80069e0:	6062      	str	r2, [r4, #4]
 80069e2:	04d9      	lsls	r1, r3, #19
 80069e4:	6922      	ldr	r2, [r4, #16]
 80069e6:	6022      	str	r2, [r4, #0]
 80069e8:	d504      	bpl.n	80069f4 <__sflush_r+0x78>
 80069ea:	1c42      	adds	r2, r0, #1
 80069ec:	d101      	bne.n	80069f2 <__sflush_r+0x76>
 80069ee:	682b      	ldr	r3, [r5, #0]
 80069f0:	b903      	cbnz	r3, 80069f4 <__sflush_r+0x78>
 80069f2:	6560      	str	r0, [r4, #84]	@ 0x54
 80069f4:	6b61      	ldr	r1, [r4, #52]	@ 0x34
 80069f6:	602f      	str	r7, [r5, #0]
 80069f8:	b1b9      	cbz	r1, 8006a2a <__sflush_r+0xae>
 80069fa:	f104 0344 	add.w	r3, r4, #68	@ 0x44
 80069fe:	4299      	cmp	r1, r3
 8006a00:	d002      	beq.n	8006a08 <__sflush_r+0x8c>
 8006a02:	4628      	mov	r0, r5
 8006a04:	f7ff fbf2 	bl	80061ec <_free_r>
 8006a08:	2300      	movs	r3, #0
 8006a0a:	6363      	str	r3, [r4, #52]	@ 0x34
 8006a0c:	e00d      	b.n	8006a2a <__sflush_r+0xae>
 8006a0e:	2301      	movs	r3, #1
 8006a10:	4628      	mov	r0, r5
 8006a12:	47b0      	blx	r6
 8006a14:	4602      	mov	r2, r0
 8006a16:	1c50      	adds	r0, r2, #1
 8006a18:	d1c9      	bne.n	80069ae <__sflush_r+0x32>
 8006a1a:	682b      	ldr	r3, [r5, #0]
 8006a1c:	2b00      	cmp	r3, #0
 8006a1e:	d0c6      	beq.n	80069ae <__sflush_r+0x32>
 8006a20:	2b1d      	cmp	r3, #29
 8006a22:	d001      	beq.n	8006a28 <__sflush_r+0xac>
 8006a24:	2b16      	cmp	r3, #22
 8006a26:	d11e      	bne.n	8006a66 <__sflush_r+0xea>
 8006a28:	602f      	str	r7, [r5, #0]
 8006a2a:	2000      	movs	r0, #0
 8006a2c:	e022      	b.n	8006a74 <__sflush_r+0xf8>
 8006a2e:	f043 0340 	orr.w	r3, r3, #64	@ 0x40
 8006a32:	b21b      	sxth	r3, r3
 8006a34:	e01b      	b.n	8006a6e <__sflush_r+0xf2>
 8006a36:	690f      	ldr	r7, [r1, #16]
 8006a38:	2f00      	cmp	r7, #0
 8006a3a:	d0f6      	beq.n	8006a2a <__sflush_r+0xae>
 8006a3c:	0793      	lsls	r3, r2, #30
 8006a3e:	680e      	ldr	r6, [r1, #0]
 8006a40:	bf08      	it	eq
 8006a42:	694b      	ldreq	r3, [r1, #20]
 8006a44:	600f      	str	r7, [r1, #0]
 8006a46:	bf18      	it	ne
 8006a48:	2300      	movne	r3, #0
 8006a4a:	eba6 0807 	sub.w	r8, r6, r7
 8006a4e:	608b      	str	r3, [r1, #8]
 8006a50:	f1b8 0f00 	cmp.w	r8, #0
 8006a54:	dde9      	ble.n	8006a2a <__sflush_r+0xae>
 8006a56:	6a21      	ldr	r1, [r4, #32]
 8006a58:	6aa6      	ldr	r6, [r4, #40]	@ 0x28
 8006a5a:	4643      	mov	r3, r8
 8006a5c:	463a      	mov	r2, r7
 8006a5e:	4628      	mov	r0, r5
 8006a60:	47b0      	blx	r6
 8006a62:	2800      	cmp	r0, #0
 8006a64:	dc08      	bgt.n	8006a78 <__sflush_r+0xfc>
 8006a66:	f9b4 300c 	ldrsh.w	r3, [r4, #12]
 8006a6a:	f043 0340 	orr.w	r3, r3, #64	@ 0x40
 8006a6e:	81a3      	strh	r3, [r4, #12]
 8006a70:	f04f 30ff 	mov.w	r0, #4294967295	@ 0xffffffff
 8006a74:	e8bd 81f0 	ldmia.w	sp!, {r4, r5, r6, r7, r8, pc}
 8006a78:	4407      	add	r7, r0
 8006a7a:	eba8 0800 	sub.w	r8, r8, r0
 8006a7e:	e7e7      	b.n	8006a50 <__sflush_r+0xd4>
 8006a80:	dfbffffe 	.word	0xdfbffffe

08006a84 <_fflush_r>:
 8006a84:	b538      	push	{r3, r4, r5, lr}
 8006a86:	690b      	ldr	r3, [r1, #16]
 8006a88:	4605      	mov	r5, r0
 8006a8a:	460c      	mov	r4, r1
 8006a8c:	b913      	cbnz	r3, 8006a94 <_fflush_r+0x10>
 8006a8e:	2500      	movs	r5, #0
 8006a90:	4628      	mov	r0, r5
 8006a92:	bd38      	pop	{r3, r4, r5, pc}
 8006a94:	b118      	cbz	r0, 8006a9e <_fflush_r+0x1a>
 8006a96:	6a03      	ldr	r3, [r0, #32]
 8006a98:	b90b      	cbnz	r3, 8006a9e <_fflush_r+0x1a>
 8006a9a:	f7ff fa9f 	bl	8005fdc <__sinit>
 8006a9e:	f9b4 300c 	ldrsh.w	r3, [r4, #12]
 8006aa2:	2b00      	cmp	r3, #0
 8006aa4:	d0f3      	beq.n	8006a8e <_fflush_r+0xa>
 8006aa6:	6e62      	ldr	r2, [r4, #100]	@ 0x64
 8006aa8:	07d0      	lsls	r0, r2, #31
 8006aaa:	d404      	bmi.n	8006ab6 <_fflush_r+0x32>
 8006aac:	0599      	lsls	r1, r3, #22
 8006aae:	d402      	bmi.n	8006ab6 <_fflush_r+0x32>
 8006ab0:	6da0      	ldr	r0, [r4, #88]	@ 0x58
 8006ab2:	f7ff fb98 	bl	80061e6 <__retarget_lock_acquire_recursive>
 8006ab6:	4628      	mov	r0, r5
 8006ab8:	4621      	mov	r1, r4
 8006aba:	f7ff ff5f 	bl	800697c <__sflush_r>
 8006abe:	6e63      	ldr	r3, [r4, #100]	@ 0x64
 8006ac0:	07da      	lsls	r2, r3, #31
 8006ac2:	4605      	mov	r5, r0
 8006ac4:	d4e4      	bmi.n	8006a90 <_fflush_r+0xc>
 8006ac6:	89a3      	ldrh	r3, [r4, #12]
 8006ac8:	059b      	lsls	r3, r3, #22
 8006aca:	d4e1      	bmi.n	8006a90 <_fflush_r+0xc>
 8006acc:	6da0      	ldr	r0, [r4, #88]	@ 0x58
 8006ace:	f7ff fb8b 	bl	80061e8 <__retarget_lock_release_recursive>
 8006ad2:	e7dd      	b.n	8006a90 <_fflush_r+0xc>

08006ad4 <__swbuf_r>:
 8006ad4:	b5f8      	push	{r3, r4, r5, r6, r7, lr}
 8006ad6:	460e      	mov	r6, r1
 8006ad8:	4614      	mov	r4, r2
 8006ada:	4605      	mov	r5, r0
 8006adc:	b118      	cbz	r0, 8006ae6 <__swbuf_r+0x12>
 8006ade:	6a03      	ldr	r3, [r0, #32]
 8006ae0:	b90b      	cbnz	r3, 8006ae6 <__swbuf_r+0x12>
 8006ae2:	f7ff fa7b 	bl	8005fdc <__sinit>
 8006ae6:	69a3      	ldr	r3, [r4, #24]
 8006ae8:	60a3      	str	r3, [r4, #8]
 8006aea:	89a3      	ldrh	r3, [r4, #12]
 8006aec:	071a      	lsls	r2, r3, #28
 8006aee:	d501      	bpl.n	8006af4 <__swbuf_r+0x20>
 8006af0:	6923      	ldr	r3, [r4, #16]
 8006af2:	b943      	cbnz	r3, 8006b06 <__swbuf_r+0x32>
 8006af4:	4621      	mov	r1, r4
 8006af6:	4628      	mov	r0, r5
 8006af8:	f000 f82a 	bl	8006b50 <__swsetup_r>
 8006afc:	b118      	cbz	r0, 8006b06 <__swbuf_r+0x32>
 8006afe:	f04f 37ff 	mov.w	r7, #4294967295	@ 0xffffffff
 8006b02:	4638      	mov	r0, r7
 8006b04:	bdf8      	pop	{r3, r4, r5, r6, r7, pc}
 8006b06:	6823      	ldr	r3, [r4, #0]
 8006b08:	6922      	ldr	r2, [r4, #16]
 8006b0a:	1a98      	subs	r0, r3, r2
 8006b0c:	6963      	ldr	r3, [r4, #20]
 8006b0e:	b2f6      	uxtb	r6, r6
 8006b10:	4283      	cmp	r3, r0
 8006b12:	4637      	mov	r7, r6
 8006b14:	dc05      	bgt.n	8006b22 <__swbuf_r+0x4e>
 8006b16:	4621      	mov	r1, r4
 8006b18:	4628      	mov	r0, r5
 8006b1a:	f7ff ffb3 	bl	8006a84 <_fflush_r>
 8006b1e:	2800      	cmp	r0, #0
 8006b20:	d1ed      	bne.n	8006afe <__swbuf_r+0x2a>
 8006b22:	68a3      	ldr	r3, [r4, #8]
 8006b24:	3b01      	subs	r3, #1
 8006b26:	60a3      	str	r3, [r4, #8]
 8006b28:	6823      	ldr	r3, [r4, #0]
 8006b2a:	1c5a      	adds	r2, r3, #1
 8006b2c:	6022      	str	r2, [r4, #0]
 8006b2e:	701e      	strb	r6, [r3, #0]
 8006b30:	6962      	ldr	r2, [r4, #20]
 8006b32:	1c43      	adds	r3, r0, #1
 8006b34:	429a      	cmp	r2, r3
 8006b36:	d004      	beq.n	8006b42 <__swbuf_r+0x6e>
 8006b38:	89a3      	ldrh	r3, [r4, #12]
 8006b3a:	07db      	lsls	r3, r3, #31
 8006b3c:	d5e1      	bpl.n	8006b02 <__swbuf_r+0x2e>
 8006b3e:	2e0a      	cmp	r6, #10
 8006b40:	d1df      	bne.n	8006b02 <__swbuf_r+0x2e>
 8006b42:	4621      	mov	r1, r4
 8006b44:	4628      	mov	r0, r5
 8006b46:	f7ff ff9d 	bl	8006a84 <_fflush_r>
 8006b4a:	2800      	cmp	r0, #0
 8006b4c:	d0d9      	beq.n	8006b02 <__swbuf_r+0x2e>
 8006b4e:	e7d6      	b.n	8006afe <__swbuf_r+0x2a>

08006b50 <__swsetup_r>:
 8006b50:	b538      	push	{r3, r4, r5, lr}
 8006b52:	4b29      	ldr	r3, [pc, #164]	@ (8006bf8 <__swsetup_r+0xa8>)
 8006b54:	4605      	mov	r5, r0
 8006b56:	6818      	ldr	r0, [r3, #0]
 8006b58:	460c      	mov	r4, r1
 8006b5a:	b118      	cbz	r0, 8006b64 <__swsetup_r+0x14>
 8006b5c:	6a03      	ldr	r3, [r0, #32]
 8006b5e:	b90b      	cbnz	r3, 8006b64 <__swsetup_r+0x14>
 8006b60:	f7ff fa3c 	bl	8005fdc <__sinit>
 8006b64:	f9b4 300c 	ldrsh.w	r3, [r4, #12]
 8006b68:	0719      	lsls	r1, r3, #28
 8006b6a:	d422      	bmi.n	8006bb2 <__swsetup_r+0x62>
 8006b6c:	06da      	lsls	r2, r3, #27
 8006b6e:	d407      	bmi.n	8006b80 <__swsetup_r+0x30>
 8006b70:	2209      	movs	r2, #9
 8006b72:	602a      	str	r2, [r5, #0]
 8006b74:	f043 0340 	orr.w	r3, r3, #64	@ 0x40
 8006b78:	81a3      	strh	r3, [r4, #12]
 8006b7a:	f04f 30ff 	mov.w	r0, #4294967295	@ 0xffffffff
 8006b7e:	e033      	b.n	8006be8 <__swsetup_r+0x98>
 8006b80:	0758      	lsls	r0, r3, #29
 8006b82:	d512      	bpl.n	8006baa <__swsetup_r+0x5a>
 8006b84:	6b61      	ldr	r1, [r4, #52]	@ 0x34
 8006b86:	b141      	cbz	r1, 8006b9a <__swsetup_r+0x4a>
 8006b88:	f104 0344 	add.w	r3, r4, #68	@ 0x44
 8006b8c:	4299      	cmp	r1, r3
 8006b8e:	d002      	beq.n	8006b96 <__swsetup_r+0x46>
 8006b90:	4628      	mov	r0, r5
 8006b92:	f7ff fb2b 	bl	80061ec <_free_r>
 8006b96:	2300      	movs	r3, #0
 8006b98:	6363      	str	r3, [r4, #52]	@ 0x34
 8006b9a:	89a3      	ldrh	r3, [r4, #12]
 8006b9c:	f023 0324 	bic.w	r3, r3, #36	@ 0x24
 8006ba0:	81a3      	strh	r3, [r4, #12]
 8006ba2:	2300      	movs	r3, #0
 8006ba4:	6063      	str	r3, [r4, #4]
 8006ba6:	6923      	ldr	r3, [r4, #16]
 8006ba8:	6023      	str	r3, [r4, #0]
 8006baa:	89a3      	ldrh	r3, [r4, #12]
 8006bac:	f043 0308 	orr.w	r3, r3, #8
 8006bb0:	81a3      	strh	r3, [r4, #12]
 8006bb2:	6923      	ldr	r3, [r4, #16]
 8006bb4:	b94b      	cbnz	r3, 8006bca <__swsetup_r+0x7a>
 8006bb6:	89a3      	ldrh	r3, [r4, #12]
 8006bb8:	f403 7320 	and.w	r3, r3, #640	@ 0x280
 8006bbc:	f5b3 7f00 	cmp.w	r3, #512	@ 0x200
 8006bc0:	d003      	beq.n	8006bca <__swsetup_r+0x7a>
 8006bc2:	4621      	mov	r1, r4
 8006bc4:	4628      	mov	r0, r5
 8006bc6:	f000 f84f 	bl	8006c68 <__smakebuf_r>
 8006bca:	f9b4 300c 	ldrsh.w	r3, [r4, #12]
 8006bce:	f013 0201 	ands.w	r2, r3, #1
 8006bd2:	d00a      	beq.n	8006bea <__swsetup_r+0x9a>
 8006bd4:	2200      	movs	r2, #0
 8006bd6:	60a2      	str	r2, [r4, #8]
 8006bd8:	6962      	ldr	r2, [r4, #20]
 8006bda:	4252      	negs	r2, r2
 8006bdc:	61a2      	str	r2, [r4, #24]
 8006bde:	6922      	ldr	r2, [r4, #16]
 8006be0:	b942      	cbnz	r2, 8006bf4 <__swsetup_r+0xa4>
 8006be2:	f013 0080 	ands.w	r0, r3, #128	@ 0x80
 8006be6:	d1c5      	bne.n	8006b74 <__swsetup_r+0x24>
 8006be8:	bd38      	pop	{r3, r4, r5, pc}
 8006bea:	0799      	lsls	r1, r3, #30
 8006bec:	bf58      	it	pl
 8006bee:	6962      	ldrpl	r2, [r4, #20]
 8006bf0:	60a2      	str	r2, [r4, #8]
 8006bf2:	e7f4      	b.n	8006bde <__swsetup_r+0x8e>
 8006bf4:	2000      	movs	r0, #0
 8006bf6:	e7f7      	b.n	8006be8 <__swsetup_r+0x98>
 8006bf8:	20000018 	.word	0x20000018

08006bfc <_sbrk_r>:
 8006bfc:	b538      	push	{r3, r4, r5, lr}
 8006bfe:	4d06      	ldr	r5, [pc, #24]	@ (8006c18 <_sbrk_r+0x1c>)
 8006c00:	2300      	movs	r3, #0
 8006c02:	4604      	mov	r4, r0
 8006c04:	4608      	mov	r0, r1
 8006c06:	602b      	str	r3, [r5, #0]
 8006c08:	f7f9 ffbc 	bl	8000b84 <_sbrk>
 8006c0c:	1c43      	adds	r3, r0, #1
 8006c0e:	d102      	bne.n	8006c16 <_sbrk_r+0x1a>
 8006c10:	682b      	ldr	r3, [r5, #0]
 8006c12:	b103      	cbz	r3, 8006c16 <_sbrk_r+0x1a>
 8006c14:	6023      	str	r3, [r4, #0]
 8006c16:	bd38      	pop	{r3, r4, r5, pc}
 8006c18:	20000314 	.word	0x20000314

08006c1c <__swhatbuf_r>:
 8006c1c:	b570      	push	{r4, r5, r6, lr}
 8006c1e:	460c      	mov	r4, r1
 8006c20:	f9b1 100e 	ldrsh.w	r1, [r1, #14]
 8006c24:	2900      	cmp	r1, #0
 8006c26:	b096      	sub	sp, #88	@ 0x58
 8006c28:	4615      	mov	r5, r2
 8006c2a:	461e      	mov	r6, r3
 8006c2c:	da0d      	bge.n	8006c4a <__swhatbuf_r+0x2e>
 8006c2e:	89a3      	ldrh	r3, [r4, #12]
 8006c30:	f013 0f80 	tst.w	r3, #128	@ 0x80
 8006c34:	f04f 0100 	mov.w	r1, #0
 8006c38:	bf14      	ite	ne
 8006c3a:	2340      	movne	r3, #64	@ 0x40
 8006c3c:	f44f 6380 	moveq.w	r3, #1024	@ 0x400
 8006c40:	2000      	movs	r0, #0
 8006c42:	6031      	str	r1, [r6, #0]
 8006c44:	602b      	str	r3, [r5, #0]
 8006c46:	b016      	add	sp, #88	@ 0x58
 8006c48:	bd70      	pop	{r4, r5, r6, pc}
 8006c4a:	466a      	mov	r2, sp
 8006c4c:	f000 f848 	bl	8006ce0 <_fstat_r>
 8006c50:	2800      	cmp	r0, #0
 8006c52:	dbec      	blt.n	8006c2e <__swhatbuf_r+0x12>
 8006c54:	9901      	ldr	r1, [sp, #4]
 8006c56:	f401 4170 	and.w	r1, r1, #61440	@ 0xf000
 8006c5a:	f5a1 5300 	sub.w	r3, r1, #8192	@ 0x2000
 8006c5e:	4259      	negs	r1, r3
 8006c60:	4159      	adcs	r1, r3
 8006c62:	f44f 6380 	mov.w	r3, #1024	@ 0x400
 8006c66:	e7eb      	b.n	8006c40 <__swhatbuf_r+0x24>

08006c68 <__smakebuf_r>:
 8006c68:	898b      	ldrh	r3, [r1, #12]
 8006c6a:	b5f7      	push	{r0, r1, r2, r4, r5, r6, r7, lr}
 8006c6c:	079d      	lsls	r5, r3, #30
 8006c6e:	4606      	mov	r6, r0
 8006c70:	460c      	mov	r4, r1
 8006c72:	d507      	bpl.n	8006c84 <__smakebuf_r+0x1c>
 8006c74:	f104 0347 	add.w	r3, r4, #71	@ 0x47
 8006c78:	6023      	str	r3, [r4, #0]
 8006c7a:	6123      	str	r3, [r4, #16]
 8006c7c:	2301      	movs	r3, #1
 8006c7e:	6163      	str	r3, [r4, #20]
 8006c80:	b003      	add	sp, #12
 8006c82:	bdf0      	pop	{r4, r5, r6, r7, pc}
 8006c84:	ab01      	add	r3, sp, #4
 8006c86:	466a      	mov	r2, sp
 8006c88:	f7ff ffc8 	bl	8006c1c <__swhatbuf_r>
 8006c8c:	9f00      	ldr	r7, [sp, #0]
 8006c8e:	4605      	mov	r5, r0
 8006c90:	4639      	mov	r1, r7
 8006c92:	4630      	mov	r0, r6
 8006c94:	f7ff fb16 	bl	80062c4 <_malloc_r>
 8006c98:	b948      	cbnz	r0, 8006cae <__smakebuf_r+0x46>
 8006c9a:	f9b4 300c 	ldrsh.w	r3, [r4, #12]
 8006c9e:	059a      	lsls	r2, r3, #22
 8006ca0:	d4ee      	bmi.n	8006c80 <__smakebuf_r+0x18>
 8006ca2:	f023 0303 	bic.w	r3, r3, #3
 8006ca6:	f043 0302 	orr.w	r3, r3, #2
 8006caa:	81a3      	strh	r3, [r4, #12]
 8006cac:	e7e2      	b.n	8006c74 <__smakebuf_r+0xc>
 8006cae:	89a3      	ldrh	r3, [r4, #12]
 8006cb0:	6020      	str	r0, [r4, #0]
 8006cb2:	f043 0380 	orr.w	r3, r3, #128	@ 0x80
 8006cb6:	81a3      	strh	r3, [r4, #12]
 8006cb8:	9b01      	ldr	r3, [sp, #4]
 8006cba:	e9c4 0704 	strd	r0, r7, [r4, #16]
 8006cbe:	b15b      	cbz	r3, 8006cd8 <__smakebuf_r+0x70>
 8006cc0:	f9b4 100e 	ldrsh.w	r1, [r4, #14]
 8006cc4:	4630      	mov	r0, r6
 8006cc6:	f000 f81d 	bl	8006d04 <_isatty_r>
 8006cca:	b128      	cbz	r0, 8006cd8 <__smakebuf_r+0x70>
 8006ccc:	89a3      	ldrh	r3, [r4, #12]
 8006cce:	f023 0303 	bic.w	r3, r3, #3
 8006cd2:	f043 0301 	orr.w	r3, r3, #1
 8006cd6:	81a3      	strh	r3, [r4, #12]
 8006cd8:	89a3      	ldrh	r3, [r4, #12]
 8006cda:	431d      	orrs	r5, r3
 8006cdc:	81a5      	strh	r5, [r4, #12]
 8006cde:	e7cf      	b.n	8006c80 <__smakebuf_r+0x18>

08006ce0 <_fstat_r>:
 8006ce0:	b538      	push	{r3, r4, r5, lr}
 8006ce2:	4d07      	ldr	r5, [pc, #28]	@ (8006d00 <_fstat_r+0x20>)
 8006ce4:	2300      	movs	r3, #0
 8006ce6:	4604      	mov	r4, r0
 8006ce8:	4608      	mov	r0, r1
 8006cea:	4611      	mov	r1, r2
 8006cec:	602b      	str	r3, [r5, #0]
 8006cee:	f7f9 ff20 	bl	8000b32 <_fstat>
 8006cf2:	1c43      	adds	r3, r0, #1
 8006cf4:	d102      	bne.n	8006cfc <_fstat_r+0x1c>
 8006cf6:	682b      	ldr	r3, [r5, #0]
 8006cf8:	b103      	cbz	r3, 8006cfc <_fstat_r+0x1c>
 8006cfa:	6023      	str	r3, [r4, #0]
 8006cfc:	bd38      	pop	{r3, r4, r5, pc}
 8006cfe:	bf00      	nop
 8006d00:	20000314 	.word	0x20000314

08006d04 <_isatty_r>:
 8006d04:	b538      	push	{r3, r4, r5, lr}
 8006d06:	4d06      	ldr	r5, [pc, #24]	@ (8006d20 <_isatty_r+0x1c>)
 8006d08:	2300      	movs	r3, #0
 8006d0a:	4604      	mov	r4, r0
 8006d0c:	4608      	mov	r0, r1
 8006d0e:	602b      	str	r3, [r5, #0]
 8006d10:	f7f9 ff1f 	bl	8000b52 <_isatty>
 8006d14:	1c43      	adds	r3, r0, #1
 8006d16:	d102      	bne.n	8006d1e <_isatty_r+0x1a>
 8006d18:	682b      	ldr	r3, [r5, #0]
 8006d1a:	b103      	cbz	r3, 8006d1e <_isatty_r+0x1a>
 8006d1c:	6023      	str	r3, [r4, #0]
 8006d1e:	bd38      	pop	{r3, r4, r5, pc}
 8006d20:	20000314 	.word	0x20000314

08006d24 <_init>:
 8006d24:	b5f8      	push	{r3, r4, r5, r6, r7, lr}
 8006d26:	bf00      	nop
 8006d28:	bcf8      	pop	{r3, r4, r5, r6, r7}
 8006d2a:	bc08      	pop	{r3}
 8006d2c:	469e      	mov	lr, r3
 8006d2e:	4770      	bx	lr

08006d30 <_fini>:
 8006d30:	b5f8      	push	{r3, r4, r5, r6, r7, lr}
 8006d32:	bf00      	nop
 8006d34:	bcf8      	pop	{r3, r4, r5, r6, r7}
 8006d36:	bc08      	pop	{r3}
 8006d38:	469e      	mov	lr, r3
 8006d3a:	4770      	bx	lr
